
OLED_I2C.elf:     file format elf32-littleriscv
OLED_I2C.elf
architecture: riscv:rv32, flags 0x00000112:
EXEC_P, HAS_SYMS, D_PAGED
start address 0x00000000

Program Header:
    LOAD off    0x00001000 vaddr 0x00000000 paddr 0x00000000 align 2**12
         filesz 0x0000a8b4 memsz 0x0000a8b4 flags r-x
    LOAD off    0x0000c000 vaddr 0x20000000 paddr 0x0000a8b4 align 2**12
         filesz 0x00000228 memsz 0x00000724 flags rw-
    LOAD off    0x0000c800 vaddr 0x20007800 paddr 0x20007800 align 2**12
         filesz 0x00000000 memsz 0x00000800 flags rw-

Sections:
Idx Name          Size      VMA       LMA       File off  Algn
  0 .init         00000038  00000000  00000000  00001000  2**1
                  CONTENTS, ALLOC, LOAD, READONLY, CODE
  1 .vector       000001c8  00000038  00000038  00001038  2**1
                  CONTENTS, ALLOC, LOAD, READONLY, CODE
  2 .text         0000a6b4  00000200  00000200  00001200  2**3
                  CONTENTS, ALLOC, LOAD, READONLY, CODE
  3 .fini         00000000  0000a8b4  0000a8b4  0000c228  2**0
                  CONTENTS, ALLOC, LOAD, CODE
  4 .dalign       00000000  20000000  20000000  0000c228  2**0
                  CONTENTS
  5 .dlalign      00000000  0000a8b4  0000a8b4  0000c228  2**0
                  CONTENTS
  6 .data         00000228  20000000  0000a8b4  0000c000  2**2
                  CONTENTS, ALLOC, LOAD, DATA
  7 .bss          000004fc  20000228  0000aadc  0000c228  2**2
                  ALLOC
  8 .stack        00000800  20007800  20007800  0000c800  2**0
                  ALLOC
  9 .debug_info   000701d7  00000000  00000000  0000c228  2**0
                  CONTENTS, READONLY, DEBUGGING
 10 .debug_abbrev 00003d65  00000000  00000000  0007c3ff  2**0
                  CONTENTS, READONLY, DEBUGGING
 11 .debug_loc    00027956  00000000  00000000  00080164  2**0
                  CONTENTS, READONLY, DEBUGGING
 12 .debug_aranges 00002208  00000000  00000000  000a7ac0  2**3
                  CONTENTS, READONLY, DEBUGGING
 13 .debug_ranges 00002348  00000000  00000000  000a9cc8  2**3
                  CONTENTS, READONLY, DEBUGGING
 14 .debug_line   00023480  00000000  00000000  000ac010  2**0
                  CONTENTS, READONLY, DEBUGGING
 15 .debug_str    00011542  00000000  00000000  000cf490  2**0
                  CONTENTS, READONLY, DEBUGGING
 16 .comment      00000033  00000000  00000000  000e09d2  2**0
                  CONTENTS, READONLY
 17 .debug_frame  000090b4  00000000  00000000  000e0a08  2**2
                  CONTENTS, READONLY, DEBUGGING
 18 .stab         00000084  00000000  00000000  000e9abc  2**2
                  CONTENTS, READONLY, DEBUGGING
 19 .stabstr      00000117  00000000  00000000  000e9b40  2**0
                  CONTENTS, READONLY, DEBUGGING
SYMBOL TABLE:
00000000 l    d  .init	00000000 .init
00000038 l    d  .vector	00000000 .vector
00000200 l    d  .text	00000000 .text
0000a8b4 l    d  .fini	00000000 .fini
20000000 l    d  .dalign	00000000 .dalign
0000a8b4 l    d  .dlalign	00000000 .dlalign
20000000 l    d  .data	00000000 .data
20000228 l    d  .bss	00000000 .bss
20007800 l    d  .stack	00000000 .stack
00000000 l    d  .debug_info	00000000 .debug_info
00000000 l    d  .debug_abbrev	00000000 .debug_abbrev
00000000 l    d  .debug_loc	00000000 .debug_loc
00000000 l    d  .debug_aranges	00000000 .debug_aranges
00000000 l    d  .debug_ranges	00000000 .debug_ranges
00000000 l    d  .debug_line	00000000 .debug_line
00000000 l    d  .debug_str	00000000 .debug_str
00000000 l    d  .comment	00000000 .comment
00000000 l    d  .debug_frame	00000000 .debug_frame
00000000 l    d  .stab	00000000 .stab
00000000 l    d  .stabstr	00000000 .stabstr
00000000 l    df *ABS*	00000000 ./Startup/startup_ch32v30x_D8C.o
00000038 l       .vector	00000000 _vector_base
00000000 l    df *ABS*	00000000 u8g2_buffer.c
000002a8 l     F .text	00000078 u8g2_send_buffer
00000000 l    df *ABS*	00000000 u8g2_d_memory.c
20000238 l     O .bss	00000400 buf.7910
00000000 l    df *ABS*	00000000 u8g2_d_setup.c
00000000 l    df *ABS*	00000000 u8g2_font.c
000003a2 l     F .text	00000014 u8g2_font_get_word
000003b6 l     F .text	00000022 u8g2_add_vector_y
000003d8 l     F .text	00000022 u8g2_add_vector_x
0000050e l     F .text	00000046 u8g2_font_setup_decode
000008dc l     F .text	000000a0 u8g2_draw_string
00000000 l    df *ABS*	00000000 u8g2_hvline.c
00000000 l    df *ABS*	00000000 u8g2_intersection.c
00000000 l    df *ABS*	00000000 u8g2_ll_hvline.c
00000000 l    df *ABS*	00000000 u8g2_setup.c
00000c02 l     F .text	00000072 u8g2_update_dimension_common
00000c78 l     F .text	00000070 u8g2_apply_clip_window
00000000 l    df *ABS*	00000000 u8x8_8x8.c
00000000 l    df *ABS*	00000000 u8x8_byte.c
00000000 l    df *ABS*	00000000 u8x8_cad.c
00000db8 l     F .text	00000030 u8x8_i2c_data_transfer
20000228 l     O .bss	00000001 in_transfer.3047
00000000 l    df *ABS*	00000000 u8x8_d_ssd1306_128x64_noname.c
00000f96 l     F .text	000000de u8x8_d_ssd1306_sh1106_generic
0000a24c l     O .text	00000035 u8x8_d_ssd1306_128x64_noname_init_seq
0000a284 l     O .text	00000018 u8x8_ssd1306_128x64_noname_display_info
20000204 l     O .data	00000007 u8x8_d_ssd1306_128x64_noname_flip0_seq
2000020c l     O .data	00000007 u8x8_d_ssd1306_128x64_noname_flip1_seq
20000214 l     O .data	00000005 u8x8_d_ssd1306_128x64_noname_powersave0_seq
2000021c l     O .data	00000005 u8x8_d_ssd1306_128x64_noname_powersave1_seq
00000000 l    df *ABS*	00000000 u8x8_display.c
00000000 l    df *ABS*	00000000 u8x8_gpio.c
00000000 l    df *ABS*	00000000 u8x8_setup.c
00000000 l    df *ABS*	00000000 ch32v30x_it.c
00000000 l    df *ABS*	00000000 main.c
20000638 l     O .bss	00000022 buffer.12144
20000229 l     O .bss	00000001 buf_idx.12145
00000000 l    df *ABS*	00000000 system_ch32v30x.c
00000000 l    df *ABS*	00000000 ch32v30x_gpio.c
00000000 l    df *ABS*	00000000 ch32v30x_i2c.c
00000000 l    df *ABS*	00000000 ch32v30x_rcc.c
20000000 l     O .data	00000010 APBAHBPrescTable
200001f8 l     O .data	00000004 ADCPrescTable
00000000 l    df *ABS*	00000000 ch32v30x_usart.c
00000000 l    df *ABS*	00000000 debug.c
2000022a l     O .bss	00000002 p_ms
2000022c l     O .bss	00000001 p_us
200001fc l     O .data	00000004 curbrk.5210
00000000 l    df *ABS*	00000000 extendsfdf2.c
00000000 l    df *ABS*	00000000 libgcc2.c
00000000 l    df *ABS*	00000000 nano-vfprintf_float.c
00000000 l    df *ABS*	00000000 nano-vfprintf_i.c
00000000 l    df *ABS*	00000000 nano-vfscanf_float.c
00000000 l    df *ABS*	00000000 printf.c
00000000 l    df *ABS*	00000000 puts.c
00000000 l    df *ABS*	00000000 sf_nan.c
00000000 l    df *ABS*	00000000 sprintf.c
00000000 l    df *ABS*	00000000 strlen.c
00000000 l    df *ABS*	00000000 strtod.c
0000310e l     F .text	0000004e sulp
0000a518 l     O .text	00000014 fpi.3395
0000a52c l     O .text	00000014 fpinan.3431
0000a540 l     O .text	00000028 tinytens
00000000 l    df *ABS*	00000000 strtol.c
00003dee l     F .text	00000144 _strtol_l.isra.0
00000000 l    df *ABS*	00000000 wbuf.c
00000000 l    df *ABS*	00000000 wsetup.c
00000000 l    df *ABS*	00000000 dtoa.c
0000411e l     F .text	0000013a quorem
00000000 l    df *ABS*	00000000 fflush.c
00000000 l    df *ABS*	00000000 findfp.c
0000501c l     F .text	0000006a std
00000000 l    df *ABS*	00000000 fwalk.c
00000000 l    df *ABS*	00000000 gdtoa-gethex.c
00005250 l     F .text	00000076 rshift
00000000 l    df *ABS*	00000000 gdtoa-hexnan.c
000057d2 l     F .text	0000002c L_shift
00000000 l    df *ABS*	00000000 locale.c
00000000 l    df *ABS*	00000000 localeconv.c
00000000 l    df *ABS*	00000000 makebuf.c
00000000 l    df *ABS*	00000000 malloc.c
00000000 l    df *ABS*	00000000 mbtowc_r.c
00000000 l    df *ABS*	00000000 memchr.c
00000000 l    df *ABS*	00000000 memcpy.c
00000000 l    df *ABS*	00000000 mprec.c
0000a710 l     O .text	0000000c p05.3319
00000000 l    df *ABS*	00000000 nano-mallocr.c
00000000 l    df *ABS*	00000000 nano-mallocr.c
00000000 l    df *ABS*	00000000 nano-mallocr.c
00000000 l    df *ABS*	00000000 nano-vfprintf.c
00000000 l    df *ABS*	00000000 nano-vfprintf.c
00006a5e l     F .text	0000002a __sfputc_r
00000000 l    df *ABS*	00000000 sbrkr.c
00000000 l    df *ABS*	00000000 stdio.c
00000000 l    df *ABS*	00000000 strncmp.c
00000000 l    df *ABS*	00000000 wctomb_r.c
00000000 l    df *ABS*	00000000 writer.c
00000000 l    df *ABS*	00000000 closer.c
00000000 l    df *ABS*	00000000 fstatr.c
00000000 l    df *ABS*	00000000 isattyr.c
00000000 l    df *ABS*	00000000 lseekr.c
00000000 l    df *ABS*	00000000 memmove.c
00000000 l    df *ABS*	00000000 mlock.c
00000000 l    df *ABS*	00000000 nano-mallocr.c
00000000 l    df *ABS*	00000000 readr.c
00000000 l    df *ABS*	00000000 nano-mallocr.c
00000000 l    df *ABS*	00000000 adddf3.c
00000000 l    df *ABS*	00000000 divdf3.c
00000000 l    df *ABS*	00000000 eqdf2.c
00000000 l    df *ABS*	00000000 gedf2.c
00000000 l    df *ABS*	00000000 ledf2.c
00000000 l    df *ABS*	00000000 muldf3.c
00000000 l    df *ABS*	00000000 subdf3.c
00000000 l    df *ABS*	00000000 unorddf2.c
00000000 l    df *ABS*	00000000 fixdfsi.c
00000000 l    df *ABS*	00000000 fixunsdfsi.c
00000000 l    df *ABS*	00000000 floatsidf.c
00000000 l    df *ABS*	00000000 floatunsidf.c
00000000 l    df *ABS*	00000000 extenddftf2.c
00000000 l    df *ABS*	00000000 truncdfsf2.c
00000000 l    df *ABS*	00000000 trunctfdf2.c
00000000 l    df *ABS*	00000000 close.c
00000000 l    df *ABS*	00000000 fstat.c
00000000 l    df *ABS*	00000000 isatty.c
00000000 l    df *ABS*	00000000 lseek.c
00000000 l    df *ABS*	00000000 read.c
00000000 l    df *ABS*	00000000 u8g2_fonts.c
00000000 l    df *ABS*	00000000 libgcc2.c
00000000 l    df *ABS*	00000000 ctype_.c
00000000 l    df *ABS*	00000000 impure.c
20000010 l     O .data	00000060 impure_data
00000000 l    df *ABS*	00000000 reent.c
00001130 g     F .text	00000022 u8x8_DrawTile
00001310 g     F .text	0000028c main
00006d6c g     F .text	0000002a _sbrk_r
00006e9c g     F .text	0000002e _write_r
000010b6 g     F .text	0000000c u8x8_d_helper_display_setup_memory
00001852  w      .text	00000000 USBHSWakeup_IRQHandler
000017e6  w      .text	00000000 DMA1_Channel4_IRQHandler
0000701e g     F .text	0000002e _read_r
000061a0 g     F .text	000000f2 __mdiff
00004258 g     F .text	00000c20 _dtoa_r
000017d8  w      .text	00000000 EXTI1_IRQHandler
20000720 g     O .bss	00000004 errno
0000616e g     F .text	00000032 __mcmp
000067e0 g     F .text	0000027e _svfprintf_r
00001878  w      .text	00000000 DMA2_Channel11_IRQHandler
000064d4 g     F .text	00000036 __copybits
00006ef4 g     F .text	0000002c _fstat_r
00001868  w      .text	00000000 TIM10_UP_IRQHandler
00000ce8 g     F .text	0000001e u8g2_update_page_win_r0
20000724 g       .bss	00000000 _ebss
00001832  w      .text	00000000 UART4_IRQHandler
00001826  w      .text	00000000 TIM8_CC_IRQHandler
0000599a g     F .text	00000018 _localeconv_r
0000a5b0 g     O .text	00000020 __sf_fake_stderr
00001844  w      .text	00000000 ETH_IRQHandler
00001812  w      .text	00000000 SPI2_IRQHandler
000051e4 g     F .text	0000006c _fwalk_reent
000067e0 g     F .text	0000027e _svfiprintf_r
000017f8  w      .text	00000000 EXTI9_5_IRQHandler
00007dae g     F .text	000000ae .hidden __gtdf2
00000c74 g     F .text	00000002 u8g2_update_dimension_r0
000062d8 g     F .text	000000b4 __b2d
00001a8a g     F .text	0000011a I2C_Init
000017c6  w      .text	00000000 SysTick_Handler
00007e5c g     F .text	000000b6 .hidden __ltdf2
00001824  w      .text	00000000 TIM8_TRG_COM_IRQHandler
00001810  w      .text	00000000 SPI1_IRQHandler
000017cc  w      .text	00000000 PVD_IRQHandler
0000182e  w      .text	00000000 TIM5_IRQHandler
0000228e  w    F .text	000004c0 _printf_float
00003f46 g     F .text	000000c6 __swbuf_r
20000200 g     O .data	00000004 _impure_ptr
000030b6 g     F .text	00000046 siprintf
20000234 g     O .bss	00000004 __malloc_sbrk_start
00001c80 g     F .text	0000010e RCC_GetClocksFreq
00000c76 g     F .text	00000002 u8g2_draw_l90_r0
00000200 g     F .text	000000a8 memset
00007dae g     F .text	000000ae .hidden __gedf2
20007800 g       .stack	00000000 _heap_end
0000a5f0 g     O .text	00000020 __sf_fake_stdout
0000285a g     F .text	000002aa _printf_i
00001ff2 g     F .text	000000ac .hidden __extendsfdf2
00009226 g     F .text	0000000c _isatty
00005994 g     F .text	00000006 __localeconv_l
00005aae g     F .text	0000000c malloc
000060a0 g     F .text	000000ce __lshift
0000181e  w      .text	00000000 USBWakeUp_IRQHandler
00001860  w      .text	00000000 TIM9_UP_IRQHandler
000016c2 g     F .text	000000fa SystemInit
00000b18 g     F .text	00000042 u8g2_IsIntersection
00006f78 g     F .text	0000004a memmove
00006e50 g     F .text	0000002c strncmp
0000185e  w      .text	00000000 TIM9_BRK_IRQHandler
00001c34 g     F .text	0000001a I2C_CheckEvent
000017ca  w      .text	00000000 WWDG_IRQHandler
000017ee  w      .text	00000000 ADC1_2_IRQHandler
000017e8  w      .text	00000000 DMA1_Channel5_IRQHandler
00000574 g     F .text	000000dc u8g2_font_decode_len
00001842  w      .text	00000000 DMA2_Channel5_IRQHandler
00000b5a g     F .text	000000a8 u8g2_ll_hvline_vertical_top_lsb
0000118e g     F .text	0000002c u8x8_SetupDefaults
0000923e g     F .text	0000000c _read
00005a0c g     F .text	000000a2 __smakebuf_r
000017c4  w      .text	00000000 Break_Point_Handler
00005c50 g     F .text	00000044 _Bfree
00001ea2 g     F .text	0000001c USART_Cmd
000003fe g     F .text	000000bc u8g2_read_font_info
0000661e g     F .text	000000d4 _malloc_r
00008ce2 g     F .text	000001a4 .hidden __extenddftf2
000017d4  w      .text	00000000 RCC_IRQHandler
0000180a  w      .text	00000000 I2C1_ER_IRQHandler
0000921a g     F .text	0000000c _fstat
00000650 g     F .text	0000016a u8g2_font_decode_glyph
000010c2 g     F .text	0000006e u8x8_d_helper_display_init
0000a620 g     O .text	00000028 __mprec_bigtens
00006fc6 g     F .text	00000058 _realloc_r
00001bde g     F .text	0000001e I2C_GenerateSTOP
0000209e g     F .text	00000076 .hidden __clzsi2
00005aba g     F .text	0000003a __ascii_mbtowc
2000065c g     O .bss	0000000a pow_buffer
000017d0  w      .text	00000000 RTC_IRQHandler
000017ea  w      .text	00000000 DMA1_Channel6_IRQHandler
00006292 g     F .text	00000046 __ulp
0000125a g     F .text	000000b6 IIC_Init
00008c7a g     F .text	00000068 .hidden __floatunsidf
0000116a g     F .text	0000000c u8x8_SetPowerSave
00000afe g     F .text	0000001a u8g2_is_intersection_decision_tree
00000d8a g     F .text	00000016 u8x8_byte_SendByte
00001856  w      .text	00000000 DVP_IRQHandler
200009e0 g       .data	00000000 __global_pointer$
0000400c g     F .text	00000112 __swsetup_r
000017fc  w      .text	00000000 TIM1_UP_IRQHandler
00009232 g     F .text	0000000c _lseek
00001862  w      .text	00000000 TIM9_TRG_COM_IRQHandler
00005c94 g     F .text	00000098 __multadd
20000668 g     O .bss	00000088 u8g2
00003f32 g     F .text	00000014 _strtol_r
00006eca g     F .text	0000002a _close_r
000017e2  w      .text	00000000 DMA1_Channel2_IRQHandler
0000180c  w      .text	00000000 I2C2_EV_IRQHandler
00005d2c g     F .text	000000a6 __s2b
0000582e g     F .text	00000160 __hexnan
00000e18 g     F .text	0000000c u8x8_cad_EndTransfer
00001804  w      .text	00000000 TIM3_IRQHandler
000017ec  w      .text	00000000 DMA1_Channel7_IRQHandler
20000224 g     O .data	00000004 _global_impure_ptr
200006f0 g     O .bss	0000000a vol_buffer
00001d8e g     F .text	0000001e RCC_APB2PeriphClockCmd
00006576 g     F .text	000000a8 _free_r
200001f4 g     O .data	00000004 SystemCoreClock
00000358 g     F .text	0000004a u8g2_Setup_ssd1306_i2c_128x64_noname_f
00000800 g       *ABS*	00000000 __stack_size
00002114 g     F .text	000000ee __cvt
000017f2  w      .text	00000000 USB_LP_CAN1_RX0_IRQHandler
20000000 g       .dalign	00000000 _data_vma
00001816  w      .text	00000000 USART2_IRQHandler
200001ec g     O .data	00000004 unit
00001c4e g     F .text	00000032 I2C_GetFlagStatus
0000274e g     F .text	0000010c _printf_common
0000034c g     F .text	0000000c u8g2_m_16_8_f
000059b2 g     F .text	0000005a __swhatbuf_r
00001874  w      .text	00000000 DMA2_Channel9_IRQHandler
200001e4 g     O .data	00000004 pf
00001866  w      .text	00000000 TIM10_BRK_IRQHandler
0000a730 g     O .text	00000101 _ctype_
00004e78 g     F .text	0000013e __sflush_r
00002f7a g     F .text	00000042 printf
000011ea g     F .text	00000002 HardFault_Handler
00001074 g     F .text	00000042 u8x8_d_ssd1306_128x64_noname
200006fc g     O .bss	0000000a unit_buffer
000017c0  w      .text	00000000 Ecall_M_Mode_Handler
00000a0c g     F .text	00000010 u8g2_draw_hv_line_2dir
00001efa g     F .text	0000002e Delay_Ms
00001dac g     F .text	0000001e RCC_APB1PeriphClockCmd
000050d8 g     F .text	0000006c __sinit
00000000 g       .init	00000000 _start
0000a648 g     O .text	000000c8 __mprec_tens
0000315c g     F .text	00000c7c _strtod_l
00006acc g     F .text	000002a0 _vfprintf_r
00001176 g     F .text	0000000c u8x8_RefreshDisplay
00001820  w      .text	00000000 TIM8_BRK_IRQHandler
00001848  w      .text	00000000 CAN2_TX_IRQHandler
200001e8 g     O .data	00000004 pw
000017d2  w      .text	00000000 FLASH_IRQHandler
00001ec8 g     F .text	0000000c USART_GetFlagStatus
00006a88 g     F .text	00000044 __sfputs_r
0000182c  w      .text	00000000 SDIO_IRQHandler
0000181a  w      .text	00000000 EXTI15_10_IRQHandler
00001872  w      .text	00000000 DMA2_Channel8_IRQHandler
000017fa  w      .text	00000000 TIM1_BRK_IRQHandler
00001bc0 g     F .text	0000001e I2C_GenerateSTART
00002b04  w    F .text	00000476 _scanf_float
00001814  w      .text	00000000 USART1_IRQHandler
000017ce  w      .text	00000000 TAMPER_IRQHandler
00001802  w      .text	00000000 TIM2_IRQHandler
0000115e g     F .text	0000000c u8x8_InitDisplay
00000988 g     F .text	00000056 u8g2_UpdateRefHeight
0000704c g     F .text	00000014 _malloc_usable_size_r
00001152 g     F .text	0000000c u8x8_SetupMemory
0000097c g     F .text	0000000c u8g2_DrawStr
0000182a  w      .text	00000000 FSMC_IRQHandler
0000638c g     F .text	000000d4 __d2b
200001e0 g     O .data	00000004 cur
000017f6  w      .text	00000000 CAN1_SCE_IRQHandler
00008bac g     F .text	0000005c .hidden __fixunsdfsi
00003dd8 g     F .text	00000016 _strtod_r
00005e82 g     F .text	0000001c __i2b
0000920e g     F .text	0000000c _close
00001904 g     F .text	000000c2 GPIO_Init
00000eb4 g     F .text	000000e2 u8x8_cad_ssd13xx_fast_i2c
00006dc6 g     F .text	0000004e __swrite
20000708 g     O .bss	0000000a pf_buffer
00001ba4 g     F .text	0000001c I2C_Cmd
00005bc4 g     F .text	0000008c _Balloc
00001ebe g     F .text	0000000a USART_SendData
00001dca g     F .text	000000d8 USART_Init
00005086 g     F .text	0000000a _cleanup_r
0000183e  w      .text	00000000 DMA2_Channel3_IRQHandler
20008000 g       .stack	00000000 _eusrstack
000030aa g     F .text	0000000c nanf
00006e14 g     F .text	00000036 __sseek
00008b08 g     F .text	0000003c .hidden __unorddf2
20000228 g       .bss	00000000 _sbss
00001f80 g     F .text	0000004c _write
000011ec g     F .text	0000006e u8g2_gpio_and_delay_stm32
00001870  w      .text	00000000 DMA2_Channel7_IRQHandler
00001822  w      .text	00000000 TIM8_UP_IRQHandler
000017c8  w      .text	00000000 SW_Handler
00007f12 g     F .text	000004b8 .hidden __muldf3
0000924c g     O .text	00000fda u8g2_font_fub14_tf
0000186e  w      .text	00000000 DMA2_Channel6_IRQHandler
00000d62 g     F .text	00000016 u8x8_ascii_next
0000650a g     F .text	00000046 __any_on
000017c2  w      .text	00000000 Ecall_U_Mode_Handler
00000dac g     F .text	0000000c u8x8_byte_EndTransfer
0000a228 g     O .text	0000000c u8g2_cb_r0
00000000 g       .init	00000000 _sinit
00006acc g     F .text	000002a0 _vfiprintf_r
00001828  w      .text	00000000 RNG_IRQHandler
00001846  w      .text	00000000 ETH_WKUP_IRQHandler
000009ea g     F .text	00000022 u8g2_SetFont
00005306 g     F .text	000004cc __gethex
00002fbc g     F .text	000000e4 _puts_r
0000085c g     F .text	00000080 u8g2_DrawGlyph
000017da  w      .text	00000000 EXTI2_IRQHandler
00006e7c g     F .text	00000020 __ascii_wctomb
000017e4  w      .text	00000000 DMA1_Channel3_IRQHandler
0000a368 g     O .text	00000100 .hidden __clz_tab
00001850  w      .text	00000000 OTG_FS_IRQHandler
00001182 g     F .text	00000008 u8x8_gpio_call
00001834  w      .text	00000000 UART5_IRQHandler
00000a1c g     F .text	000000e2 u8g2_DrawHVLine
00002202 g     F .text	0000008c __exponent
00000da0 g     F .text	0000000c u8x8_byte_StartTransfer
0000185c  w      .text	00000000 UART8_IRQHandler
0000186c  w      .text	00000000 TIM10_CC_IRQHandler
0000a5d0 g     O .text	00000020 __sf_fake_stdin
00000e0c g     F .text	0000000c u8x8_cad_StartTransfer
000009de g     F .text	0000000c u8g2_SetFontPosBaseline
00001876  w      .text	00000000 DMA2_Channel10_IRQHandler
000057fe g     F .text	00000030 __match
0000187a  w      .text	00000000 handle_reset
00001806  w      .text	00000000 TIM4_IRQHandler
00001818  w      .text	00000000 USART3_IRQHandler
00001bfc g     F .text	0000001e I2C_AcknowledgeConfig
00000df4 g     F .text	0000000c u8x8_cad_SendArg
00006e4a g     F .text	00000006 __sclose
000019c6 g     F .text	000000c4 GPIO_PinRemapConfig
00000d78 g     F .text	00000006 u8x8_utf8_init
0000185a  w      .text	00000000 UART7_IRQHandler
000004ba g     F .text	00000054 u8g2_font_decode_get_unsigned_bits
20000070 g     O .data	0000016c __global_locale
000011e6 g     F .text	00000004 NMI_Handler
000052c6 g     F .text	00000040 __hexdig_fun
000007ba g     F .text	000000a2 u8g2_font_get_glyph_data
00006550 g     F .text	00000026 _calloc_r
20000714 g     O .bss	0000000a cur_buffer
0000a8b4 g       .dlalign	00000000 _data_lma
00005e9e g     F .text	00000144 __multiply
00005fe2 g     F .text	000000be __pow5mult
000017dc  w      .text	00000000 EXTI3_IRQHandler
00001f28 g     F .text	00000058 USART_Printf_Init
0000180e  w      .text	00000000 I2C2_ER_IRQHandler
00006fc2 g     F .text	00000002 __malloc_lock
00000de8 g     F .text	0000000c u8x8_cad_SendCmd
0000184a  w      .text	00000000 CAN2_RX0_IRQHandler
000017fe  w      .text	00000000 TIM1_TRG_COM_IRQHandler
000011ba g     F .text	0000002c u8x8_Setup
00008ff0 g     F .text	0000021e .hidden __trunctfdf2
0000598e g     F .text	00000006 __locale_ctype_ptr_l
200001f0 g     O .data	00000004 vol
00001864  w      .text	00000000 TIM9_CC_IRQHandler
00005e18 g     F .text	0000006a __lo0bits
000066f2 g     F .text	000000ee __ssputs_r
000083ca g     F .text	0000073e .hidden __subdf3
00007e5c g     F .text	000000b6 .hidden __ledf2
00000554 g     F .text	00000020 u8g2_font_decode_get_signed_bits
00007060 g     F .text	00000730 .hidden __adddf3
00004fb6 g     F .text	00000066 _fflush_r
00007790 g     F .text	000005b4 .hidden __divdf3
00005af4 g     F .text	0000001a memchr
00006d96 g     F .text	00000030 __sread
00001836  w      .text	00000000 TIM6_IRQHandler
20000228 g       .data	00000000 _edata
0000184c  w      .text	00000000 CAN2_RX1_IRQHandler
0000181c  w      .text	00000000 RTCAlarm_IRQHandler
000030a0 g     F .text	0000000a puts
00001808  w      .text	00000000 I2C1_EV_IRQHandler
00001800  w      .text	00000000 TIM1_CC_IRQHandler
00001fcc g     F .text	00000026 _sbrk
00006f4a g     F .text	0000002e _lseek_r
00000d7e g     F .text	0000000c u8x8_byte_SendBytes
00000038 g       .init	00000000 _einit
00001830  w      .text	00000000 SPI3_IRQHandler
000017e0  w      .text	00000000 DMA1_Channel1_IRQHandler
00008c08 g     F .text	00000072 .hidden __floatsidf
00001c20 g     F .text	00000014 I2C_Send7bitAddress
0000118a g     F .text	00000004 u8x8_dummy_cb
00001c1a g     F .text	00000006 I2C_SendData
00001838  w      .text	00000000 TIM7_IRQHandler
00005090 g     F .text	00000048 __sfmoreglue
00001840  w      .text	00000000 DMA2_Channel4_IRQHandler
000030b6 g     F .text	00000046 sprintf
00001854  w      .text	00000000 USBHS_IRQHandler
000017d6  w      .text	00000000 EXTI0_IRQHandler
20000230 g     O .bss	00000004 __malloc_free_list
0000183c  w      .text	00000000 DMA2_Channel2_IRQHandler
20000724 g       .bss	00000000 _end
00000e00 g     F .text	0000000c u8x8_cad_SendData
00000d20 g     F .text	00000042 u8g2_SetupBuffer
00005b0e g     F .text	000000b6 memcpy
00007d44 g     F .text	0000006a .hidden __nedf2
00006fc4 g     F .text	00000002 __malloc_unlock
0000183a  w      .text	00000000 DMA2_Channel1_IRQHandler
000030fc g     F .text	00000012 strlen
00005144 g     F .text	000000a0 __sfp
0000186a  w      .text	00000000 TIM10_TRG_COM_IRQHandler
000017de  w      .text	00000000 EXTI4_IRQHandler
000017f4  w      .text	00000000 CAN1_RX1_IRQHandler
000003fa g     F .text	00000004 u8g2_font_calc_vref_font
00005dd2 g     F .text	00000046 __hi0bits
00006460 g     F .text	00000074 __ratio
00008e86 g     F .text	0000016a .hidden __truncdfsf2
00000336 g     F .text	00000016 u8g2_SendBuffer
0000159c g     F .text	000000a6 I2C_Master_Transmit
00001642 g     F .text	00000080 u8x8_byte_stm32_hw_i2c
00000d06 g     F .text	0000001a u8g2_SetMaxClipWindow
0000184e  w      .text	00000000 CAN2_SCE_IRQHandler
00000320 g     F .text	00000016 u8g2_ClearBuffer
000017f0  w      .text	00000000 USB_HP_CAN1_TX_IRQHandler
00007d44 g     F .text	0000006a .hidden __eqdf2
00002f7a g     F .text	00000042 iprintf
00001858  w      .text	00000000 UART6_IRQHandler
00008b44 g     F .text	00000068 .hidden __fixdfsi
00006f20 g     F .text	0000002a _isatty_r
00000e24 g     F .text	00000090 u8x8_cad_SendSequence
00001ed4 g     F .text	00000026 Delay_Init



Disassembly of section .init:

00000000 <_sinit>:
   0:	07b0106f          	j	187a <handle_reset>
   4:	00000013          	nop
   8:	00000013          	nop
   c:	00000013          	nop
  10:	00000013          	nop
  14:	00000013          	nop
  18:	00000013          	nop
  1c:	00000013          	nop
  20:	00000013          	nop
  24:	00000013          	nop
  28:	00000013          	nop
  2c:	00000013          	nop
  30:	00000013          	nop
  34:	00100073          	ebreak

Disassembly of section .vector:

00000038 <_vector_base>:
	...
  40:	11e6                	slli	gp,gp,0x39
  42:	0000                	unimp
  44:	11ea                	slli	gp,gp,0x3a
  46:	0000                	unimp
  48:	0000                	unimp
  4a:	0000                	unimp
  4c:	17c0                	addi	s0,sp,996
	...
  56:	0000                	unimp
  58:	17c2                	slli	a5,a5,0x30
  5a:	0000                	unimp
  5c:	17c4                	addi	s1,sp,996
	...
  66:	0000                	unimp
  68:	17c6                	slli	a5,a5,0x31
  6a:	0000                	unimp
  6c:	0000                	unimp
  6e:	0000                	unimp
  70:	17c8                	addi	a0,sp,996
  72:	0000                	unimp
  74:	0000                	unimp
  76:	0000                	unimp
  78:	17ca                	slli	a5,a5,0x32
  7a:	0000                	unimp
  7c:	17cc                	addi	a1,sp,996
  7e:	0000                	unimp
  80:	17ce                	slli	a5,a5,0x33
  82:	0000                	unimp
  84:	17d0                	addi	a2,sp,996
  86:	0000                	unimp
  88:	17d2                	slli	a5,a5,0x34
  8a:	0000                	unimp
  8c:	17d4                	addi	a3,sp,996
  8e:	0000                	unimp
  90:	17d6                	slli	a5,a5,0x35
  92:	0000                	unimp
  94:	17d8                	addi	a4,sp,996
  96:	0000                	unimp
  98:	17da                	slli	a5,a5,0x36
  9a:	0000                	unimp
  9c:	17dc                	addi	a5,sp,996
  9e:	0000                	unimp
  a0:	17de                	slli	a5,a5,0x37
  a2:	0000                	unimp
  a4:	17e0                	addi	s0,sp,1004
  a6:	0000                	unimp
  a8:	17e2                	slli	a5,a5,0x38
  aa:	0000                	unimp
  ac:	17e4                	addi	s1,sp,1004
  ae:	0000                	unimp
  b0:	17e6                	slli	a5,a5,0x39
  b2:	0000                	unimp
  b4:	17e8                	addi	a0,sp,1004
  b6:	0000                	unimp
  b8:	17ea                	slli	a5,a5,0x3a
  ba:	0000                	unimp
  bc:	17ec                	addi	a1,sp,1004
  be:	0000                	unimp
  c0:	17ee                	slli	a5,a5,0x3b
  c2:	0000                	unimp
  c4:	17f0                	addi	a2,sp,1004
  c6:	0000                	unimp
  c8:	17f2                	slli	a5,a5,0x3c
  ca:	0000                	unimp
  cc:	17f4                	addi	a3,sp,1004
  ce:	0000                	unimp
  d0:	17f6                	slli	a5,a5,0x3d
  d2:	0000                	unimp
  d4:	17f8                	addi	a4,sp,1004
  d6:	0000                	unimp
  d8:	17fa                	slli	a5,a5,0x3e
  da:	0000                	unimp
  dc:	17fc                	addi	a5,sp,1004
  de:	0000                	unimp
  e0:	17fe                	slli	a5,a5,0x3f
  e2:	0000                	unimp
  e4:	1800                	addi	s0,sp,48
  e6:	0000                	unimp
  e8:	1802                	slli	a6,a6,0x20
  ea:	0000                	unimp
  ec:	1804                	addi	s1,sp,48
  ee:	0000                	unimp
  f0:	1806                	slli	a6,a6,0x21
  f2:	0000                	unimp
  f4:	1808                	addi	a0,sp,48
  f6:	0000                	unimp
  f8:	180a                	slli	a6,a6,0x22
  fa:	0000                	unimp
  fc:	180c                	addi	a1,sp,48
  fe:	0000                	unimp
 100:	180e                	slli	a6,a6,0x23
 102:	0000                	unimp
 104:	1810                	addi	a2,sp,48
 106:	0000                	unimp
 108:	1812                	slli	a6,a6,0x24
 10a:	0000                	unimp
 10c:	1814                	addi	a3,sp,48
 10e:	0000                	unimp
 110:	1816                	slli	a6,a6,0x25
 112:	0000                	unimp
 114:	1818                	addi	a4,sp,48
 116:	0000                	unimp
 118:	181a                	slli	a6,a6,0x26
 11a:	0000                	unimp
 11c:	181c                	addi	a5,sp,48
 11e:	0000                	unimp
 120:	181e                	slli	a6,a6,0x27
 122:	0000                	unimp
 124:	1820                	addi	s0,sp,56
 126:	0000                	unimp
 128:	1822                	slli	a6,a6,0x28
 12a:	0000                	unimp
 12c:	1824                	addi	s1,sp,56
 12e:	0000                	unimp
 130:	1826                	slli	a6,a6,0x29
 132:	0000                	unimp
 134:	1828                	addi	a0,sp,56
 136:	0000                	unimp
 138:	182a                	slli	a6,a6,0x2a
 13a:	0000                	unimp
 13c:	182c                	addi	a1,sp,56
 13e:	0000                	unimp
 140:	182e                	slli	a6,a6,0x2b
 142:	0000                	unimp
 144:	1830                	addi	a2,sp,56
 146:	0000                	unimp
 148:	1832                	slli	a6,a6,0x2c
 14a:	0000                	unimp
 14c:	1834                	addi	a3,sp,56
 14e:	0000                	unimp
 150:	1836                	slli	a6,a6,0x2d
 152:	0000                	unimp
 154:	1838                	addi	a4,sp,56
 156:	0000                	unimp
 158:	183a                	slli	a6,a6,0x2e
 15a:	0000                	unimp
 15c:	183c                	addi	a5,sp,56
 15e:	0000                	unimp
 160:	183e                	slli	a6,a6,0x2f
 162:	0000                	unimp
 164:	1840                	addi	s0,sp,52
 166:	0000                	unimp
 168:	1842                	slli	a6,a6,0x30
 16a:	0000                	unimp
 16c:	1844                	addi	s1,sp,52
 16e:	0000                	unimp
 170:	1846                	slli	a6,a6,0x31
 172:	0000                	unimp
 174:	1848                	addi	a0,sp,52
 176:	0000                	unimp
 178:	184a                	slli	a6,a6,0x32
 17a:	0000                	unimp
 17c:	184c                	addi	a1,sp,52
 17e:	0000                	unimp
 180:	184e                	slli	a6,a6,0x33
 182:	0000                	unimp
 184:	1850                	addi	a2,sp,52
 186:	0000                	unimp
 188:	1852                	slli	a6,a6,0x34
 18a:	0000                	unimp
 18c:	1854                	addi	a3,sp,52
 18e:	0000                	unimp
 190:	1856                	slli	a6,a6,0x35
 192:	0000                	unimp
 194:	1858                	addi	a4,sp,52
 196:	0000                	unimp
 198:	185a                	slli	a6,a6,0x36
 19a:	0000                	unimp
 19c:	185c                	addi	a5,sp,52
 19e:	0000                	unimp
 1a0:	185e                	slli	a6,a6,0x37
 1a2:	0000                	unimp
 1a4:	1860                	addi	s0,sp,60
 1a6:	0000                	unimp
 1a8:	1862                	slli	a6,a6,0x38
 1aa:	0000                	unimp
 1ac:	1864                	addi	s1,sp,60
 1ae:	0000                	unimp
 1b0:	1866                	slli	a6,a6,0x39
 1b2:	0000                	unimp
 1b4:	1868                	addi	a0,sp,60
 1b6:	0000                	unimp
 1b8:	186a                	slli	a6,a6,0x3a
 1ba:	0000                	unimp
 1bc:	186c                	addi	a1,sp,60
 1be:	0000                	unimp
 1c0:	186e                	slli	a6,a6,0x3b
 1c2:	0000                	unimp
 1c4:	1870                	addi	a2,sp,60
 1c6:	0000                	unimp
 1c8:	1872                	slli	a6,a6,0x3c
 1ca:	0000                	unimp
 1cc:	1874                	addi	a3,sp,60
 1ce:	0000                	unimp
 1d0:	1876                	slli	a6,a6,0x3d
 1d2:	0000                	unimp
 1d4:	1878                	addi	a4,sp,60
	...

Disassembly of section .text:

00000200 <memset>:
     200:	433d                	li	t1,15
     202:	872a                	mv	a4,a0
     204:	02c37363          	bgeu	t1,a2,22a <memset+0x2a>
     208:	00f77793          	andi	a5,a4,15
     20c:	efbd                	bnez	a5,28a <memset+0x8a>
     20e:	e5ad                	bnez	a1,278 <memset+0x78>
     210:	ff067693          	andi	a3,a2,-16
     214:	8a3d                	andi	a2,a2,15
     216:	96ba                	add	a3,a3,a4
     218:	c30c                	sw	a1,0(a4)
     21a:	c34c                	sw	a1,4(a4)
     21c:	c70c                	sw	a1,8(a4)
     21e:	c74c                	sw	a1,12(a4)
     220:	0741                	addi	a4,a4,16
     222:	fed76be3          	bltu	a4,a3,218 <memset+0x18>
     226:	e211                	bnez	a2,22a <memset+0x2a>
     228:	8082                	ret
     22a:	40c306b3          	sub	a3,t1,a2
     22e:	068a                	slli	a3,a3,0x2
     230:	00000297          	auipc	t0,0x0
     234:	9696                	add	a3,a3,t0
     236:	00a68067          	jr	10(a3)
     23a:	00b70723          	sb	a1,14(a4)
     23e:	00b706a3          	sb	a1,13(a4)
     242:	00b70623          	sb	a1,12(a4)
     246:	00b705a3          	sb	a1,11(a4)
     24a:	00b70523          	sb	a1,10(a4)
     24e:	00b704a3          	sb	a1,9(a4)
     252:	00b70423          	sb	a1,8(a4)
     256:	00b703a3          	sb	a1,7(a4)
     25a:	00b70323          	sb	a1,6(a4)
     25e:	00b702a3          	sb	a1,5(a4)
     262:	00b70223          	sb	a1,4(a4)
     266:	00b701a3          	sb	a1,3(a4)
     26a:	00b70123          	sb	a1,2(a4)
     26e:	00b700a3          	sb	a1,1(a4)
     272:	00b70023          	sb	a1,0(a4)
     276:	8082                	ret
     278:	0ff5f593          	andi	a1,a1,255
     27c:	00859693          	slli	a3,a1,0x8
     280:	8dd5                	or	a1,a1,a3
     282:	01059693          	slli	a3,a1,0x10
     286:	8dd5                	or	a1,a1,a3
     288:	b761                	j	210 <memset+0x10>
     28a:	00279693          	slli	a3,a5,0x2
     28e:	00000297          	auipc	t0,0x0
     292:	9696                	add	a3,a3,t0
     294:	8286                	mv	t0,ra
     296:	fa8680e7          	jalr	-88(a3)
     29a:	8096                	mv	ra,t0
     29c:	17c1                	addi	a5,a5,-16
     29e:	8f1d                	sub	a4,a4,a5
     2a0:	963e                	add	a2,a2,a5
     2a2:	f8c374e3          	bgeu	t1,a2,22a <memset+0x2a>
     2a6:	b7a5                	j	20e <memset+0xe>

000002a8 <u8g2_send_buffer>:
     2a8:	411c                	lw	a5,0(a0)
     2aa:	1101                	addi	sp,sp,-32
     2ac:	ca26                	sw	s1,20(sp)
     2ae:	c84a                	sw	s2,16(sp)
     2b0:	ce06                	sw	ra,28(sp)
     2b2:	cc22                	sw	s0,24(sp)
     2b4:	c64e                	sw	s3,12(sp)
     2b6:	c452                	sw	s4,8(sp)
     2b8:	c256                	sw	s5,4(sp)
     2ba:	03c54a83          	lbu	s5,60(a0)
     2be:	03d54983          	lbu	s3,61(a0)
     2c2:	0117ca03          	lbu	s4,17(a5)
     2c6:	84aa                	mv	s1,a0
     2c8:	4901                	li	s2,0
     2ca:	409c                	lw	a5,0(s1)
     2cc:	5c98                	lw	a4,56(s1)
     2ce:	0ff97413          	andi	s0,s2,255
     2d2:	0107c683          	lbu	a3,16(a5)
     2d6:	00898633          	add	a2,s3,s0
     2da:	0405                	addi	s0,s0,1
     2dc:	02d907b3          	mul	a5,s2,a3
     2e0:	0ff67613          	andi	a2,a2,255
     2e4:	4581                	li	a1,0
     2e6:	8526                	mv	a0,s1
     2e8:	0ff47413          	andi	s0,s0,255
     2ec:	07c2                	slli	a5,a5,0x10
     2ee:	83c1                	srli	a5,a5,0x10
     2f0:	078e                	slli	a5,a5,0x3
     2f2:	07c2                	slli	a5,a5,0x10
     2f4:	83c1                	srli	a5,a5,0x10
     2f6:	973e                	add	a4,a4,a5
     2f8:	639000ef          	jal	ra,1130 <u8x8_DrawTile>
     2fc:	01547963          	bgeu	s0,s5,30e <u8g2_send_buffer+0x66>
     300:	0905                	addi	s2,s2,1
     302:	012987b3          	add	a5,s3,s2
     306:	0ff7f793          	andi	a5,a5,255
     30a:	fd47e0e3          	bltu	a5,s4,2ca <u8g2_send_buffer+0x22>
     30e:	40f2                	lw	ra,28(sp)
     310:	4462                	lw	s0,24(sp)
     312:	44d2                	lw	s1,20(sp)
     314:	4942                	lw	s2,16(sp)
     316:	49b2                	lw	s3,12(sp)
     318:	4a22                	lw	s4,8(sp)
     31a:	4a92                	lw	s5,4(sp)
     31c:	6105                	addi	sp,sp,32
     31e:	8082                	ret

00000320 <u8g2_ClearBuffer>:
     320:	411c                	lw	a5,0(a0)
     322:	4581                	li	a1,0
     324:	0107c603          	lbu	a2,16(a5)
     328:	03c54783          	lbu	a5,60(a0)
     32c:	5d08                	lw	a0,56(a0)
     32e:	02f60633          	mul	a2,a2,a5
     332:	060e                	slli	a2,a2,0x3
     334:	b5f1                	j	200 <memset>

00000336 <u8g2_SendBuffer>:
     336:	1141                	addi	sp,sp,-16
     338:	c422                	sw	s0,8(sp)
     33a:	c606                	sw	ra,12(sp)
     33c:	842a                	mv	s0,a0
     33e:	37ad                	jal	2a8 <u8g2_send_buffer>
     340:	8522                	mv	a0,s0
     342:	4422                	lw	s0,8(sp)
     344:	40b2                	lw	ra,12(sp)
     346:	0141                	addi	sp,sp,16
     348:	62f0006f          	j	1176 <u8x8_RefreshDisplay>

0000034c <u8g2_m_16_8_f>:
     34c:	47a1                	li	a5,8
     34e:	00f50023          	sb	a5,0(a0)
     352:	85818513          	addi	a0,gp,-1960 # 20000238 <buf.7910>
     356:	8082                	ret

00000358 <u8g2_Setup_ssd1306_i2c_128x64_noname_f>:
     358:	1101                	addi	sp,sp,-32
     35a:	ca26                	sw	s1,20(sp)
     35c:	8736                	mv	a4,a3
     35e:	84ae                	mv	s1,a1
     360:	86b2                	mv	a3,a2
     362:	000015b7          	lui	a1,0x1
     366:	00001637          	lui	a2,0x1
     36a:	eb460613          	addi	a2,a2,-332 # eb4 <u8x8_cad_ssd13xx_fast_i2c>
     36e:	07458593          	addi	a1,a1,116 # 1074 <u8x8_d_ssd1306_128x64_noname>
     372:	ce06                	sw	ra,28(sp)
     374:	cc22                	sw	s0,24(sp)
     376:	842a                	mv	s0,a0
     378:	643000ef          	jal	ra,11ba <u8x8_Setup>
     37c:	00f10513          	addi	a0,sp,15
     380:	37f1                	jal	34c <u8g2_m_16_8_f>
     382:	00f14603          	lbu	a2,15(sp)
     386:	000016b7          	lui	a3,0x1
     38a:	8726                	mv	a4,s1
     38c:	85aa                	mv	a1,a0
     38e:	b5a68693          	addi	a3,a3,-1190 # b5a <u8g2_ll_hvline_vertical_top_lsb>
     392:	8522                	mv	a0,s0
     394:	18d000ef          	jal	ra,d20 <u8g2_SetupBuffer>
     398:	40f2                	lw	ra,28(sp)
     39a:	4462                	lw	s0,24(sp)
     39c:	44d2                	lw	s1,20(sp)
     39e:	6105                	addi	sp,sp,32
     3a0:	8082                	ret

000003a2 <u8g2_font_get_word>:
     3a2:	95aa                	add	a1,a1,a0
     3a4:	0005c783          	lbu	a5,0(a1)
     3a8:	0015c503          	lbu	a0,1(a1)
     3ac:	07a2                	slli	a5,a5,0x8
     3ae:	953e                	add	a0,a0,a5
     3b0:	0542                	slli	a0,a0,0x10
     3b2:	8141                	srli	a0,a0,0x10
     3b4:	8082                	ret

000003b6 <u8g2_add_vector_y>:
     3b6:	4785                	li	a5,1
     3b8:	00f68c63          	beq	a3,a5,3d0 <u8g2_add_vector_y+0x1a>
     3bc:	c691                	beqz	a3,3c8 <u8g2_add_vector_y+0x12>
     3be:	4789                	li	a5,2
     3c0:	00f68a63          	beq	a3,a5,3d4 <u8g2_add_vector_y+0x1e>
     3c4:	8d0d                	sub	a0,a0,a1
     3c6:	a011                	j	3ca <u8g2_add_vector_y+0x14>
     3c8:	9532                	add	a0,a0,a2
     3ca:	0ff57513          	andi	a0,a0,255
     3ce:	8082                	ret
     3d0:	952e                	add	a0,a0,a1
     3d2:	bfe5                	j	3ca <u8g2_add_vector_y+0x14>
     3d4:	8d11                	sub	a0,a0,a2
     3d6:	bfd5                	j	3ca <u8g2_add_vector_y+0x14>

000003d8 <u8g2_add_vector_x>:
     3d8:	4785                	li	a5,1
     3da:	00f68c63          	beq	a3,a5,3f2 <u8g2_add_vector_x+0x1a>
     3de:	c691                	beqz	a3,3ea <u8g2_add_vector_x+0x12>
     3e0:	4789                	li	a5,2
     3e2:	00f68a63          	beq	a3,a5,3f6 <u8g2_add_vector_x+0x1e>
     3e6:	9532                	add	a0,a0,a2
     3e8:	a011                	j	3ec <u8g2_add_vector_x+0x14>
     3ea:	952e                	add	a0,a0,a1
     3ec:	0ff57513          	andi	a0,a0,255
     3f0:	8082                	ret
     3f2:	8d11                	sub	a0,a0,a2
     3f4:	bfe5                	j	3ec <u8g2_add_vector_x+0x14>
     3f6:	8d0d                	sub	a0,a0,a1
     3f8:	bfd5                	j	3ec <u8g2_add_vector_x+0x14>

000003fa <u8g2_font_calc_vref_font>:
     3fa:	4501                	li	a0,0
     3fc:	8082                	ret

000003fe <u8g2_read_font_info>:
     3fe:	1141                	addi	sp,sp,-16
     400:	c606                	sw	ra,12(sp)
     402:	c422                	sw	s0,8(sp)
     404:	c226                	sw	s1,4(sp)
     406:	0005c783          	lbu	a5,0(a1)
     40a:	84ae                	mv	s1,a1
     40c:	842a                	mv	s0,a0
     40e:	00f50023          	sb	a5,0(a0)
     412:	0015c783          	lbu	a5,1(a1)
     416:	00f500a3          	sb	a5,1(a0)
     41a:	0025c783          	lbu	a5,2(a1)
     41e:	00f50123          	sb	a5,2(a0)
     422:	0035c783          	lbu	a5,3(a1)
     426:	00f501a3          	sb	a5,3(a0)
     42a:	0045c783          	lbu	a5,4(a1)
     42e:	00f50223          	sb	a5,4(a0)
     432:	0055c783          	lbu	a5,5(a1)
     436:	00f502a3          	sb	a5,5(a0)
     43a:	0065c783          	lbu	a5,6(a1)
     43e:	00f50323          	sb	a5,6(a0)
     442:	0075c783          	lbu	a5,7(a1)
     446:	00f503a3          	sb	a5,7(a0)
     44a:	0085c783          	lbu	a5,8(a1)
     44e:	00f50423          	sb	a5,8(a0)
     452:	0095c783          	lbu	a5,9(a1)
     456:	00f504a3          	sb	a5,9(a0)
     45a:	00a5c783          	lbu	a5,10(a1)
     45e:	00f50523          	sb	a5,10(a0)
     462:	00b5c783          	lbu	a5,11(a1)
     466:	00f505a3          	sb	a5,11(a0)
     46a:	00c5c783          	lbu	a5,12(a1)
     46e:	00f50623          	sb	a5,12(a0)
     472:	00d5c783          	lbu	a5,13(a1)
     476:	00f506a3          	sb	a5,13(a0)
     47a:	00e5c783          	lbu	a5,14(a1)
     47e:	00f50723          	sb	a5,14(a0)
     482:	00f5c783          	lbu	a5,15(a1)
     486:	00f507a3          	sb	a5,15(a0)
     48a:	0105c783          	lbu	a5,16(a1)
     48e:	45c5                	li	a1,17
     490:	00f50823          	sb	a5,16(a0)
     494:	8526                	mv	a0,s1
     496:	3731                	jal	3a2 <u8g2_font_get_word>
     498:	00a41923          	sh	a0,18(s0)
     49c:	45cd                	li	a1,19
     49e:	8526                	mv	a0,s1
     4a0:	3709                	jal	3a2 <u8g2_font_get_word>
     4a2:	00a41a23          	sh	a0,20(s0)
     4a6:	45d5                	li	a1,21
     4a8:	8526                	mv	a0,s1
     4aa:	3de5                	jal	3a2 <u8g2_font_get_word>
     4ac:	00a41b23          	sh	a0,22(s0)
     4b0:	40b2                	lw	ra,12(sp)
     4b2:	4422                	lw	s0,8(sp)
     4b4:	4492                	lw	s1,4(sp)
     4b6:	0141                	addi	sp,sp,16
     4b8:	8082                	ret

000004ba <u8g2_font_decode_get_unsigned_bits>:
     4ba:	4110                	lw	a2,0(a0)
     4bc:	00a54803          	lbu	a6,10(a0)
     4c0:	00064783          	lbu	a5,0(a2)
     4c4:	00b80733          	add	a4,a6,a1
     4c8:	0ff77713          	andi	a4,a4,255
     4cc:	4107d6b3          	sra	a3,a5,a6
     4d0:	479d                	li	a5,7
     4d2:	00e7ed63          	bltu	a5,a4,4ec <u8g2_font_decode_get_unsigned_bits+0x32>
     4d6:	0ff6f793          	andi	a5,a3,255
     4da:	00e50523          	sb	a4,10(a0)
     4de:	557d                	li	a0,-1
     4e0:	00b51533          	sll	a0,a0,a1
     4e4:	fff54513          	not	a0,a0
     4e8:	8d7d                	and	a0,a0,a5
     4ea:	8082                	ret
     4ec:	00160793          	addi	a5,a2,1
     4f0:	c11c                	sw	a5,0(a0)
     4f2:	00164783          	lbu	a5,1(a2)
     4f6:	4621                	li	a2,8
     4f8:	41060633          	sub	a2,a2,a6
     4fc:	00c797b3          	sll	a5,a5,a2
     500:	8fd5                	or	a5,a5,a3
     502:	1761                	addi	a4,a4,-8
     504:	0ff7f793          	andi	a5,a5,255
     508:	0ff77713          	andi	a4,a4,255
     50c:	b7f9                	j	4da <u8g2_font_decode_get_unsigned_bits+0x20>

0000050e <u8g2_font_setup_decode>:
     50e:	1141                	addi	sp,sp,-16
     510:	c606                	sw	ra,12(sp)
     512:	c422                	sw	s0,8(sp)
     514:	c226                	sw	s1,4(sp)
     516:	cd2c                	sw	a1,88(a0)
     518:	06c54583          	lbu	a1,108(a0)
     51c:	05850493          	addi	s1,a0,88
     520:	842a                	mv	s0,a0
     522:	06050123          	sb	zero,98(a0)
     526:	8526                	mv	a0,s1
     528:	3f49                	jal	4ba <u8g2_font_decode_get_unsigned_bits>
     52a:	06d44583          	lbu	a1,109(s0)
     52e:	06a40023          	sb	a0,96(s0)
     532:	8526                	mv	a0,s1
     534:	3759                	jal	4ba <u8g2_font_decode_get_unsigned_bits>
     536:	08644783          	lbu	a5,134(s0)
     53a:	06a400a3          	sb	a0,97(s0)
     53e:	40b2                	lw	ra,12(sp)
     540:	06f40223          	sb	a5,100(s0)
     544:	0017b793          	seqz	a5,a5
     548:	06f402a3          	sb	a5,101(s0)
     54c:	4422                	lw	s0,8(sp)
     54e:	4492                	lw	s1,4(sp)
     550:	0141                	addi	sp,sp,16
     552:	8082                	ret

00000554 <u8g2_font_decode_get_signed_bits>:
     554:	1141                	addi	sp,sp,-16
     556:	c422                	sw	s0,8(sp)
     558:	c606                	sw	ra,12(sp)
     55a:	842e                	mv	s0,a1
     55c:	3fb9                	jal	4ba <u8g2_font_decode_get_unsigned_bits>
     55e:	147d                	addi	s0,s0,-1
     560:	4785                	li	a5,1
     562:	008797b3          	sll	a5,a5,s0
     566:	40b2                	lw	ra,12(sp)
     568:	4422                	lw	s0,8(sp)
     56a:	8d1d                	sub	a0,a0,a5
     56c:	0562                	slli	a0,a0,0x18
     56e:	8561                	srai	a0,a0,0x18
     570:	0141                	addi	sp,sp,16
     572:	8082                	ret

00000574 <u8g2_font_decode_len>:
     574:	715d                	addi	sp,sp,-80
     576:	c4a2                	sw	s0,72(sp)
     578:	de4e                	sw	s3,60(sp)
     57a:	d85a                	sw	s6,48(sp)
     57c:	c686                	sw	ra,76(sp)
     57e:	c2a6                	sw	s1,68(sp)
     580:	c0ca                	sw	s2,64(sp)
     582:	dc52                	sw	s4,56(sp)
     584:	da56                	sw	s5,52(sp)
     586:	d65e                	sw	s7,44(sp)
     588:	d462                	sw	s8,40(sp)
     58a:	d266                	sw	s9,36(sp)
     58c:	d06a                	sw	s10,32(sp)
     58e:	ce6e                	sw	s11,28(sp)
     590:	05e54483          	lbu	s1,94(a0)
     594:	05f54903          	lbu	s2,95(a0)
     598:	842a                	mv	s0,a0
     59a:	89ae                	mv	s3,a1
     59c:	8b32                	mv	s6,a2
     59e:	06044b83          	lbu	s7,96(s0)
     5a2:	0ff9fa93          	andi	s5,s3,255
     5a6:	409b8a33          	sub	s4,s7,s1
     5aa:	0ffa7a13          	andi	s4,s4,255
     5ae:	013a7463          	bgeu	s4,s3,5b6 <u8g2_font_decode_len+0x42>
     5b2:	0ffa7a93          	andi	s5,s4,255
     5b6:	06644703          	lbu	a4,102(s0)
     5ba:	01849c93          	slli	s9,s1,0x18
     5be:	01891c13          	slli	s8,s2,0x18
     5c2:	05c44503          	lbu	a0,92(s0)
     5c6:	418cdc93          	srai	s9,s9,0x18
     5ca:	418c5c13          	srai	s8,s8,0x18
     5ce:	86ba                	mv	a3,a4
     5d0:	8662                	mv	a2,s8
     5d2:	85e6                	mv	a1,s9
     5d4:	c63a                	sw	a4,12(sp)
     5d6:	3509                	jal	3d8 <u8g2_add_vector_x>
     5d8:	4732                	lw	a4,12(sp)
     5da:	05d44d83          	lbu	s11,93(s0)
     5de:	8662                	mv	a2,s8
     5e0:	86ba                	mv	a3,a4
     5e2:	8d2a                	mv	s10,a0
     5e4:	85e6                	mv	a1,s9
     5e6:	856e                	mv	a0,s11
     5e8:	33f9                	jal	3b6 <u8g2_add_vector_y>
     5ea:	862a                	mv	a2,a0
     5ec:	4732                	lw	a4,12(sp)
     5ee:	020b0863          	beqz	s6,61e <u8g2_font_decode_len+0xaa>
     5f2:	06444783          	lbu	a5,100(s0)
     5f6:	08f40323          	sb	a5,134(s0)
     5fa:	86d6                	mv	a3,s5
     5fc:	85ea                	mv	a1,s10
     5fe:	8522                	mv	a0,s0
     600:	2931                	jal	a1c <u8g2_DrawHVLine>
     602:	94ce                	add	s1,s1,s3
     604:	0ff4f493          	andi	s1,s1,255
     608:	0349e163          	bltu	s3,s4,62a <u8g2_font_decode_len+0xb6>
     60c:	417484b3          	sub	s1,s1,s7
     610:	0905                	addi	s2,s2,1
     612:	0ff4f993          	andi	s3,s1,255
     616:	0ff97913          	andi	s2,s2,255
     61a:	4481                	li	s1,0
     61c:	b749                	j	59e <u8g2_font_decode_len+0x2a>
     61e:	06344783          	lbu	a5,99(s0)
     622:	f3e5                	bnez	a5,602 <u8g2_font_decode_len+0x8e>
     624:	06544783          	lbu	a5,101(s0)
     628:	b7f9                	j	5f6 <u8g2_font_decode_len+0x82>
     62a:	04940f23          	sb	s1,94(s0)
     62e:	05840fa3          	sb	s8,95(s0)
     632:	40b6                	lw	ra,76(sp)
     634:	4426                	lw	s0,72(sp)
     636:	4496                	lw	s1,68(sp)
     638:	4906                	lw	s2,64(sp)
     63a:	59f2                	lw	s3,60(sp)
     63c:	5a62                	lw	s4,56(sp)
     63e:	5ad2                	lw	s5,52(sp)
     640:	5b42                	lw	s6,48(sp)
     642:	5bb2                	lw	s7,44(sp)
     644:	5c22                	lw	s8,40(sp)
     646:	5c92                	lw	s9,36(sp)
     648:	5d02                	lw	s10,32(sp)
     64a:	4df2                	lw	s11,28(sp)
     64c:	6161                	addi	sp,sp,80
     64e:	8082                	ret

00000650 <u8g2_font_decode_glyph>:
     650:	7179                	addi	sp,sp,-48
     652:	d606                	sw	ra,44(sp)
     654:	d422                	sw	s0,40(sp)
     656:	d226                	sw	s1,36(sp)
     658:	842a                	mv	s0,a0
     65a:	ce4e                	sw	s3,28(sp)
     65c:	cc52                	sw	s4,24(sp)
     65e:	05850993          	addi	s3,a0,88
     662:	ca56                	sw	s5,20(sp)
     664:	c65e                	sw	s7,12(sp)
     666:	c462                	sw	s8,8(sp)
     668:	d04a                	sw	s2,32(sp)
     66a:	c85a                	sw	s6,16(sp)
     66c:	c266                	sw	s9,4(sp)
     66e:	3545                	jal	50e <u8g2_font_setup_decode>
     670:	06e44583          	lbu	a1,110(s0)
     674:	854e                	mv	a0,s3
     676:	06140a03          	lb	s4,97(s0)
     67a:	3de9                	jal	554 <u8g2_font_decode_get_signed_bits>
     67c:	06f44583          	lbu	a1,111(s0)
     680:	8c2a                	mv	s8,a0
     682:	854e                	mv	a0,s3
     684:	3dc1                	jal	554 <u8g2_font_decode_get_signed_bits>
     686:	07044583          	lbu	a1,112(s0)
     68a:	8baa                	mv	s7,a0
     68c:	854e                	mv	a0,s3
     68e:	35d9                	jal	554 <u8g2_font_decode_get_signed_bits>
     690:	06040483          	lb	s1,96(s0)
     694:	8aaa                	mv	s5,a0
     696:	08905f63          	blez	s1,734 <u8g2_font_decode_glyph+0xe4>
     69a:	0ffa7913          	andi	s2,s4,255
     69e:	9bca                	add	s7,s7,s2
     6a0:	06644c83          	lbu	s9,102(s0)
     6a4:	41700bb3          	neg	s7,s7
     6a8:	05c44503          	lbu	a0,92(s0)
     6ac:	0be2                	slli	s7,s7,0x18
     6ae:	418bdb93          	srai	s7,s7,0x18
     6b2:	86e6                	mv	a3,s9
     6b4:	865e                	mv	a2,s7
     6b6:	85e2                	mv	a1,s8
     6b8:	3305                	jal	3d8 <u8g2_add_vector_x>
     6ba:	04a40e23          	sb	a0,92(s0)
     6be:	8b2a                	mv	s6,a0
     6c0:	05d44503          	lbu	a0,93(s0)
     6c4:	865e                	mv	a2,s7
     6c6:	86e6                	mv	a3,s9
     6c8:	85e2                	mv	a1,s8
     6ca:	31f5                	jal	3b6 <u8g2_add_vector_y>
     6cc:	04a40ea3          	sb	a0,93(s0)
     6d0:	4785                	li	a5,1
     6d2:	862a                	mv	a2,a0
     6d4:	08fc8563          	beq	s9,a5,75e <u8g2_font_decode_glyph+0x10e>
     6d8:	060c8c63          	beqz	s9,750 <u8g2_font_decode_glyph+0x100>
     6dc:	4789                	li	a5,2
     6de:	08fc8c63          	beq	s9,a5,776 <u8g2_font_decode_glyph+0x126>
     6e2:	478d                	li	a5,3
     6e4:	0afc8e63          	beq	s9,a5,7a0 <u8g2_font_decode_glyph+0x150>
     6e8:	872a                	mv	a4,a0
     6ea:	86da                	mv	a3,s6
     6ec:	85da                	mv	a1,s6
     6ee:	8522                	mv	a0,s0
     6f0:	2125                	jal	b18 <u8g2_IsIntersection>
     6f2:	c129                	beqz	a0,734 <u8g2_font_decode_glyph+0xe4>
     6f4:	04041f23          	sh	zero,94(s0)
     6f8:	06a44583          	lbu	a1,106(s0)
     6fc:	854e                	mv	a0,s3
     6fe:	3b75                	jal	4ba <u8g2_font_decode_get_unsigned_bits>
     700:	06b44583          	lbu	a1,107(s0)
     704:	892a                	mv	s2,a0
     706:	854e                	mv	a0,s3
     708:	3b4d                	jal	4ba <u8g2_font_decode_get_unsigned_bits>
     70a:	84aa                	mv	s1,a0
     70c:	4601                	li	a2,0
     70e:	85ca                	mv	a1,s2
     710:	8522                	mv	a0,s0
     712:	358d                	jal	574 <u8g2_font_decode_len>
     714:	85a6                	mv	a1,s1
     716:	8522                	mv	a0,s0
     718:	4605                	li	a2,1
     71a:	3da9                	jal	574 <u8g2_font_decode_len>
     71c:	4585                	li	a1,1
     71e:	854e                	mv	a0,s3
     720:	3b69                	jal	4ba <u8g2_font_decode_get_unsigned_bits>
     722:	f56d                	bnez	a0,70c <u8g2_font_decode_glyph+0xbc>
     724:	05f40783          	lb	a5,95(s0)
     728:	fd47c8e3          	blt	a5,s4,6f8 <u8g2_font_decode_glyph+0xa8>
     72c:	06444783          	lbu	a5,100(s0)
     730:	08f40323          	sb	a5,134(s0)
     734:	50b2                	lw	ra,44(sp)
     736:	5422                	lw	s0,40(sp)
     738:	8556                	mv	a0,s5
     73a:	5492                	lw	s1,36(sp)
     73c:	5902                	lw	s2,32(sp)
     73e:	49f2                	lw	s3,28(sp)
     740:	4a62                	lw	s4,24(sp)
     742:	4ad2                	lw	s5,20(sp)
     744:	4b42                	lw	s6,16(sp)
     746:	4bb2                	lw	s7,12(sp)
     748:	4c22                	lw	s8,8(sp)
     74a:	4c92                	lw	s9,4(sp)
     74c:	6145                	addi	sp,sp,48
     74e:	8082                	ret
     750:	94da                	add	s1,s1,s6
     752:	992a                	add	s2,s2,a0
     754:	0ff4f693          	andi	a3,s1,255
     758:	0ff97713          	andi	a4,s2,255
     75c:	bf41                	j	6ec <u8g2_font_decode_glyph+0x9c>
     75e:	412b0933          	sub	s2,s6,s2
     762:	0905                	addi	s2,s2,1
     764:	0b05                	addi	s6,s6,1
     766:	94aa                	add	s1,s1,a0
     768:	0ffb7693          	andi	a3,s6,255
     76c:	0ff4f713          	andi	a4,s1,255
     770:	0ff97b13          	andi	s6,s2,255
     774:	bfa5                	j	6ec <u8g2_font_decode_glyph+0x9c>
     776:	4705                	li	a4,1
     778:	409704b3          	sub	s1,a4,s1
     77c:	009b07b3          	add	a5,s6,s1
     780:	41270933          	sub	s2,a4,s2
     784:	001b0493          	addi	s1,s6,1
     788:	0ff4f693          	andi	a3,s1,255
     78c:	992a                	add	s2,s2,a0
     78e:	00150493          	addi	s1,a0,1
     792:	0ff4f713          	andi	a4,s1,255
     796:	0ff97613          	andi	a2,s2,255
     79a:	0ff7fb13          	andi	s6,a5,255
     79e:	b7b9                	j	6ec <u8g2_font_decode_glyph+0x9c>
     7a0:	995a                	add	s2,s2,s6
     7a2:	409504b3          	sub	s1,a0,s1
     7a6:	0ff97693          	andi	a3,s2,255
     7aa:	0485                	addi	s1,s1,1
     7ac:	00150913          	addi	s2,a0,1
     7b0:	0ff97713          	andi	a4,s2,255
     7b4:	0ff4f613          	andi	a2,s1,255
     7b8:	bf15                	j	6ec <u8g2_font_decode_glyph+0x9c>

000007ba <u8g2_font_get_glyph_data>:
     7ba:	493c                	lw	a5,80(a0)
     7bc:	0ff00713          	li	a4,255
     7c0:	07dd                	addi	a5,a5,23
     7c2:	02b76a63          	bltu	a4,a1,7f6 <u8g2_font_get_glyph_data+0x3c>
     7c6:	06000713          	li	a4,96
     7ca:	00b77f63          	bgeu	a4,a1,7e8 <u8g2_font_get_glyph_data+0x2e>
     7ce:	07c55703          	lhu	a4,124(a0)
     7d2:	97ba                	add	a5,a5,a4
     7d4:	0017c703          	lbu	a4,1(a5)
     7d8:	cf35                	beqz	a4,854 <__stack_size+0x54>
     7da:	0007c683          	lbu	a3,0(a5)
     7de:	feb69ae3          	bne	a3,a1,7d2 <u8g2_font_get_glyph_data+0x18>
     7e2:	00278513          	addi	a0,a5,2
     7e6:	8082                	ret
     7e8:	04000713          	li	a4,64
     7ec:	feb774e3          	bgeu	a4,a1,7d4 <u8g2_font_get_glyph_data+0x1a>
     7f0:	07a55703          	lhu	a4,122(a0)
     7f4:	bff9                	j	7d2 <u8g2_font_get_glyph_data+0x18>
     7f6:	1141                	addi	sp,sp,-16
     7f8:	c422                	sw	s0,8(sp)
     7fa:	07e55403          	lhu	s0,126(a0)
     7fe:	c226                	sw	s1,4(sp)
     800:	c04a                	sw	s2,0(sp)
     802:	943e                	add	s0,s0,a5
     804:	c606                	sw	ra,12(sp)
     806:	84ae                	mv	s1,a1
     808:	8922                	mv	s2,s0
     80a:	4581                	li	a1,0
     80c:	854a                	mv	a0,s2
     80e:	3e51                	jal	3a2 <u8g2_font_get_word>
     810:	942a                	add	s0,s0,a0
     812:	4589                	li	a1,2
     814:	854a                	mv	a0,s2
     816:	3671                	jal	3a2 <u8g2_font_get_word>
     818:	0911                	addi	s2,s2,4
     81a:	fe9568e3          	bltu	a0,s1,80a <__stack_size+0xa>
     81e:	00144783          	lbu	a5,1(s0)
     822:	00044703          	lbu	a4,0(s0)
     826:	07a2                	slli	a5,a5,0x8
     828:	8fd9                	or	a5,a5,a4
     82a:	00879713          	slli	a4,a5,0x8
     82e:	83a1                	srli	a5,a5,0x8
     830:	8fd9                	or	a5,a5,a4
     832:	07c2                	slli	a5,a5,0x10
     834:	83c1                	srli	a5,a5,0x10
     836:	c38d                	beqz	a5,858 <__stack_size+0x58>
     838:	00f49a63          	bne	s1,a5,84c <__stack_size+0x4c>
     83c:	00340513          	addi	a0,s0,3
     840:	40b2                	lw	ra,12(sp)
     842:	4422                	lw	s0,8(sp)
     844:	4492                	lw	s1,4(sp)
     846:	4902                	lw	s2,0(sp)
     848:	0141                	addi	sp,sp,16
     84a:	8082                	ret
     84c:	00244783          	lbu	a5,2(s0)
     850:	943e                	add	s0,s0,a5
     852:	b7f1                	j	81e <__stack_size+0x1e>
     854:	4501                	li	a0,0
     856:	8082                	ret
     858:	4501                	li	a0,0
     85a:	b7dd                	j	840 <__stack_size+0x40>

0000085c <u8g2_DrawGlyph>:
     85c:	1101                	addi	sp,sp,-32
     85e:	cc22                	sw	s0,24(sp)
     860:	ca26                	sw	s1,20(sp)
     862:	c84a                	sw	s2,16(sp)
     864:	c64e                	sw	s3,12(sp)
     866:	ce06                	sw	ra,28(sp)
     868:	06654783          	lbu	a5,102(a0)
     86c:	4705                	li	a4,1
     86e:	842a                	mv	s0,a0
     870:	892e                	mv	s2,a1
     872:	84b2                	mv	s1,a2
     874:	89b6                	mv	s3,a3
     876:	04e78463          	beq	a5,a4,8be <u8g2_DrawGlyph+0x62>
     87a:	cf85                	beqz	a5,8b2 <u8g2_DrawGlyph+0x56>
     87c:	4709                	li	a4,2
     87e:	04e78763          	beq	a5,a4,8cc <u8g2_DrawGlyph+0x70>
     882:	470d                	li	a4,3
     884:	04e78863          	beq	a5,a4,8d4 <u8g2_DrawGlyph+0x78>
     888:	85ce                	mv	a1,s3
     88a:	05240e23          	sb	s2,92(s0)
     88e:	04940ea3          	sb	s1,93(s0)
     892:	8522                	mv	a0,s0
     894:	371d                	jal	7ba <u8g2_font_get_glyph_data>
     896:	85aa                	mv	a1,a0
     898:	4501                	li	a0,0
     89a:	c589                	beqz	a1,8a4 <u8g2_DrawGlyph+0x48>
     89c:	8522                	mv	a0,s0
     89e:	3b4d                	jal	650 <u8g2_font_decode_glyph>
     8a0:	0ff57513          	andi	a0,a0,255
     8a4:	40f2                	lw	ra,28(sp)
     8a6:	4462                	lw	s0,24(sp)
     8a8:	44d2                	lw	s1,20(sp)
     8aa:	4942                	lw	s2,16(sp)
     8ac:	49b2                	lw	s3,12(sp)
     8ae:	6105                	addi	sp,sp,32
     8b0:	8082                	ret
     8b2:	497c                	lw	a5,84(a0)
     8b4:	9782                	jalr	a5
     8b6:	94aa                	add	s1,s1,a0
     8b8:	0ff4f493          	andi	s1,s1,255
     8bc:	b7f1                	j	888 <u8g2_DrawGlyph+0x2c>
     8be:	497c                	lw	a5,84(a0)
     8c0:	9782                	jalr	a5
     8c2:	40a90933          	sub	s2,s2,a0
     8c6:	0ff97913          	andi	s2,s2,255
     8ca:	bf7d                	j	888 <u8g2_DrawGlyph+0x2c>
     8cc:	497c                	lw	a5,84(a0)
     8ce:	9782                	jalr	a5
     8d0:	8c89                	sub	s1,s1,a0
     8d2:	b7dd                	j	8b8 <u8g2_DrawGlyph+0x5c>
     8d4:	497c                	lw	a5,84(a0)
     8d6:	9782                	jalr	a5
     8d8:	992a                	add	s2,s2,a0
     8da:	b7f5                	j	8c6 <u8g2_DrawGlyph+0x6a>

000008dc <u8g2_draw_string>:
     8dc:	7179                	addi	sp,sp,-48
     8de:	d04a                	sw	s2,32(sp)
     8e0:	6941                	lui	s2,0x10
     8e2:	d422                	sw	s0,40(sp)
     8e4:	d226                	sw	s1,36(sp)
     8e6:	ce4e                	sw	s3,28(sp)
     8e8:	cc52                	sw	s4,24(sp)
     8ea:	ca56                	sw	s5,20(sp)
     8ec:	c85a                	sw	s6,16(sp)
     8ee:	c65e                	sw	s7,12(sp)
     8f0:	c462                	sw	s8,8(sp)
     8f2:	c266                	sw	s9,4(sp)
     8f4:	d606                	sw	ra,44(sp)
     8f6:	8caa                	mv	s9,a0
     8f8:	842e                	mv	s0,a1
     8fa:	84b2                	mv	s1,a2
     8fc:	89b6                	mv	s3,a3
     8fe:	fff90a13          	addi	s4,s2,-1 # ffff <_data_lma+0x574b>
     902:	299d                	jal	d78 <u8x8_utf8_init>
     904:	4c01                	li	s8,0
     906:	1979                	addi	s2,s2,-2
     908:	4a85                	li	s5,1
     90a:	4b09                	li	s6,2
     90c:	4b8d                	li	s7,3
     90e:	004ca783          	lw	a5,4(s9)
     912:	0009c583          	lbu	a1,0(s3)
     916:	8566                	mv	a0,s9
     918:	9782                	jalr	a5
     91a:	86aa                	mv	a3,a0
     91c:	05450263          	beq	a0,s4,960 <u8g2_draw_string+0x84>
     920:	0985                	addi	s3,s3,1
     922:	ff2506e3          	beq	a0,s2,90e <u8g2_draw_string+0x32>
     926:	8626                	mv	a2,s1
     928:	85a2                	mv	a1,s0
     92a:	8566                	mv	a0,s9
     92c:	3f05                	jal	85c <u8g2_DrawGlyph>
     92e:	066cc783          	lbu	a5,102(s9)
     932:	01578f63          	beq	a5,s5,950 <u8g2_draw_string+0x74>
     936:	cb89                	beqz	a5,948 <u8g2_draw_string+0x6c>
     938:	03678063          	beq	a5,s6,958 <u8g2_draw_string+0x7c>
     93c:	03778063          	beq	a5,s7,95c <u8g2_draw_string+0x80>
     940:	9c2a                	add	s8,s8,a0
     942:	0ffc7c13          	andi	s8,s8,255
     946:	b7e1                	j	90e <u8g2_draw_string+0x32>
     948:	942a                	add	s0,s0,a0
     94a:	0ff47413          	andi	s0,s0,255
     94e:	bfcd                	j	940 <u8g2_draw_string+0x64>
     950:	94aa                	add	s1,s1,a0
     952:	0ff4f493          	andi	s1,s1,255
     956:	b7ed                	j	940 <u8g2_draw_string+0x64>
     958:	8c09                	sub	s0,s0,a0
     95a:	bfc5                	j	94a <u8g2_draw_string+0x6e>
     95c:	8c89                	sub	s1,s1,a0
     95e:	bfd5                	j	952 <u8g2_draw_string+0x76>
     960:	50b2                	lw	ra,44(sp)
     962:	5422                	lw	s0,40(sp)
     964:	8562                	mv	a0,s8
     966:	5492                	lw	s1,36(sp)
     968:	5902                	lw	s2,32(sp)
     96a:	49f2                	lw	s3,28(sp)
     96c:	4a62                	lw	s4,24(sp)
     96e:	4ad2                	lw	s5,20(sp)
     970:	4b42                	lw	s6,16(sp)
     972:	4bb2                	lw	s7,12(sp)
     974:	4c22                	lw	s8,8(sp)
     976:	4c92                	lw	s9,4(sp)
     978:	6145                	addi	sp,sp,48
     97a:	8082                	ret

0000097c <u8g2_DrawStr>:
     97c:	000017b7          	lui	a5,0x1
     980:	d6278793          	addi	a5,a5,-670 # d62 <u8x8_ascii_next>
     984:	c15c                	sw	a5,4(a0)
     986:	bf99                	j	8dc <u8g2_draw_string>

00000988 <u8g2_UpdateRefHeight>:
     988:	493c                	lw	a5,80(a0)
     98a:	cba9                	beqz	a5,9dc <u8g2_UpdateRefHeight+0x54>
     98c:	07550603          	lb	a2,117(a0)
     990:	07650683          	lb	a3,118(a0)
     994:	08154783          	lbu	a5,129(a0)
     998:	08c50123          	sb	a2,130(a0)
     99c:	08d501a3          	sb	a3,131(a0)
     9a0:	cf95                	beqz	a5,9dc <u8g2_UpdateRefHeight+0x54>
     9a2:	4705                	li	a4,1
     9a4:	00e79f63          	bne	a5,a4,9c2 <u8g2_UpdateRefHeight+0x3a>
     9a8:	07750783          	lb	a5,119(a0)
     9ac:	00f65463          	bge	a2,a5,9b4 <u8g2_UpdateRefHeight+0x2c>
     9b0:	08f50123          	sb	a5,130(a0)
     9b4:	07850783          	lb	a5,120(a0)
     9b8:	02d7d263          	bge	a5,a3,9dc <u8g2_UpdateRefHeight+0x54>
     9bc:	08f501a3          	sb	a5,131(a0)
     9c0:	8082                	ret
     9c2:	07250783          	lb	a5,114(a0)
     9c6:	07450703          	lb	a4,116(a0)
     9ca:	97ba                	add	a5,a5,a4
     9cc:	00f65463          	bge	a2,a5,9d4 <u8g2_UpdateRefHeight+0x4c>
     9d0:	08f50123          	sb	a5,130(a0)
     9d4:	00d75463          	bge	a4,a3,9dc <u8g2_UpdateRefHeight+0x54>
     9d8:	08e501a3          	sb	a4,131(a0)
     9dc:	8082                	ret

000009de <u8g2_SetFontPosBaseline>:
     9de:	000007b7          	lui	a5,0x0
     9e2:	3fa78793          	addi	a5,a5,1018 # 3fa <u8g2_font_calc_vref_font>
     9e6:	c97c                	sw	a5,84(a0)
     9e8:	8082                	ret

000009ea <u8g2_SetFont>:
     9ea:	4938                	lw	a4,80(a0)
     9ec:	00b70f63          	beq	a4,a1,a0a <u8g2_SetFont+0x20>
     9f0:	1141                	addi	sp,sp,-16
     9f2:	c422                	sw	s0,8(sp)
     9f4:	c606                	sw	ra,12(sp)
     9f6:	842a                	mv	s0,a0
     9f8:	c82c                	sw	a1,80(s0)
     9fa:	06850513          	addi	a0,a0,104
     9fe:	3401                	jal	3fe <u8g2_read_font_info>
     a00:	8522                	mv	a0,s0
     a02:	4422                	lw	s0,8(sp)
     a04:	40b2                	lw	ra,12(sp)
     a06:	0141                	addi	sp,sp,16
     a08:	b741                	j	988 <u8g2_UpdateRefHeight>
     a0a:	8082                	ret

00000a0c <u8g2_draw_hv_line_2dir>:
     a0c:	04054783          	lbu	a5,64(a0)
     a10:	03052303          	lw	t1,48(a0)
     a14:	8e1d                	sub	a2,a2,a5
     a16:	0ff67613          	andi	a2,a2,255
     a1a:	8302                	jr	t1

00000a1c <u8g2_DrawHVLine>:
     a1c:	08054783          	lbu	a5,128(a0)
     a20:	c7c1                	beqz	a5,aa8 <u8g2_DrawHVLine+0x8c>
     a22:	c2d9                	beqz	a3,aa8 <u8g2_DrawHVLine+0x8c>
     a24:	4785                	li	a5,1
     a26:	00d7f963          	bgeu	a5,a3,a38 <u8g2_DrawHVLine+0x1c>
     a2a:	4789                	li	a5,2
     a2c:	06f71363          	bne	a4,a5,a92 <u8g2_DrawHVLine+0x76>
     a30:	0585                	addi	a1,a1,1
     a32:	8d95                	sub	a1,a1,a3
     a34:	0ff5f593          	andi	a1,a1,255
     a38:	8b05                	andi	a4,a4,1
     a3a:	eb25                	bnez	a4,aaa <u8g2_DrawHVLine+0x8e>
     a3c:	04754783          	lbu	a5,71(a0)
     a40:	06f66463          	bltu	a2,a5,aa8 <u8g2_DrawHVLine+0x8c>
     a44:	04854783          	lbu	a5,72(a0)
     a48:	06f67063          	bgeu	a2,a5,aa8 <u8g2_DrawHVLine+0x8c>
     a4c:	96ae                	add	a3,a3,a1
     a4e:	0ff6f693          	andi	a3,a3,255
     a52:	04554783          	lbu	a5,69(a0)
     a56:	04654803          	lbu	a6,70(a0)
     a5a:	04b6f563          	bgeu	a3,a1,aa4 <u8g2_DrawHVLine+0x88>
     a5e:	0505f263          	bgeu	a1,a6,aa2 <u8g2_DrawHVLine+0x86>
     a62:	fff80693          	addi	a3,a6,-1
     a66:	0ff6f693          	andi	a3,a3,255
     a6a:	02d7ff63          	bgeu	a5,a3,aa8 <u8g2_DrawHVLine+0x8c>
     a6e:	88be                	mv	a7,a5
     a70:	00b7f363          	bgeu	a5,a1,a76 <u8g2_DrawHVLine+0x5a>
     a74:	88ae                	mv	a7,a1
     a76:	0ff8f593          	andi	a1,a7,255
     a7a:	87c2                	mv	a5,a6
     a7c:	0106f363          	bgeu	a3,a6,a82 <u8g2_DrawHVLine+0x66>
     a80:	87b6                	mv	a5,a3
     a82:	40b786b3          	sub	a3,a5,a1
     a86:	595c                	lw	a5,52(a0)
     a88:	0ff6f693          	andi	a3,a3,255
     a8c:	0087a303          	lw	t1,8(a5)
     a90:	8302                	jr	t1
     a92:	478d                	li	a5,3
     a94:	faf712e3          	bne	a4,a5,a38 <u8g2_DrawHVLine+0x1c>
     a98:	0605                	addi	a2,a2,1
     a9a:	8e15                	sub	a2,a2,a3
     a9c:	0ff67613          	andi	a2,a2,255
     aa0:	bf61                	j	a38 <u8g2_DrawHVLine+0x1c>
     aa2:	85be                	mv	a1,a5
     aa4:	fd05e3e3          	bltu	a1,a6,a6a <u8g2_DrawHVLine+0x4e>
     aa8:	8082                	ret
     aaa:	04554783          	lbu	a5,69(a0)
     aae:	fef5ede3          	bltu	a1,a5,aa8 <u8g2_DrawHVLine+0x8c>
     ab2:	04654783          	lbu	a5,70(a0)
     ab6:	fef5f9e3          	bgeu	a1,a5,aa8 <u8g2_DrawHVLine+0x8c>
     aba:	96b2                	add	a3,a3,a2
     abc:	0ff6f693          	andi	a3,a3,255
     ac0:	04754783          	lbu	a5,71(a0)
     ac4:	04854803          	lbu	a6,72(a0)
     ac8:	02c6f863          	bgeu	a3,a2,af8 <u8g2_DrawHVLine+0xdc>
     acc:	03067563          	bgeu	a2,a6,af6 <u8g2_DrawHVLine+0xda>
     ad0:	fff80693          	addi	a3,a6,-1
     ad4:	0ff6f693          	andi	a3,a3,255
     ad8:	fcd7f8e3          	bgeu	a5,a3,aa8 <u8g2_DrawHVLine+0x8c>
     adc:	88be                	mv	a7,a5
     ade:	00c7f363          	bgeu	a5,a2,ae4 <u8g2_DrawHVLine+0xc8>
     ae2:	88b2                	mv	a7,a2
     ae4:	0ff8f613          	andi	a2,a7,255
     ae8:	87c2                	mv	a5,a6
     aea:	0106f363          	bgeu	a3,a6,af0 <u8g2_DrawHVLine+0xd4>
     aee:	87b6                	mv	a5,a3
     af0:	40c786b3          	sub	a3,a5,a2
     af4:	bf49                	j	a86 <u8g2_DrawHVLine+0x6a>
     af6:	863e                	mv	a2,a5
     af8:	ff0660e3          	bltu	a2,a6,ad8 <u8g2_DrawHVLine+0xbc>
     afc:	b775                	j	aa8 <u8g2_DrawHVLine+0x8c>

00000afe <u8g2_is_intersection_decision_tree>:
     afe:	00b67963          	bgeu	a2,a1,b10 <u8g2_is_intersection_decision_tree+0x12>
     b02:	4785                	li	a5,1
     b04:	00d56463          	bltu	a0,a3,b0c <u8g2_is_intersection_decision_tree+0xe>
     b08:	00c6b7b3          	sltu	a5,a3,a2
     b0c:	853e                	mv	a0,a5
     b0e:	8082                	ret
     b10:	fed56ce3          	bltu	a0,a3,b08 <u8g2_is_intersection_decision_tree+0xa>
     b14:	4781                	li	a5,0
     b16:	bfdd                	j	b0c <u8g2_is_intersection_decision_tree+0xe>

00000b18 <u8g2_IsIntersection>:
     b18:	1141                	addi	sp,sp,-16
     b1a:	c422                	sw	s0,8(sp)
     b1c:	c226                	sw	s1,4(sp)
     b1e:	c04a                	sw	s2,0(sp)
     b20:	c606                	sw	ra,12(sp)
     b22:	842a                	mv	s0,a0
     b24:	84ae                	mv	s1,a1
     b26:	04854583          	lbu	a1,72(a0)
     b2a:	04754503          	lbu	a0,71(a0)
     b2e:	8936                	mv	s2,a3
     b30:	86ba                	mv	a3,a4
     b32:	37f1                	jal	afe <u8g2_is_intersection_decision_tree>
     b34:	cd09                	beqz	a0,b4e <u8g2_IsIntersection+0x36>
     b36:	04644583          	lbu	a1,70(s0)
     b3a:	04544503          	lbu	a0,69(s0)
     b3e:	4422                	lw	s0,8(sp)
     b40:	40b2                	lw	ra,12(sp)
     b42:	86ca                	mv	a3,s2
     b44:	8626                	mv	a2,s1
     b46:	4902                	lw	s2,0(sp)
     b48:	4492                	lw	s1,4(sp)
     b4a:	0141                	addi	sp,sp,16
     b4c:	bf4d                	j	afe <u8g2_is_intersection_decision_tree>
     b4e:	40b2                	lw	ra,12(sp)
     b50:	4422                	lw	s0,8(sp)
     b52:	4492                	lw	s1,4(sp)
     b54:	4902                	lw	s2,0(sp)
     b56:	0141                	addi	sp,sp,16
     b58:	8082                	ret

00000b5a <u8g2_ll_hvline_vertical_top_lsb>:
     b5a:	08654303          	lbu	t1,134(a0)
     b5e:	00767893          	andi	a7,a2,7
     b62:	4785                	li	a5,1
     b64:	01179833          	sll	a6,a5,a7
     b68:	0ff87813          	andi	a6,a6,255
     b6c:	4e01                	li	t3,0
     b6e:	0067e563          	bltu	a5,t1,b78 <u8g2_ll_hvline_vertical_top_lsb+0x1e>
     b72:	8e42                	mv	t3,a6
     b74:	04f30b63          	beq	t1,a5,bca <u8g2_ll_hvline_vertical_top_lsb+0x70>
     b78:	00052303          	lw	t1,0(a0)
     b7c:	0f867613          	andi	a2,a2,248
     b80:	5d1c                	lw	a5,56(a0)
     b82:	01034303          	lbu	t1,16(t1)
     b86:	02660633          	mul	a2,a2,t1
     b8a:	95b2                	add	a1,a1,a2
     b8c:	95be                	add	a1,a1,a5
     b8e:	c321                	beqz	a4,bce <u8g2_ll_hvline_vertical_top_lsb+0x74>
     b90:	4705                	li	a4,1
     b92:	0005c783          	lbu	a5,0(a1)
     b96:	0885                	addi	a7,a7,1
     b98:	16fd                	addi	a3,a3,-1
     b9a:	00fe67b3          	or	a5,t3,a5
     b9e:	00f847b3          	xor	a5,a6,a5
     ba2:	00f58023          	sb	a5,0(a1)
     ba6:	0078f893          	andi	a7,a7,7
     baa:	0ff6f693          	andi	a3,a3,255
     bae:	04089163          	bnez	a7,bf0 <u8g2_ll_hvline_vertical_top_lsb+0x96>
     bb2:	03e54603          	lbu	a2,62(a0)
     bb6:	08654783          	lbu	a5,134(a0)
     bba:	95b2                	add	a1,a1,a2
     bbc:	00f76563          	bltu	a4,a5,bc6 <u8g2_ll_hvline_vertical_top_lsb+0x6c>
     bc0:	4e05                	li	t3,1
     bc2:	02e78e63          	beq	a5,a4,bfe <u8g2_ll_hvline_vertical_top_lsb+0xa4>
     bc6:	4805                	li	a6,1
     bc8:	a81d                	j	bfe <u8g2_ll_hvline_vertical_top_lsb+0xa4>
     bca:	4801                	li	a6,0
     bcc:	b775                	j	b78 <u8g2_ll_hvline_vertical_top_lsb+0x1e>
     bce:	96ae                	add	a3,a3,a1
     bd0:	0ff6f693          	andi	a3,a3,255
     bd4:	0005c783          	lbu	a5,0(a1)
     bd8:	0585                	addi	a1,a1,1
     bda:	00fe67b3          	or	a5,t3,a5
     bde:	00f847b3          	xor	a5,a6,a5
     be2:	fef58fa3          	sb	a5,-1(a1)
     be6:	0ff5f793          	andi	a5,a1,255
     bea:	fed795e3          	bne	a5,a3,bd4 <u8g2_ll_hvline_vertical_top_lsb+0x7a>
     bee:	8082                	ret
     bf0:	001e1793          	slli	a5,t3,0x1
     bf4:	0806                	slli	a6,a6,0x1
     bf6:	0ff7fe13          	andi	t3,a5,255
     bfa:	0ff87813          	andi	a6,a6,255
     bfe:	fad1                	bnez	a3,b92 <u8g2_ll_hvline_vertical_top_lsb+0x38>
     c00:	8082                	ret

00000c02 <u8g2_update_dimension_common>:
     c02:	03c54703          	lbu	a4,60(a0)
     c06:	4114                	lw	a3,0(a0)
     c08:	45fd                	li	a1,31
     c0a:	00371793          	slli	a5,a4,0x3
     c0e:	02f50fa3          	sb	a5,63(a0)
     c12:	0106c603          	lbu	a2,16(a3)
     c16:	87b2                	mv	a5,a2
     c18:	00c5f363          	bgeu	a1,a2,c1e <u8g2_update_dimension_common+0x1c>
     c1c:	47fd                	li	a5,31
     c1e:	03d54583          	lbu	a1,61(a0)
     c22:	078e                	slli	a5,a5,0x3
     c24:	02f50f23          	sb	a5,62(a0)
     c28:	00359793          	slli	a5,a1,0x3
     c2c:	0ff7f793          	andi	a5,a5,255
     c30:	04f50023          	sb	a5,64(a0)
     c34:	0116c603          	lbu	a2,17(a3)
     c38:	00b70833          	add	a6,a4,a1
     c3c:	01065663          	bge	a2,a6,c48 <u8g2_update_dimension_common+0x46>
     c40:	40b60733          	sub	a4,a2,a1
     c44:	0ff77713          	andi	a4,a4,255
     c48:	070e                	slli	a4,a4,0x3
     c4a:	04f500a3          	sb	a5,65(a0)
     c4e:	97ba                	add	a5,a5,a4
     c50:	04f50123          	sb	a5,66(a0)
     c54:	57c1                	li	a5,-16
     c56:	04f501a3          	sb	a5,67(a0)
     c5a:	0146d783          	lhu	a5,20(a3)
     c5e:	0f000713          	li	a4,240
     c62:	00f76463          	bltu	a4,a5,c6a <u8g2_update_dimension_common+0x68>
     c66:	04f501a3          	sb	a5,67(a0)
     c6a:	0166d783          	lhu	a5,22(a3)
     c6e:	04f50223          	sb	a5,68(a0)
     c72:	8082                	ret

00000c74 <u8g2_update_dimension_r0>:
     c74:	b779                	j	c02 <u8g2_update_dimension_common>

00000c76 <u8g2_draw_l90_r0>:
     c76:	bb59                	j	a0c <u8g2_draw_hv_line_2dir>

00000c78 <u8g2_apply_clip_window>:
     c78:	1141                	addi	sp,sp,-16
     c7a:	c422                	sw	s0,8(sp)
     c7c:	c606                	sw	ra,12(sp)
     c7e:	04c54703          	lbu	a4,76(a0)
     c82:	04a54683          	lbu	a3,74(a0)
     c86:	04b54603          	lbu	a2,75(a0)
     c8a:	04954583          	lbu	a1,73(a0)
     c8e:	842a                	mv	s0,a0
     c90:	3561                	jal	b18 <u8g2_IsIntersection>
     c92:	e519                	bnez	a0,ca0 <u8g2_apply_clip_window+0x28>
     c94:	08040023          	sb	zero,128(s0)
     c98:	40b2                	lw	ra,12(sp)
     c9a:	4422                	lw	s0,8(sp)
     c9c:	0141                	addi	sp,sp,16
     c9e:	8082                	ret
     ca0:	4785                	li	a5,1
     ca2:	08f40023          	sb	a5,128(s0)
     ca6:	04544703          	lbu	a4,69(s0)
     caa:	04944783          	lbu	a5,73(s0)
     cae:	00f77463          	bgeu	a4,a5,cb6 <u8g2_apply_clip_window+0x3e>
     cb2:	04f402a3          	sb	a5,69(s0)
     cb6:	04a44783          	lbu	a5,74(s0)
     cba:	04644703          	lbu	a4,70(s0)
     cbe:	00e7f463          	bgeu	a5,a4,cc6 <u8g2_apply_clip_window+0x4e>
     cc2:	04f40323          	sb	a5,70(s0)
     cc6:	04b44783          	lbu	a5,75(s0)
     cca:	04744703          	lbu	a4,71(s0)
     cce:	00f77463          	bgeu	a4,a5,cd6 <u8g2_apply_clip_window+0x5e>
     cd2:	04f403a3          	sb	a5,71(s0)
     cd6:	04c44783          	lbu	a5,76(s0)
     cda:	04844703          	lbu	a4,72(s0)
     cde:	fae7fde3          	bgeu	a5,a4,c98 <u8g2_apply_clip_window+0x20>
     ce2:	04f40423          	sb	a5,72(s0)
     ce6:	bf4d                	j	c98 <u8g2_apply_clip_window+0x20>

00000ce8 <u8g2_update_page_win_r0>:
     ce8:	04354703          	lbu	a4,67(a0)
     cec:	040502a3          	sb	zero,69(a0)
     cf0:	04e50323          	sb	a4,70(a0)
     cf4:	04154703          	lbu	a4,65(a0)
     cf8:	04e503a3          	sb	a4,71(a0)
     cfc:	04254703          	lbu	a4,66(a0)
     d00:	04e50423          	sb	a4,72(a0)
     d04:	bf95                	j	c78 <u8g2_apply_clip_window>

00000d06 <u8g2_SetMaxClipWindow>:
     d06:	0ff00713          	li	a4,255
     d0a:	595c                	lw	a5,52(a0)
     d0c:	04e51523          	sh	a4,74(a0)
     d10:	577d                	li	a4,-1
     d12:	040504a3          	sb	zero,73(a0)
     d16:	04e50623          	sb	a4,76(a0)
     d1a:	0047a303          	lw	t1,4(a5)
     d1e:	8302                	jr	t1

00000d20 <u8g2_SetupBuffer>:
     d20:	1141                	addi	sp,sp,-16
     d22:	c606                	sw	ra,12(sp)
     d24:	c422                	sw	s0,8(sp)
     d26:	10100793          	li	a5,257
     d2a:	02c50e23          	sb	a2,60(a0)
     d2e:	02050ea3          	sb	zero,61(a0)
     d32:	060501a3          	sb	zero,99(a0)
     d36:	080502a3          	sb	zero,133(a0)
     d3a:	08f51323          	sh	a5,134(a0)
     d3e:	431c                	lw	a5,0(a4)
     d40:	d914                	sw	a3,48(a0)
     d42:	dd0c                	sw	a1,56(a0)
     d44:	d958                	sw	a4,52(a0)
     d46:	04052823          	sw	zero,80(a0)
     d4a:	842a                	mv	s0,a0
     d4c:	9782                	jalr	a5
     d4e:	8522                	mv	a0,s0
     d50:	3f5d                	jal	d06 <u8g2_SetMaxClipWindow>
     d52:	8522                	mv	a0,s0
     d54:	3169                	jal	9de <u8g2_SetFontPosBaseline>
     d56:	40b2                	lw	ra,12(sp)
     d58:	06040323          	sb	zero,102(s0)
     d5c:	4422                	lw	s0,8(sp)
     d5e:	0141                	addi	sp,sp,16
     d60:	8082                	ret

00000d62 <u8x8_ascii_next>:
     d62:	c981                	beqz	a1,d72 <u8x8_ascii_next+0x10>
     d64:	47a9                	li	a5,10
     d66:	00f58663          	beq	a1,a5,d72 <u8x8_ascii_next+0x10>
     d6a:	01059513          	slli	a0,a1,0x10
     d6e:	8141                	srli	a0,a0,0x10
     d70:	8082                	ret
     d72:	6541                	lui	a0,0x10
     d74:	157d                	addi	a0,a0,-1
     d76:	8082                	ret

00000d78 <u8x8_utf8_init>:
     d78:	020503a3          	sb	zero,39(a0) # 10027 <_data_lma+0x5773>
     d7c:	8082                	ret

00000d7e <u8x8_byte_SendBytes>:
     d7e:	01052303          	lw	t1,16(a0)
     d82:	86b2                	mv	a3,a2
     d84:	862e                	mv	a2,a1
     d86:	45dd                	li	a1,23
     d88:	8302                	jr	t1

00000d8a <u8x8_byte_SendByte>:
     d8a:	1101                	addi	sp,sp,-32
     d8c:	00b107a3          	sb	a1,15(sp)
     d90:	00f10613          	addi	a2,sp,15
     d94:	4585                	li	a1,1
     d96:	ce06                	sw	ra,28(sp)
     d98:	37dd                	jal	d7e <u8x8_byte_SendBytes>
     d9a:	40f2                	lw	ra,28(sp)
     d9c:	6105                	addi	sp,sp,32
     d9e:	8082                	ret

00000da0 <u8x8_byte_StartTransfer>:
     da0:	01052303          	lw	t1,16(a0)
     da4:	4681                	li	a3,0
     da6:	4601                	li	a2,0
     da8:	45e1                	li	a1,24
     daa:	8302                	jr	t1

00000dac <u8x8_byte_EndTransfer>:
     dac:	01052303          	lw	t1,16(a0)
     db0:	4681                	li	a3,0
     db2:	4601                	li	a2,0
     db4:	45e5                	li	a1,25
     db6:	8302                	jr	t1

00000db8 <u8x8_i2c_data_transfer>:
     db8:	1101                	addi	sp,sp,-32
     dba:	ce06                	sw	ra,28(sp)
     dbc:	cc22                	sw	s0,24(sp)
     dbe:	ca26                	sw	s1,20(sp)
     dc0:	842a                	mv	s0,a0
     dc2:	84ae                	mv	s1,a1
     dc4:	c632                	sw	a2,12(sp)
     dc6:	3fe9                	jal	da0 <u8x8_byte_StartTransfer>
     dc8:	04000593          	li	a1,64
     dcc:	8522                	mv	a0,s0
     dce:	3f75                	jal	d8a <u8x8_byte_SendByte>
     dd0:	481c                	lw	a5,16(s0)
     dd2:	46b2                	lw	a3,12(sp)
     dd4:	8626                	mv	a2,s1
     dd6:	8522                	mv	a0,s0
     dd8:	45dd                	li	a1,23
     dda:	9782                	jalr	a5
     ddc:	8522                	mv	a0,s0
     dde:	4462                	lw	s0,24(sp)
     de0:	40f2                	lw	ra,28(sp)
     de2:	44d2                	lw	s1,20(sp)
     de4:	6105                	addi	sp,sp,32
     de6:	b7d9                	j	dac <u8x8_byte_EndTransfer>

00000de8 <u8x8_cad_SendCmd>:
     de8:	00c52303          	lw	t1,12(a0)
     dec:	862e                	mv	a2,a1
     dee:	4681                	li	a3,0
     df0:	45d5                	li	a1,21
     df2:	8302                	jr	t1

00000df4 <u8x8_cad_SendArg>:
     df4:	00c52303          	lw	t1,12(a0)
     df8:	862e                	mv	a2,a1
     dfa:	4681                	li	a3,0
     dfc:	45d9                	li	a1,22
     dfe:	8302                	jr	t1

00000e00 <u8x8_cad_SendData>:
     e00:	00c52303          	lw	t1,12(a0)
     e04:	86b2                	mv	a3,a2
     e06:	862e                	mv	a2,a1
     e08:	45dd                	li	a1,23
     e0a:	8302                	jr	t1

00000e0c <u8x8_cad_StartTransfer>:
     e0c:	00c52303          	lw	t1,12(a0)
     e10:	4681                	li	a3,0
     e12:	4601                	li	a2,0
     e14:	45e1                	li	a1,24
     e16:	8302                	jr	t1

00000e18 <u8x8_cad_EndTransfer>:
     e18:	00c52303          	lw	t1,12(a0)
     e1c:	4681                	li	a3,0
     e1e:	4601                	li	a2,0
     e20:	45e5                	li	a1,25
     e22:	8302                	jr	t1

00000e24 <u8x8_cad_SendSequence>:
     e24:	7179                	addi	sp,sp,-48
     e26:	d422                	sw	s0,40(sp)
     e28:	d226                	sw	s1,36(sp)
     e2a:	d04a                	sw	s2,32(sp)
     e2c:	ce4e                	sw	s3,28(sp)
     e2e:	cc52                	sw	s4,24(sp)
     e30:	ca56                	sw	s5,20(sp)
     e32:	d606                	sw	ra,44(sp)
     e34:	84aa                	mv	s1,a0
     e36:	842e                	mv	s0,a1
     e38:	495d                	li	s2,23
     e3a:	49e5                	li	s3,25
     e3c:	0fe00a13          	li	s4,254
     e40:	4ad5                	li	s5,21
     e42:	00044583          	lbu	a1,0(s0)
     e46:	05258663          	beq	a1,s2,e92 <u8x8_cad_SendSequence+0x6e>
     e4a:	00b96d63          	bltu	s2,a1,e64 <u8x8_cad_SendSequence+0x40>
     e4e:	0355f863          	bgeu	a1,s5,e7e <u8x8_cad_SendSequence+0x5a>
     e52:	50b2                	lw	ra,44(sp)
     e54:	5422                	lw	s0,40(sp)
     e56:	5492                	lw	s1,36(sp)
     e58:	5902                	lw	s2,32(sp)
     e5a:	49f2                	lw	s3,28(sp)
     e5c:	4a62                	lw	s4,24(sp)
     e5e:	4ad2                	lw	s5,20(sp)
     e60:	6145                	addi	sp,sp,48
     e62:	8082                	ret
     e64:	04b9f163          	bgeu	s3,a1,ea6 <u8x8_cad_SendSequence+0x82>
     e68:	ff4595e3          	bne	a1,s4,e52 <u8x8_cad_SendSequence+0x2e>
     e6c:	00144603          	lbu	a2,1(s0)
     e70:	02900593          	li	a1,41
     e74:	8526                	mv	a0,s1
     e76:	00c107a3          	sb	a2,15(sp)
     e7a:	2621                	jal	1182 <u8x8_gpio_call>
     e7c:	a809                	j	e8e <u8x8_cad_SendSequence+0x6a>
     e7e:	00144603          	lbu	a2,1(s0)
     e82:	44dc                	lw	a5,12(s1)
     e84:	4681                	li	a3,0
     e86:	00c107a3          	sb	a2,15(sp)
     e8a:	8526                	mv	a0,s1
     e8c:	9782                	jalr	a5
     e8e:	0409                	addi	s0,s0,2
     e90:	bf4d                	j	e42 <u8x8_cad_SendSequence+0x1e>
     e92:	00144783          	lbu	a5,1(s0)
     e96:	00f10613          	addi	a2,sp,15
     e9a:	4585                	li	a1,1
     e9c:	8526                	mv	a0,s1
     e9e:	00f107a3          	sb	a5,15(sp)
     ea2:	3fb9                	jal	e00 <u8x8_cad_SendData>
     ea4:	b7ed                	j	e8e <u8x8_cad_SendSequence+0x6a>
     ea6:	44dc                	lw	a5,12(s1)
     ea8:	4681                	li	a3,0
     eaa:	4601                	li	a2,0
     eac:	8526                	mv	a0,s1
     eae:	0405                	addi	s0,s0,1
     eb0:	9782                	jalr	a5
     eb2:	bf41                	j	e42 <u8x8_cad_SendSequence+0x1e>

00000eb4 <u8x8_cad_ssd13xx_fast_i2c>:
     eb4:	15b1                	addi	a1,a1,-20
     eb6:	0ff5f593          	andi	a1,a1,255
     eba:	4795                	li	a5,5
     ebc:	0cb7eb63          	bltu	a5,a1,f92 <u8x8_cad_ssd13xx_fast_i2c+0xde>
     ec0:	67a9                	lui	a5,0xa
     ec2:	23478793          	addi	a5,a5,564 # a234 <u8g2_cb_r0+0xc>
     ec6:	058a                	slli	a1,a1,0x2
     ec8:	95be                	add	a1,a1,a5
     eca:	419c                	lw	a5,0(a1)
     ecc:	7179                	addi	sp,sp,-48
     ece:	d422                	sw	s0,40(sp)
     ed0:	d226                	sw	s1,36(sp)
     ed2:	d606                	sw	ra,44(sp)
     ed4:	d04a                	sw	s2,32(sp)
     ed6:	ce4e                	sw	s3,28(sp)
     ed8:	842a                	mv	s0,a0
     eda:	84b2                	mv	s1,a2
     edc:	8782                	jr	a5
     ede:	8481c703          	lbu	a4,-1976(gp) # 20000228 <_edata>
     ee2:	84818913          	addi	s2,gp,-1976 # 20000228 <_edata>
     ee6:	c311                	beqz	a4,eea <u8x8_cad_ssd13xx_fast_i2c+0x36>
     ee8:	35d1                	jal	dac <u8x8_byte_EndTransfer>
     eea:	8522                	mv	a0,s0
     eec:	3d55                	jal	da0 <u8x8_byte_StartTransfer>
     eee:	4581                	li	a1,0
     ef0:	8522                	mv	a0,s0
     ef2:	3d61                	jal	d8a <u8x8_byte_SendByte>
     ef4:	85a6                	mv	a1,s1
     ef6:	8522                	mv	a0,s0
     ef8:	3d49                	jal	d8a <u8x8_byte_SendByte>
     efa:	4785                	li	a5,1
     efc:	00f90023          	sb	a5,0(s2)
     f00:	50b2                	lw	ra,44(sp)
     f02:	5422                	lw	s0,40(sp)
     f04:	5492                	lw	s1,36(sp)
     f06:	5902                	lw	s2,32(sp)
     f08:	49f2                	lw	s3,28(sp)
     f0a:	4505                	li	a0,1
     f0c:	6145                	addi	sp,sp,48
     f0e:	8082                	ret
     f10:	85b2                	mv	a1,a2
     f12:	3da5                	jal	d8a <u8x8_byte_SendByte>
     f14:	b7f5                	j	f00 <u8x8_cad_ssd13xx_fast_i2c+0x4c>
     f16:	8481c703          	lbu	a4,-1976(gp) # 20000228 <_edata>
     f1a:	84818913          	addi	s2,gp,-1976 # 20000228 <_edata>
     f1e:	c701                	beqz	a4,f26 <u8x8_cad_ssd13xx_fast_i2c+0x72>
     f20:	c636                	sw	a3,12(sp)
     f22:	3569                	jal	dac <u8x8_byte_EndTransfer>
     f24:	46b2                	lw	a3,12(sp)
     f26:	49e1                	li	s3,24
     f28:	8636                	mv	a2,a3
     f2a:	0099e863          	bltu	s3,s1,f3a <u8x8_cad_ssd13xx_fast_i2c+0x86>
     f2e:	85a6                	mv	a1,s1
     f30:	8522                	mv	a0,s0
     f32:	3559                	jal	db8 <u8x8_i2c_data_transfer>
     f34:	00090023          	sb	zero,0(s2)
     f38:	b7e1                	j	f00 <u8x8_cad_ssd13xx_fast_i2c+0x4c>
     f3a:	45e1                	li	a1,24
     f3c:	8522                	mv	a0,s0
     f3e:	c636                	sw	a3,12(sp)
     f40:	3da5                	jal	db8 <u8x8_i2c_data_transfer>
     f42:	46b2                	lw	a3,12(sp)
     f44:	14a1                	addi	s1,s1,-24
     f46:	0ff4f493          	andi	s1,s1,255
     f4a:	06e1                	addi	a3,a3,24
     f4c:	bff1                	j	f28 <u8x8_cad_ssd13xx_fast_i2c+0x74>
     f4e:	02454703          	lbu	a4,36(a0)
     f52:	0ff00793          	li	a5,255
     f56:	00f71663          	bne	a4,a5,f62 <u8x8_cad_ssd13xx_fast_i2c+0xae>
     f5a:	07800793          	li	a5,120
     f5e:	02f50223          	sb	a5,36(a0)
     f62:	01042303          	lw	t1,16(s0)
     f66:	8522                	mv	a0,s0
     f68:	5422                	lw	s0,40(sp)
     f6a:	50b2                	lw	ra,44(sp)
     f6c:	5902                	lw	s2,32(sp)
     f6e:	49f2                	lw	s3,28(sp)
     f70:	8626                	mv	a2,s1
     f72:	5492                	lw	s1,36(sp)
     f74:	45d1                	li	a1,20
     f76:	6145                	addi	sp,sp,48
     f78:	8302                	jr	t1
     f7a:	84018423          	sb	zero,-1976(gp) # 20000228 <_edata>
     f7e:	b749                	j	f00 <u8x8_cad_ssd13xx_fast_i2c+0x4c>
     f80:	8481c703          	lbu	a4,-1976(gp) # 20000228 <_edata>
     f84:	84818493          	addi	s1,gp,-1976 # 20000228 <_edata>
     f88:	c311                	beqz	a4,f8c <u8x8_cad_ssd13xx_fast_i2c+0xd8>
     f8a:	350d                	jal	dac <u8x8_byte_EndTransfer>
     f8c:	00048023          	sb	zero,0(s1)
     f90:	bf85                	j	f00 <u8x8_cad_ssd13xx_fast_i2c+0x4c>
     f92:	4501                	li	a0,0
     f94:	8082                	ret

00000f96 <u8x8_d_ssd1306_sh1106_generic>:
     f96:	1101                	addi	sp,sp,-32
     f98:	cc22                	sw	s0,24(sp)
     f9a:	ca26                	sw	s1,20(sp)
     f9c:	ce06                	sw	ra,28(sp)
     f9e:	c84a                	sw	s2,16(sp)
     fa0:	c64e                	sw	s3,12(sp)
     fa2:	47b5                	li	a5,13
     fa4:	842a                	mv	s0,a0
     fa6:	84b2                	mv	s1,a2
     fa8:	08f58a63          	beq	a1,a5,103c <u8x8_d_ssd1306_sh1106_generic+0xa6>
     fac:	00b7ed63          	bltu	a5,a1,fc6 <u8x8_d_ssd1306_sh1106_generic+0x30>
     fb0:	47ad                	li	a5,11
     fb2:	06f58c63          	beq	a1,a5,102a <u8x8_d_ssd1306_sh1106_generic+0x94>
     fb6:	4501                	li	a0,0
     fb8:	40f2                	lw	ra,28(sp)
     fba:	4462                	lw	s0,24(sp)
     fbc:	44d2                	lw	s1,20(sp)
     fbe:	4942                	lw	s2,16(sp)
     fc0:	49b2                	lw	s3,12(sp)
     fc2:	6105                	addi	sp,sp,32
     fc4:	8082                	ret
     fc6:	47b9                	li	a5,14
     fc8:	08f58b63          	beq	a1,a5,105e <u8x8_d_ssd1306_sh1106_generic+0xc8>
     fcc:	47bd                	li	a5,15
     fce:	fef594e3          	bne	a1,a5,fb6 <u8x8_d_ssd1306_sh1106_generic+0x20>
     fd2:	89b6                	mv	s3,a3
     fd4:	3d25                	jal	e0c <u8x8_cad_StartTransfer>
     fd6:	0059c903          	lbu	s2,5(s3)
     fda:	02244783          	lbu	a5,34(s0)
     fde:	04000593          	li	a1,64
     fe2:	090e                	slli	s2,s2,0x3
     fe4:	993e                	add	s2,s2,a5
     fe6:	8522                	mv	a0,s0
     fe8:	3501                	jal	de8 <u8x8_cad_SendCmd>
     fea:	0ff97913          	andi	s2,s2,255
     fee:	00495593          	srli	a1,s2,0x4
     ff2:	0105e593          	ori	a1,a1,16
     ff6:	8522                	mv	a0,s0
     ff8:	3bc5                	jal	de8 <u8x8_cad_SendCmd>
     ffa:	00f97593          	andi	a1,s2,15
     ffe:	8522                	mv	a0,s0
    1000:	3bd5                	jal	df4 <u8x8_cad_SendArg>
    1002:	0069c583          	lbu	a1,6(s3)
    1006:	8522                	mv	a0,s0
    1008:	0b05e593          	ori	a1,a1,176
    100c:	33e5                	jal	df4 <u8x8_cad_SendArg>
    100e:	0049c583          	lbu	a1,4(s3)
    1012:	0009a603          	lw	a2,0(s3)
    1016:	14fd                	addi	s1,s1,-1
    1018:	058e                	slli	a1,a1,0x3
    101a:	0f85f593          	andi	a1,a1,248
    101e:	8522                	mv	a0,s0
    1020:	0ff4f493          	andi	s1,s1,255
    1024:	3bf1                	jal	e00 <u8x8_cad_SendData>
    1026:	f4e5                	bnez	s1,100e <u8x8_d_ssd1306_sh1106_generic+0x78>
    1028:	a099                	j	106e <u8x8_d_ssd1306_sh1106_generic+0xd8>
    102a:	e611                	bnez	a2,1036 <u8x8_d_ssd1306_sh1106_generic+0xa0>
    102c:	83418593          	addi	a1,gp,-1996 # 20000214 <u8x8_d_ssd1306_128x64_noname_powersave0_seq>
    1030:	3bd5                	jal	e24 <u8x8_cad_SendSequence>
    1032:	4505                	li	a0,1
    1034:	b751                	j	fb8 <u8x8_d_ssd1306_sh1106_generic+0x22>
    1036:	83c18593          	addi	a1,gp,-1988 # 2000021c <u8x8_d_ssd1306_128x64_noname_powersave1_seq>
    103a:	bfdd                	j	1030 <u8x8_d_ssd1306_sh1106_generic+0x9a>
    103c:	ea11                	bnez	a2,1050 <u8x8_d_ssd1306_sh1106_generic+0xba>
    103e:	82418593          	addi	a1,gp,-2012 # 20000204 <u8x8_d_ssd1306_128x64_noname_flip0_seq>
    1042:	33cd                	jal	e24 <u8x8_cad_SendSequence>
    1044:	401c                	lw	a5,0(s0)
    1046:	0127c783          	lbu	a5,18(a5)
    104a:	02f40123          	sb	a5,34(s0)
    104e:	b7d5                	j	1032 <u8x8_d_ssd1306_sh1106_generic+0x9c>
    1050:	82c18593          	addi	a1,gp,-2004 # 2000020c <u8x8_d_ssd1306_128x64_noname_flip1_seq>
    1054:	3bc1                	jal	e24 <u8x8_cad_SendSequence>
    1056:	401c                	lw	a5,0(s0)
    1058:	0137c783          	lbu	a5,19(a5)
    105c:	b7fd                	j	104a <u8x8_d_ssd1306_sh1106_generic+0xb4>
    105e:	337d                	jal	e0c <u8x8_cad_StartTransfer>
    1060:	08100593          	li	a1,129
    1064:	8522                	mv	a0,s0
    1066:	3349                	jal	de8 <u8x8_cad_SendCmd>
    1068:	85a6                	mv	a1,s1
    106a:	8522                	mv	a0,s0
    106c:	3361                	jal	df4 <u8x8_cad_SendArg>
    106e:	8522                	mv	a0,s0
    1070:	3365                	jal	e18 <u8x8_cad_EndTransfer>
    1072:	b7c1                	j	1032 <u8x8_d_ssd1306_sh1106_generic+0x9c>

00001074 <u8x8_d_ssd1306_128x64_noname>:
    1074:	1141                	addi	sp,sp,-16
    1076:	c422                	sw	s0,8(sp)
    1078:	c226                	sw	s1,4(sp)
    107a:	c606                	sw	ra,12(sp)
    107c:	842a                	mv	s0,a0
    107e:	84ae                	mv	s1,a1
    1080:	3f19                	jal	f96 <u8x8_d_ssd1306_sh1106_generic>
    1082:	ed11                	bnez	a0,109e <u8x8_d_ssd1306_128x64_noname+0x2a>
    1084:	47a5                	li	a5,9
    1086:	02f48263          	beq	s1,a5,10aa <u8x8_d_ssd1306_128x64_noname+0x36>
    108a:	47a9                	li	a5,10
    108c:	00f49a63          	bne	s1,a5,10a0 <u8x8_d_ssd1306_128x64_noname+0x2c>
    1090:	8522                	mv	a0,s0
    1092:	2805                	jal	10c2 <u8x8_d_helper_display_init>
    1094:	65a9                	lui	a1,0xa
    1096:	24c58593          	addi	a1,a1,588 # a24c <u8x8_d_ssd1306_128x64_noname_init_seq>
    109a:	8522                	mv	a0,s0
    109c:	3361                	jal	e24 <u8x8_cad_SendSequence>
    109e:	4505                	li	a0,1
    10a0:	40b2                	lw	ra,12(sp)
    10a2:	4422                	lw	s0,8(sp)
    10a4:	4492                	lw	s1,4(sp)
    10a6:	0141                	addi	sp,sp,16
    10a8:	8082                	ret
    10aa:	65a9                	lui	a1,0xa
    10ac:	28458593          	addi	a1,a1,644 # a284 <u8x8_ssd1306_128x64_noname_display_info>
    10b0:	8522                	mv	a0,s0
    10b2:	2011                	jal	10b6 <u8x8_d_helper_display_setup_memory>
    10b4:	b7ed                	j	109e <u8x8_d_ssd1306_128x64_noname+0x2a>

000010b6 <u8x8_d_helper_display_setup_memory>:
    10b6:	c10c                	sw	a1,0(a0)
    10b8:	0125c783          	lbu	a5,18(a1)
    10bc:	02f50123          	sb	a5,34(a0)
    10c0:	8082                	ret

000010c2 <u8x8_d_helper_display_init>:
    10c2:	495c                	lw	a5,20(a0)
    10c4:	1141                	addi	sp,sp,-16
    10c6:	c606                	sw	ra,12(sp)
    10c8:	c422                	sw	s0,8(sp)
    10ca:	4681                	li	a3,0
    10cc:	4601                	li	a2,0
    10ce:	02800593          	li	a1,40
    10d2:	842a                	mv	s0,a0
    10d4:	9782                	jalr	a5
    10d6:	445c                	lw	a5,12(s0)
    10d8:	4681                	li	a3,0
    10da:	4601                	li	a2,0
    10dc:	45d1                	li	a1,20
    10de:	8522                	mv	a0,s0
    10e0:	9782                	jalr	a5
    10e2:	8522                	mv	a0,s0
    10e4:	4605                	li	a2,1
    10e6:	04b00593          	li	a1,75
    10ea:	2861                	jal	1182 <u8x8_gpio_call>
    10ec:	401c                	lw	a5,0(s0)
    10ee:	8522                	mv	a0,s0
    10f0:	02900593          	li	a1,41
    10f4:	0047c603          	lbu	a2,4(a5)
    10f8:	2069                	jal	1182 <u8x8_gpio_call>
    10fa:	8522                	mv	a0,s0
    10fc:	4601                	li	a2,0
    10fe:	04b00593          	li	a1,75
    1102:	2041                	jal	1182 <u8x8_gpio_call>
    1104:	401c                	lw	a5,0(s0)
    1106:	8522                	mv	a0,s0
    1108:	02900593          	li	a1,41
    110c:	0047c603          	lbu	a2,4(a5)
    1110:	288d                	jal	1182 <u8x8_gpio_call>
    1112:	8522                	mv	a0,s0
    1114:	4605                	li	a2,1
    1116:	04b00593          	li	a1,75
    111a:	20a5                	jal	1182 <u8x8_gpio_call>
    111c:	401c                	lw	a5,0(s0)
    111e:	8522                	mv	a0,s0
    1120:	4422                	lw	s0,8(sp)
    1122:	40b2                	lw	ra,12(sp)
    1124:	0057c603          	lbu	a2,5(a5)
    1128:	02900593          	li	a1,41
    112c:	0141                	addi	sp,sp,16
    112e:	a891                	j	1182 <u8x8_gpio_call>

00001130 <u8x8_DrawTile>:
    1130:	451c                	lw	a5,8(a0)
    1132:	1101                	addi	sp,sp,-32
    1134:	ce06                	sw	ra,28(sp)
    1136:	00b106a3          	sb	a1,13(sp)
    113a:	00c10723          	sb	a2,14(sp)
    113e:	00d10623          	sb	a3,12(sp)
    1142:	c43a                	sw	a4,8(sp)
    1144:	0034                	addi	a3,sp,8
    1146:	4605                	li	a2,1
    1148:	45bd                	li	a1,15
    114a:	9782                	jalr	a5
    114c:	40f2                	lw	ra,28(sp)
    114e:	6105                	addi	sp,sp,32
    1150:	8082                	ret

00001152 <u8x8_SetupMemory>:
    1152:	00852303          	lw	t1,8(a0)
    1156:	4681                	li	a3,0
    1158:	4601                	li	a2,0
    115a:	45a5                	li	a1,9
    115c:	8302                	jr	t1

0000115e <u8x8_InitDisplay>:
    115e:	00852303          	lw	t1,8(a0)
    1162:	4681                	li	a3,0
    1164:	4601                	li	a2,0
    1166:	45a9                	li	a1,10
    1168:	8302                	jr	t1

0000116a <u8x8_SetPowerSave>:
    116a:	00852303          	lw	t1,8(a0)
    116e:	862e                	mv	a2,a1
    1170:	4681                	li	a3,0
    1172:	45ad                	li	a1,11
    1174:	8302                	jr	t1

00001176 <u8x8_RefreshDisplay>:
    1176:	00852303          	lw	t1,8(a0)
    117a:	4681                	li	a3,0
    117c:	4601                	li	a2,0
    117e:	45c1                	li	a1,16
    1180:	8302                	jr	t1

00001182 <u8x8_gpio_call>:
    1182:	01452303          	lw	t1,20(a0)
    1186:	4681                	li	a3,0
    1188:	8302                	jr	t1

0000118a <u8x8_dummy_cb>:
    118a:	4501                	li	a0,0
    118c:	8082                	ret

0000118e <u8x8_SetupDefaults>:
    118e:	000017b7          	lui	a5,0x1
    1192:	18a78793          	addi	a5,a5,394 # 118a <u8x8_dummy_cb>
    1196:	c51c                	sw	a5,8(a0)
    1198:	c55c                	sw	a5,12(a0)
    119a:	c91c                	sw	a5,16(a0)
    119c:	c95c                	sw	a5,20(a0)
    119e:	57fd                	li	a5,-1
    11a0:	00052023          	sw	zero,0(a0)
    11a4:	020501a3          	sb	zero,35(a0)
    11a8:	02051323          	sh	zero,38(a0)
    11ac:	00052c23          	sw	zero,24(a0)
    11b0:	02f50223          	sb	a5,36(a0)
    11b4:	02f504a3          	sb	a5,41(a0)
    11b8:	8082                	ret

000011ba <u8x8_Setup>:
    11ba:	1101                	addi	sp,sp,-32
    11bc:	cc22                	sw	s0,24(sp)
    11be:	ce06                	sw	ra,28(sp)
    11c0:	842a                	mv	s0,a0
    11c2:	c62e                	sw	a1,12(sp)
    11c4:	c432                	sw	a2,8(sp)
    11c6:	c236                	sw	a3,4(sp)
    11c8:	c03a                	sw	a4,0(sp)
    11ca:	37d1                	jal	118e <u8x8_SetupDefaults>
    11cc:	45b2                	lw	a1,12(sp)
    11ce:	4622                	lw	a2,8(sp)
    11d0:	4692                	lw	a3,4(sp)
    11d2:	4702                	lw	a4,0(sp)
    11d4:	c40c                	sw	a1,8(s0)
    11d6:	c450                	sw	a2,12(s0)
    11d8:	c814                	sw	a3,16(s0)
    11da:	c858                	sw	a4,20(s0)
    11dc:	8522                	mv	a0,s0
    11de:	4462                	lw	s0,24(sp)
    11e0:	40f2                	lw	ra,28(sp)
    11e2:	6105                	addi	sp,sp,32
    11e4:	b7bd                	j	1152 <u8x8_SetupMemory>

000011e6 <NMI_Handler>:
    11e6:	30200073          	mret

000011ea <HardFault_Handler>:
    11ea:	a001                	j	11ea <HardFault_Handler>

000011ec <u8g2_gpio_and_delay_stm32>:
    11ec:	1141                	addi	sp,sp,-16
    11ee:	c606                	sw	ra,12(sp)
    11f0:	02900793          	li	a5,41
    11f4:	8532                	mv	a0,a2
    11f6:	04f58f63          	beq	a1,a5,1254 <u8g2_gpio_and_delay_stm32+0x68>
    11fa:	00b7ea63          	bltu	a5,a1,120e <u8g2_gpio_and_delay_stm32+0x22>
    11fe:	02800793          	li	a5,40
    1202:	04f58563          	beq	a1,a5,124c <u8g2_gpio_and_delay_stm32+0x60>
    1206:	4501                	li	a0,0
    1208:	40b2                	lw	ra,12(sp)
    120a:	0141                	addi	sp,sp,16
    120c:	8082                	ret
    120e:	02a00793          	li	a5,42
    1212:	02f58163          	beq	a1,a5,1234 <u8g2_gpio_and_delay_stm32+0x48>
    1216:	02b00693          	li	a3,43
    121a:	4781                	li	a5,0
    121c:	474d                	li	a4,19
    121e:	fed594e3          	bne	a1,a3,1206 <u8g2_gpio_and_delay_stm32+0x1a>
    1222:	02f506b3          	mul	a3,a0,a5
    1226:	02d74563          	blt	a4,a3,1250 <u8g2_gpio_and_delay_stm32+0x64>
    122a:	0001                	nop
    122c:	0785                	addi	a5,a5,1
    122e:	07c2                	slli	a5,a5,0x10
    1230:	83c1                	srli	a5,a5,0x10
    1232:	bfc5                	j	1222 <u8g2_gpio_and_delay_stm32+0x36>
    1234:	7d000613          	li	a2,2000
    1238:	02c50533          	mul	a0,a0,a2
    123c:	4781                	li	a5,0
    123e:	00a7d963          	bge	a5,a0,1250 <u8g2_gpio_and_delay_stm32+0x64>
    1242:	0001                	nop
    1244:	0785                	addi	a5,a5,1
    1246:	07c2                	slli	a5,a5,0x10
    1248:	83c1                	srli	a5,a5,0x10
    124a:	bfd5                	j	123e <u8g2_gpio_and_delay_stm32+0x52>
    124c:	489000ef          	jal	ra,1ed4 <Delay_Init>
    1250:	4505                	li	a0,1
    1252:	bf5d                	j	1208 <u8g2_gpio_and_delay_stm32+0x1c>
    1254:	4a7000ef          	jal	ra,1efa <Delay_Ms>
    1258:	bfe5                	j	1250 <u8g2_gpio_and_delay_stm32+0x64>

0000125a <IIC_Init>:
    125a:	7139                	addi	sp,sp,-64
    125c:	d64e                	sw	s3,44(sp)
    125e:	d452                	sw	s4,40(sp)
    1260:	89ae                	mv	s3,a1
    1262:	8a2a                	mv	s4,a0
    1264:	4585                	li	a1,1
    1266:	4525                	li	a0,9
    1268:	de06                	sw	ra,60(sp)
    126a:	dc22                	sw	s0,56(sp)
    126c:	da26                	sw	s1,52(sp)
    126e:	d84a                	sw	s2,48(sp)
    1270:	c202                	sw	zero,4(sp)
    1272:	c402                	sw	zero,8(sp)
    1274:	c602                	sw	zero,12(sp)
    1276:	c802                	sw	zero,16(sp)
    1278:	ca02                	sw	zero,20(sp)
    127a:	cc02                	sw	zero,24(sp)
    127c:	ce02                	sw	zero,28(sp)
    127e:	311000ef          	jal	ra,1d8e <RCC_APB2PeriphClockCmd>
    1282:	4585                	li	a1,1
    1284:	4509                	li	a0,2
    1286:	740000ef          	jal	ra,19c6 <GPIO_PinRemapConfig>
    128a:	4585                	li	a1,1
    128c:	00200537          	lui	a0,0x200
    1290:	31d000ef          	jal	ra,1dac <RCC_APB1PeriphClockCmd>
    1294:	40011437          	lui	s0,0x40011
    1298:	10000793          	li	a5,256
    129c:	4971                	li	s2,28
    129e:	448d                	li	s1,3
    12a0:	004c                	addi	a1,sp,4
    12a2:	c0040513          	addi	a0,s0,-1024 # 40010c00 <_eusrstack+0x20008c00>
    12a6:	00f11223          	sh	a5,4(sp)
    12aa:	c64a                	sw	s2,12(sp)
    12ac:	c426                	sw	s1,8(sp)
    12ae:	2d99                	jal	1904 <GPIO_Init>
    12b0:	20000793          	li	a5,512
    12b4:	004c                	addi	a1,sp,4
    12b6:	c0040513          	addi	a0,s0,-1024
    12ba:	00f11223          	sh	a5,4(sp)
    12be:	c64a                	sw	s2,12(sp)
    12c0:	c426                	sw	s1,8(sp)
    12c2:	2589                	jal	1904 <GPIO_Init>
    12c4:	400007b7          	lui	a5,0x40000
    12c8:	40005437          	lui	s0,0x40005
    12cc:	ca3e                	sw	a5,20(sp)
    12ce:	40000793          	li	a5,1024
    12d2:	00f11d23          	sh	a5,26(sp)
    12d6:	080c                	addi	a1,sp,16
    12d8:	6791                	lui	a5,0x4
    12da:	40040513          	addi	a0,s0,1024 # 40005400 <_eusrstack+0x1fffd400>
    12de:	00f11e23          	sh	a5,28(sp)
    12e2:	c852                	sw	s4,16(sp)
    12e4:	01311c23          	sh	s3,24(sp)
    12e8:	7a2000ef          	jal	ra,1a8a <I2C_Init>
    12ec:	40040513          	addi	a0,s0,1024
    12f0:	4585                	li	a1,1
    12f2:	0b3000ef          	jal	ra,1ba4 <I2C_Cmd>
    12f6:	40040513          	addi	a0,s0,1024
    12fa:	4585                	li	a1,1
    12fc:	101000ef          	jal	ra,1bfc <I2C_AcknowledgeConfig>
    1300:	50f2                	lw	ra,60(sp)
    1302:	5462                	lw	s0,56(sp)
    1304:	54d2                	lw	s1,52(sp)
    1306:	5942                	lw	s2,48(sp)
    1308:	59b2                	lw	s3,44(sp)
    130a:	5a22                	lw	s4,40(sp)
    130c:	6121                	addi	sp,sp,64
    130e:	8082                	ret

00001310 <main>:
    1310:	715d                	addi	sp,sp,-80
    1312:	c686                	sw	ra,76(sp)
    1314:	c4a2                	sw	s0,72(sp)
    1316:	c2a6                	sw	s1,68(sp)
    1318:	c0ca                	sw	s2,64(sp)
    131a:	de4e                	sw	s3,60(sp)
    131c:	d65e                	sw	s7,44(sp)
    131e:	d462                	sw	s8,40(sp)
    1320:	d266                	sw	s9,36(sp)
    1322:	d06a                	sw	s10,32(sp)
    1324:	ce6e                	sw	s11,28(sp)
    1326:	dc52                	sw	s4,56(sp)
    1328:	da56                	sw	s5,52(sp)
    132a:	d85a                	sw	s6,48(sp)
    132c:	3a9000ef          	jal	ra,1ed4 <Delay_Init>
    1330:	6571                	lui	a0,0x1c
    1332:	20050513          	addi	a0,a0,512 # 1c200 <_data_lma+0x1194c>
    1336:	3f3000ef          	jal	ra,1f28 <USART_Printf_Init>
    133a:	8141a583          	lw	a1,-2028(gp) # 200001f4 <SystemCoreClock>
    133e:	0000a537          	lui	a0,0xa
    1342:	2e050513          	addi	a0,a0,736 # a2e0 <u8x8_ssd1306_128x64_noname_display_info+0x5c>
    1346:	435010ef          	jal	ra,2f7a <iprintf>
    134a:	0000a537          	lui	a0,0xa
    134e:	2f050513          	addi	a0,a0,752 # a2f0 <u8x8_ssd1306_128x64_noname_display_info+0x6c>
    1352:	54f010ef          	jal	ra,30a0 <puts>
    1356:	000016b7          	lui	a3,0x1
    135a:	00001637          	lui	a2,0x1
    135e:	65a9                	lui	a1,0xa
    1360:	1ec68693          	addi	a3,a3,492 # 11ec <u8g2_gpio_and_delay_stm32>
    1364:	64260613          	addi	a2,a2,1602 # 1642 <u8x8_byte_stm32_hw_i2c>
    1368:	22858593          	addi	a1,a1,552 # a228 <u8g2_cb_r0>
    136c:	c8818513          	addi	a0,gp,-888 # 20000668 <u8g2>
    1370:	fe9fe0ef          	jal	ra,358 <u8g2_Setup_ssd1306_i2c_128x64_noname_f>
    1374:	c8818513          	addi	a0,gp,-888 # 20000668 <u8g2>
    1378:	33dd                	jal	115e <u8x8_InitDisplay>
    137a:	4581                	li	a1,0
    137c:	c8818513          	addi	a0,gp,-888 # 20000668 <u8g2>
    1380:	33ed                	jal	116a <u8x8_SetPowerSave>
    1382:	c8818513          	addi	a0,gp,-888 # 20000668 <u8g2>
    1386:	f9bfe0ef          	jal	ra,320 <u8g2_ClearBuffer>
    138a:	6925                	lui	s2,0x9
    138c:	24c90593          	addi	a1,s2,588 # 924c <u8g2_font_fub14_tf>
    1390:	c8818513          	addi	a0,gp,-888 # 20000668 <u8g2>
    1394:	e56ff0ef          	jal	ra,9ea <u8g2_SetFont>
    1398:	0000a6b7          	lui	a3,0xa
    139c:	30068693          	addi	a3,a3,768 # a300 <u8x8_ssd1306_128x64_noname_display_info+0x7c>
    13a0:	4679                	li	a2,30
    13a2:	4589                	li	a1,2
    13a4:	c8818513          	addi	a0,gp,-888 # 20000668 <u8g2>
    13a8:	dd4ff0ef          	jal	ra,97c <u8g2_DrawStr>
    13ac:	c8818513          	addi	a0,gp,-888 # 20000668 <u8g2>
    13b0:	f87fe0ef          	jal	ra,336 <u8g2_SendBuffer>
    13b4:	0000a7b7          	lui	a5,0xa
    13b8:	2d07a883          	lw	a7,720(a5) # a2d0 <u8x8_ssd1306_128x64_noname_display_info+0x4c>
    13bc:	0000a7b7          	lui	a5,0xa
    13c0:	2d87ac03          	lw	s8,728(a5) # a2d8 <u8x8_ssd1306_128x64_noname_display_info+0x54>
    13c4:	2dc7ac83          	lw	s9,732(a5)
    13c8:	6485                	lui	s1,0x1
    13ca:	81018993          	addi	s3,gp,-2032 # 200001f0 <vol>
    13ce:	0000a837          	lui	a6,0xa
    13d2:	20000db7          	lui	s11,0x20000
    13d6:	0000ad37          	lui	s10,0xa
    13da:	bb848493          	addi	s1,s1,-1096 # bb8 <u8g2_ll_hvline_vertical_top_lsb+0x5e>
    13de:	30c80593          	addi	a1,a6,780 # a30c <u8x8_ssd1306_128x64_noname_display_info+0x88>
    13e2:	8662                	mv	a2,s8
    13e4:	86e6                	mv	a3,s9
    13e6:	d1018513          	addi	a0,gp,-752 # 200006f0 <vol_buffer>
    13ea:	0119a023          	sw	a7,0(s3)
    13ee:	c646                	sw	a7,12(sp)
    13f0:	4c7010ef          	jal	ra,30b6 <siprintf>
    13f4:	1e0da503          	lw	a0,480(s11) # 200001e0 <cur>
    13f8:	3fb000ef          	jal	ra,1ff2 <__extendsfdf2>
    13fc:	862a                	mv	a2,a0
    13fe:	86ae                	mv	a3,a1
    1400:	d3418513          	addi	a0,gp,-716 # 20000714 <cur_buffer>
    1404:	314d0593          	addi	a1,s10,788 # a314 <u8x8_ssd1306_128x64_noname_display_info+0x90>
    1408:	4af010ef          	jal	ra,30b6 <siprintf>
    140c:	8041a503          	lw	a0,-2044(gp) # 200001e4 <pf>
    1410:	3e3000ef          	jal	ra,1ff2 <__extendsfdf2>
    1414:	86ae                	mv	a3,a1
    1416:	0000a5b7          	lui	a1,0xa
    141a:	862a                	mv	a2,a0
    141c:	31c58593          	addi	a1,a1,796 # a31c <u8x8_ssd1306_128x64_noname_display_info+0x98>
    1420:	d2818513          	addi	a0,gp,-728 # 20000708 <pf_buffer>
    1424:	493010ef          	jal	ra,30b6 <siprintf>
    1428:	8081a503          	lw	a0,-2040(gp) # 200001e8 <pw>
    142c:	3c7000ef          	jal	ra,1ff2 <__extendsfdf2>
    1430:	862a                	mv	a2,a0
    1432:	86ae                	mv	a3,a1
    1434:	c7c18513          	addi	a0,gp,-900 # 2000065c <pow_buffer>
    1438:	314d0593          	addi	a1,s10,788
    143c:	47b010ef          	jal	ra,30b6 <siprintf>
    1440:	80c1a503          	lw	a0,-2036(gp) # 200001ec <unit>
    1444:	3af000ef          	jal	ra,1ff2 <__extendsfdf2>
    1448:	86ae                	mv	a3,a1
    144a:	0000a5b7          	lui	a1,0xa
    144e:	862a                	mv	a2,a0
    1450:	32458593          	addi	a1,a1,804 # a324 <u8x8_ssd1306_128x64_noname_display_info+0xa0>
    1454:	d1c18513          	addi	a0,gp,-740 # 200006fc <unit_buffer>
    1458:	45f010ef          	jal	ra,30b6 <siprintf>
    145c:	c8818513          	addi	a0,gp,-888 # 20000668 <u8g2>
    1460:	ec1fe0ef          	jal	ra,320 <u8g2_ClearBuffer>
    1464:	24c90593          	addi	a1,s2,588
    1468:	c8818513          	addi	a0,gp,-888 # 20000668 <u8g2>
    146c:	d7eff0ef          	jal	ra,9ea <u8g2_SetFont>
    1470:	0000a6b7          	lui	a3,0xa
    1474:	32c68693          	addi	a3,a3,812 # a32c <u8x8_ssd1306_128x64_noname_display_info+0xa8>
    1478:	4665                	li	a2,25
    147a:	45bd                	li	a1,15
    147c:	c8818513          	addi	a0,gp,-888 # 20000668 <u8g2>
    1480:	cfcff0ef          	jal	ra,97c <u8g2_DrawStr>
    1484:	d1018693          	addi	a3,gp,-752 # 200006f0 <vol_buffer>
    1488:	03200613          	li	a2,50
    148c:	45f9                	li	a1,30
    148e:	c8818513          	addi	a0,gp,-888 # 20000668 <u8g2>
    1492:	ceaff0ef          	jal	ra,97c <u8g2_DrawStr>
    1496:	c8818513          	addi	a0,gp,-888 # 20000668 <u8g2>
    149a:	e9dfe0ef          	jal	ra,336 <u8g2_SendBuffer>
    149e:	8526                	mv	a0,s1
    14a0:	25b000ef          	jal	ra,1efa <Delay_Ms>
    14a4:	c8818513          	addi	a0,gp,-888 # 20000668 <u8g2>
    14a8:	e79fe0ef          	jal	ra,320 <u8g2_ClearBuffer>
    14ac:	0000a6b7          	lui	a3,0xa
    14b0:	33868693          	addi	a3,a3,824 # a338 <u8x8_ssd1306_128x64_noname_display_info+0xb4>
    14b4:	4665                	li	a2,25
    14b6:	45bd                	li	a1,15
    14b8:	c8818513          	addi	a0,gp,-888 # 20000668 <u8g2>
    14bc:	cc0ff0ef          	jal	ra,97c <u8g2_DrawStr>
    14c0:	d3418693          	addi	a3,gp,-716 # 20000714 <cur_buffer>
    14c4:	03200613          	li	a2,50
    14c8:	45f9                	li	a1,30
    14ca:	c8818513          	addi	a0,gp,-888 # 20000668 <u8g2>
    14ce:	caeff0ef          	jal	ra,97c <u8g2_DrawStr>
    14d2:	c8818513          	addi	a0,gp,-888 # 20000668 <u8g2>
    14d6:	e61fe0ef          	jal	ra,336 <u8g2_SendBuffer>
    14da:	8526                	mv	a0,s1
    14dc:	21f000ef          	jal	ra,1efa <Delay_Ms>
    14e0:	c8818513          	addi	a0,gp,-888 # 20000668 <u8g2>
    14e4:	e3dfe0ef          	jal	ra,320 <u8g2_ClearBuffer>
    14e8:	0000a6b7          	lui	a3,0xa
    14ec:	34468693          	addi	a3,a3,836 # a344 <u8x8_ssd1306_128x64_noname_display_info+0xc0>
    14f0:	4665                	li	a2,25
    14f2:	4595                	li	a1,5
    14f4:	c8818513          	addi	a0,gp,-888 # 20000668 <u8g2>
    14f8:	c84ff0ef          	jal	ra,97c <u8g2_DrawStr>
    14fc:	d2818693          	addi	a3,gp,-728 # 20000708 <pf_buffer>
    1500:	03200613          	li	a2,50
    1504:	45f9                	li	a1,30
    1506:	c8818513          	addi	a0,gp,-888 # 20000668 <u8g2>
    150a:	c72ff0ef          	jal	ra,97c <u8g2_DrawStr>
    150e:	c8818513          	addi	a0,gp,-888 # 20000668 <u8g2>
    1512:	e25fe0ef          	jal	ra,336 <u8g2_SendBuffer>
    1516:	8526                	mv	a0,s1
    1518:	1e3000ef          	jal	ra,1efa <Delay_Ms>
    151c:	c8818513          	addi	a0,gp,-888 # 20000668 <u8g2>
    1520:	e01fe0ef          	jal	ra,320 <u8g2_ClearBuffer>
    1524:	0000a6b7          	lui	a3,0xa
    1528:	35468693          	addi	a3,a3,852 # a354 <u8x8_ssd1306_128x64_noname_display_info+0xd0>
    152c:	4665                	li	a2,25
    152e:	45bd                	li	a1,15
    1530:	c8818513          	addi	a0,gp,-888 # 20000668 <u8g2>
    1534:	c48ff0ef          	jal	ra,97c <u8g2_DrawStr>
    1538:	c7c18693          	addi	a3,gp,-900 # 2000065c <pow_buffer>
    153c:	03200613          	li	a2,50
    1540:	45f9                	li	a1,30
    1542:	c8818513          	addi	a0,gp,-888 # 20000668 <u8g2>
    1546:	c36ff0ef          	jal	ra,97c <u8g2_DrawStr>
    154a:	c8818513          	addi	a0,gp,-888 # 20000668 <u8g2>
    154e:	de9fe0ef          	jal	ra,336 <u8g2_SendBuffer>
    1552:	8526                	mv	a0,s1
    1554:	1a7000ef          	jal	ra,1efa <Delay_Ms>
    1558:	c8818513          	addi	a0,gp,-888 # 20000668 <u8g2>
    155c:	dc5fe0ef          	jal	ra,320 <u8g2_ClearBuffer>
    1560:	0000a6b7          	lui	a3,0xa
    1564:	36068693          	addi	a3,a3,864 # a360 <u8x8_ssd1306_128x64_noname_display_info+0xdc>
    1568:	4665                	li	a2,25
    156a:	45d1                	li	a1,20
    156c:	c8818513          	addi	a0,gp,-888 # 20000668 <u8g2>
    1570:	c0cff0ef          	jal	ra,97c <u8g2_DrawStr>
    1574:	d1c18693          	addi	a3,gp,-740 # 200006fc <unit_buffer>
    1578:	03200613          	li	a2,50
    157c:	45f9                	li	a1,30
    157e:	c8818513          	addi	a0,gp,-888 # 20000668 <u8g2>
    1582:	bfaff0ef          	jal	ra,97c <u8g2_DrawStr>
    1586:	c8818513          	addi	a0,gp,-888 # 20000668 <u8g2>
    158a:	dadfe0ef          	jal	ra,336 <u8g2_SendBuffer>
    158e:	8526                	mv	a0,s1
    1590:	16b000ef          	jal	ra,1efa <Delay_Ms>
    1594:	0000a837          	lui	a6,0xa
    1598:	48b2                	lw	a7,12(sp)
    159a:	b591                	j	13de <main+0xce>

0000159c <I2C_Master_Transmit>:
    159c:	1101                	addi	sp,sp,-32
    159e:	cc22                	sw	s0,24(sp)
    15a0:	842a                	mv	s0,a0
    15a2:	6561                	lui	a0,0x18
    15a4:	6a050513          	addi	a0,a0,1696 # 186a0 <_data_lma+0xddec>
    15a8:	c84a                	sw	s2,16(sp)
    15aa:	c64e                	sw	s3,12(sp)
    15ac:	c452                	sw	s4,8(sp)
    15ae:	ce06                	sw	ra,28(sp)
    15b0:	ca26                	sw	s1,20(sp)
    15b2:	892e                	mv	s2,a1
    15b4:	8a32                	mv	s4,a2
    15b6:	89b6                	mv	s3,a3
    15b8:	314d                	jal	125a <IIC_Init>
    15ba:	000205b7          	lui	a1,0x20
    15be:	8522                	mv	a0,s0
    15c0:	2579                	jal	1c4e <I2C_GetFlagStatus>
    15c2:	fd65                	bnez	a0,15ba <I2C_Master_Transmit+0x1e>
    15c4:	40005537          	lui	a0,0x40005
    15c8:	4585                	li	a1,1
    15ca:	40050513          	addi	a0,a0,1024 # 40005400 <_eusrstack+0x1fffd400>
    15ce:	000304b7          	lui	s1,0x30
    15d2:	23fd                	jal	1bc0 <I2C_GenerateSTART>
    15d4:	0485                	addi	s1,s1,1
    15d6:	85a6                	mv	a1,s1
    15d8:	8522                	mv	a0,s0
    15da:	2da9                	jal	1c34 <I2C_CheckEvent>
    15dc:	dd6d                	beqz	a0,15d6 <I2C_Master_Transmit+0x3a>
    15de:	4601                	li	a2,0
    15e0:	0ff97593          	andi	a1,s2,255
    15e4:	8522                	mv	a0,s0
    15e6:	000704b7          	lui	s1,0x70
    15ea:	2d1d                	jal	1c20 <I2C_Send7bitAddress>
    15ec:	08248493          	addi	s1,s1,130 # 70082 <_data_lma+0x657ce>
    15f0:	85a6                	mv	a1,s1
    15f2:	8522                	mv	a0,s0
    15f4:	2581                	jal	1c34 <I2C_CheckEvent>
    15f6:	dd6d                	beqz	a0,15f0 <I2C_Master_Transmit+0x54>
    15f8:	10000937          	lui	s2,0x10000
    15fc:	4481                	li	s1,0
    15fe:	08090913          	addi	s2,s2,128 # 10000080 <_data_lma+0xfff57cc>
    1602:	03349463          	bne	s1,s3,162a <I2C_Master_Transmit+0x8e>
    1606:	000704b7          	lui	s1,0x70
    160a:	08448493          	addi	s1,s1,132 # 70084 <_data_lma+0x657d0>
    160e:	85a6                	mv	a1,s1
    1610:	8522                	mv	a0,s0
    1612:	250d                	jal	1c34 <I2C_CheckEvent>
    1614:	dd6d                	beqz	a0,160e <I2C_Master_Transmit+0x72>
    1616:	8522                	mv	a0,s0
    1618:	4462                	lw	s0,24(sp)
    161a:	40f2                	lw	ra,28(sp)
    161c:	44d2                	lw	s1,20(sp)
    161e:	4942                	lw	s2,16(sp)
    1620:	49b2                	lw	s3,12(sp)
    1622:	4a22                	lw	s4,8(sp)
    1624:	4585                	li	a1,1
    1626:	6105                	addi	sp,sp,32
    1628:	ab5d                	j	1bde <I2C_GenerateSTOP>
    162a:	85ca                	mv	a1,s2
    162c:	8522                	mv	a0,s0
    162e:	2505                	jal	1c4e <I2C_GetFlagStatus>
    1630:	d969                	beqz	a0,1602 <I2C_Master_Transmit+0x66>
    1632:	009a07b3          	add	a5,s4,s1
    1636:	0007c583          	lbu	a1,0(a5)
    163a:	8522                	mv	a0,s0
    163c:	0485                	addi	s1,s1,1
    163e:	2bf1                	jal	1c1a <I2C_SendData>
    1640:	b7c9                	j	1602 <I2C_Master_Transmit+0x66>

00001642 <u8x8_byte_stm32_hw_i2c>:
    1642:	15b1                	addi	a1,a1,-20
    1644:	0ff5f593          	andi	a1,a1,255
    1648:	47b1                	li	a5,12
    164a:	06b7ea63          	bltu	a5,a1,16be <u8x8_byte_stm32_hw_i2c+0x7c>
    164e:	67a9                	lui	a5,0xa
    1650:	29c78793          	addi	a5,a5,668 # a29c <u8x8_ssd1306_128x64_noname_display_info+0x18>
    1654:	058a                	slli	a1,a1,0x2
    1656:	95be                	add	a1,a1,a5
    1658:	419c                	lw	a5,0(a1)
    165a:	8782                	jr	a5
    165c:	8491c783          	lbu	a5,-1975(gp) # 20000229 <buf_idx.12145>
    1660:	4501                	li	a0,0
    1662:	963e                	add	a2,a2,a5
    1664:	0ff67613          	andi	a2,a2,255
    1668:	84918713          	addi	a4,gp,-1975 # 20000229 <buf_idx.12145>
    166c:	c5818593          	addi	a1,gp,-936 # 20000638 <buffer.12144>
    1670:	00c79763          	bne	a5,a2,167e <u8x8_byte_stm32_hw_i2c+0x3c>
    1674:	c119                	beqz	a0,167a <u8x8_byte_stm32_hw_i2c+0x38>
    1676:	00f70023          	sb	a5,0(a4)
    167a:	4505                	li	a0,1
    167c:	8082                	ret
    167e:	0006c503          	lbu	a0,0(a3)
    1682:	00178813          	addi	a6,a5,1
    1686:	97ae                	add	a5,a5,a1
    1688:	00a78023          	sb	a0,0(a5)
    168c:	0685                	addi	a3,a3,1
    168e:	4505                	li	a0,1
    1690:	0ff87793          	andi	a5,a6,255
    1694:	bff1                	j	1670 <u8x8_byte_stm32_hw_i2c+0x2e>
    1696:	840184a3          	sb	zero,-1975(gp) # 20000229 <buf_idx.12145>
    169a:	b7c5                	j	167a <u8x8_byte_stm32_hw_i2c+0x38>
    169c:	8491c683          	lbu	a3,-1975(gp) # 20000229 <buf_idx.12145>
    16a0:	40005537          	lui	a0,0x40005
    16a4:	1141                	addi	sp,sp,-16
    16a6:	c5818613          	addi	a2,gp,-936 # 20000638 <buffer.12144>
    16aa:	07800593          	li	a1,120
    16ae:	40050513          	addi	a0,a0,1024 # 40005400 <_eusrstack+0x1fffd400>
    16b2:	c606                	sw	ra,12(sp)
    16b4:	35e5                	jal	159c <I2C_Master_Transmit>
    16b6:	40b2                	lw	ra,12(sp)
    16b8:	4505                	li	a0,1
    16ba:	0141                	addi	sp,sp,16
    16bc:	8082                	ret
    16be:	4501                	li	a0,0
    16c0:	8082                	ret

000016c2 <SystemInit>:
    16c2:	400217b7          	lui	a5,0x40021
    16c6:	4398                	lw	a4,0(a5)
    16c8:	f8ff06b7          	lui	a3,0xf8ff0
    16cc:	1141                	addi	sp,sp,-16
    16ce:	00176713          	ori	a4,a4,1
    16d2:	c398                	sw	a4,0(a5)
    16d4:	43d8                	lw	a4,4(a5)
    16d6:	00020637          	lui	a2,0x20
    16da:	8f75                	and	a4,a4,a3
    16dc:	c3d8                	sw	a4,4(a5)
    16de:	4398                	lw	a4,0(a5)
    16e0:	fef706b7          	lui	a3,0xfef70
    16e4:	16fd                	addi	a3,a3,-1
    16e6:	8f75                	and	a4,a4,a3
    16e8:	c398                	sw	a4,0(a5)
    16ea:	4398                	lw	a4,0(a5)
    16ec:	fffc06b7          	lui	a3,0xfffc0
    16f0:	16fd                	addi	a3,a3,-1
    16f2:	8f75                	and	a4,a4,a3
    16f4:	c398                	sw	a4,0(a5)
    16f6:	43d8                	lw	a4,4(a5)
    16f8:	ff8106b7          	lui	a3,0xff810
    16fc:	16fd                	addi	a3,a3,-1
    16fe:	8f75                	and	a4,a4,a3
    1700:	c3d8                	sw	a4,4(a5)
    1702:	4398                	lw	a4,0(a5)
    1704:	ec0006b7          	lui	a3,0xec000
    1708:	16fd                	addi	a3,a3,-1
    170a:	8f75                	and	a4,a4,a3
    170c:	c398                	sw	a4,0(a5)
    170e:	00ff0737          	lui	a4,0xff0
    1712:	c798                	sw	a4,8(a5)
    1714:	0207a623          	sw	zero,44(a5) # 4002102c <_eusrstack+0x2001902c>
    1718:	c402                	sw	zero,8(sp)
    171a:	c602                	sw	zero,12(sp)
    171c:	4398                	lw	a4,0(a5)
    171e:	66c1                	lui	a3,0x10
    1720:	8f55                	or	a4,a4,a3
    1722:	c398                	sw	a4,0(a5)
    1724:	400216b7          	lui	a3,0x40021
    1728:	6705                	lui	a4,0x1
    172a:	429c                	lw	a5,0(a3)
    172c:	8ff1                	and	a5,a5,a2
    172e:	c63e                	sw	a5,12(sp)
    1730:	47a2                	lw	a5,8(sp)
    1732:	0785                	addi	a5,a5,1
    1734:	c43e                	sw	a5,8(sp)
    1736:	47b2                	lw	a5,12(sp)
    1738:	e781                	bnez	a5,1740 <SystemInit+0x7e>
    173a:	47a2                	lw	a5,8(sp)
    173c:	fee797e3          	bne	a5,a4,172a <SystemInit+0x68>
    1740:	400217b7          	lui	a5,0x40021
    1744:	439c                	lw	a5,0(a5)
    1746:	00e79713          	slli	a4,a5,0xe
    174a:	06075763          	bgez	a4,17b8 <SystemInit+0xf6>
    174e:	4785                	li	a5,1
    1750:	c63e                	sw	a5,12(sp)
    1752:	4732                	lw	a4,12(sp)
    1754:	4785                	li	a5,1
    1756:	04f71f63          	bne	a4,a5,17b4 <SystemInit+0xf2>
    175a:	400217b7          	lui	a5,0x40021
    175e:	43d8                	lw	a4,4(a5)
    1760:	ffc106b7          	lui	a3,0xffc10
    1764:	16fd                	addi	a3,a3,-1
    1766:	c3d8                	sw	a4,4(a5)
    1768:	43d8                	lw	a4,4(a5)
    176a:	c3d8                	sw	a4,4(a5)
    176c:	43d8                	lw	a4,4(a5)
    176e:	40076713          	ori	a4,a4,1024
    1772:	c3d8                	sw	a4,4(a5)
    1774:	43d8                	lw	a4,4(a5)
    1776:	8f75                	and	a4,a4,a3
    1778:	c3d8                	sw	a4,4(a5)
    177a:	43d8                	lw	a4,4(a5)
    177c:	001106b7          	lui	a3,0x110
    1780:	8f55                	or	a4,a4,a3
    1782:	c3d8                	sw	a4,4(a5)
    1784:	4398                	lw	a4,0(a5)
    1786:	010006b7          	lui	a3,0x1000
    178a:	8f55                	or	a4,a4,a3
    178c:	c398                	sw	a4,0(a5)
    178e:	4398                	lw	a4,0(a5)
    1790:	00671693          	slli	a3,a4,0x6
    1794:	fe06dde3          	bgez	a3,178e <SystemInit+0xcc>
    1798:	43d8                	lw	a4,4(a5)
    179a:	400216b7          	lui	a3,0x40021
    179e:	9b71                	andi	a4,a4,-4
    17a0:	c3d8                	sw	a4,4(a5)
    17a2:	43d8                	lw	a4,4(a5)
    17a4:	00276713          	ori	a4,a4,2
    17a8:	c3d8                	sw	a4,4(a5)
    17aa:	4721                	li	a4,8
    17ac:	42dc                	lw	a5,4(a3)
    17ae:	8bb1                	andi	a5,a5,12
    17b0:	fee79ee3          	bne	a5,a4,17ac <SystemInit+0xea>
    17b4:	0141                	addi	sp,sp,16
    17b6:	8082                	ret
    17b8:	c602                	sw	zero,12(sp)
    17ba:	bf61                	j	1752 <SystemInit+0x90>
    17bc:	a001                	j	17bc <SystemInit+0xfa>
    17be:	a001                	j	17be <SystemInit+0xfc>

000017c0 <Ecall_M_Mode_Handler>:
    17c0:	a001                	j	17c0 <Ecall_M_Mode_Handler>

000017c2 <Ecall_U_Mode_Handler>:
    17c2:	a001                	j	17c2 <Ecall_U_Mode_Handler>

000017c4 <Break_Point_Handler>:
    17c4:	a001                	j	17c4 <Break_Point_Handler>

000017c6 <SysTick_Handler>:
    17c6:	a001                	j	17c6 <SysTick_Handler>

000017c8 <SW_Handler>:
    17c8:	a001                	j	17c8 <SW_Handler>

000017ca <WWDG_IRQHandler>:
    17ca:	a001                	j	17ca <WWDG_IRQHandler>

000017cc <PVD_IRQHandler>:
    17cc:	a001                	j	17cc <PVD_IRQHandler>

000017ce <TAMPER_IRQHandler>:
    17ce:	a001                	j	17ce <TAMPER_IRQHandler>

000017d0 <RTC_IRQHandler>:
    17d0:	a001                	j	17d0 <RTC_IRQHandler>

000017d2 <FLASH_IRQHandler>:
    17d2:	a001                	j	17d2 <FLASH_IRQHandler>

000017d4 <RCC_IRQHandler>:
    17d4:	a001                	j	17d4 <RCC_IRQHandler>

000017d6 <EXTI0_IRQHandler>:
    17d6:	a001                	j	17d6 <EXTI0_IRQHandler>

000017d8 <EXTI1_IRQHandler>:
    17d8:	a001                	j	17d8 <EXTI1_IRQHandler>

000017da <EXTI2_IRQHandler>:
    17da:	a001                	j	17da <EXTI2_IRQHandler>

000017dc <EXTI3_IRQHandler>:
    17dc:	a001                	j	17dc <EXTI3_IRQHandler>

000017de <EXTI4_IRQHandler>:
    17de:	a001                	j	17de <EXTI4_IRQHandler>

000017e0 <DMA1_Channel1_IRQHandler>:
    17e0:	a001                	j	17e0 <DMA1_Channel1_IRQHandler>

000017e2 <DMA1_Channel2_IRQHandler>:
    17e2:	a001                	j	17e2 <DMA1_Channel2_IRQHandler>

000017e4 <DMA1_Channel3_IRQHandler>:
    17e4:	a001                	j	17e4 <DMA1_Channel3_IRQHandler>

000017e6 <DMA1_Channel4_IRQHandler>:
    17e6:	a001                	j	17e6 <DMA1_Channel4_IRQHandler>

000017e8 <DMA1_Channel5_IRQHandler>:
    17e8:	a001                	j	17e8 <DMA1_Channel5_IRQHandler>

000017ea <DMA1_Channel6_IRQHandler>:
    17ea:	a001                	j	17ea <DMA1_Channel6_IRQHandler>

000017ec <DMA1_Channel7_IRQHandler>:
    17ec:	a001                	j	17ec <DMA1_Channel7_IRQHandler>

000017ee <ADC1_2_IRQHandler>:
    17ee:	a001                	j	17ee <ADC1_2_IRQHandler>

000017f0 <USB_HP_CAN1_TX_IRQHandler>:
    17f0:	a001                	j	17f0 <USB_HP_CAN1_TX_IRQHandler>

000017f2 <USB_LP_CAN1_RX0_IRQHandler>:
    17f2:	a001                	j	17f2 <USB_LP_CAN1_RX0_IRQHandler>

000017f4 <CAN1_RX1_IRQHandler>:
    17f4:	a001                	j	17f4 <CAN1_RX1_IRQHandler>

000017f6 <CAN1_SCE_IRQHandler>:
    17f6:	a001                	j	17f6 <CAN1_SCE_IRQHandler>

000017f8 <EXTI9_5_IRQHandler>:
    17f8:	a001                	j	17f8 <EXTI9_5_IRQHandler>

000017fa <TIM1_BRK_IRQHandler>:
    17fa:	a001                	j	17fa <TIM1_BRK_IRQHandler>

000017fc <TIM1_UP_IRQHandler>:
    17fc:	a001                	j	17fc <TIM1_UP_IRQHandler>

000017fe <TIM1_TRG_COM_IRQHandler>:
    17fe:	a001                	j	17fe <TIM1_TRG_COM_IRQHandler>

00001800 <TIM1_CC_IRQHandler>:
    1800:	a001                	j	1800 <TIM1_CC_IRQHandler>

00001802 <TIM2_IRQHandler>:
    1802:	a001                	j	1802 <TIM2_IRQHandler>

00001804 <TIM3_IRQHandler>:
    1804:	a001                	j	1804 <TIM3_IRQHandler>

00001806 <TIM4_IRQHandler>:
    1806:	a001                	j	1806 <TIM4_IRQHandler>

00001808 <I2C1_EV_IRQHandler>:
    1808:	a001                	j	1808 <I2C1_EV_IRQHandler>

0000180a <I2C1_ER_IRQHandler>:
    180a:	a001                	j	180a <I2C1_ER_IRQHandler>

0000180c <I2C2_EV_IRQHandler>:
    180c:	a001                	j	180c <I2C2_EV_IRQHandler>

0000180e <I2C2_ER_IRQHandler>:
    180e:	a001                	j	180e <I2C2_ER_IRQHandler>

00001810 <SPI1_IRQHandler>:
    1810:	a001                	j	1810 <SPI1_IRQHandler>

00001812 <SPI2_IRQHandler>:
    1812:	a001                	j	1812 <SPI2_IRQHandler>

00001814 <USART1_IRQHandler>:
    1814:	a001                	j	1814 <USART1_IRQHandler>

00001816 <USART2_IRQHandler>:
    1816:	a001                	j	1816 <USART2_IRQHandler>

00001818 <USART3_IRQHandler>:
    1818:	a001                	j	1818 <USART3_IRQHandler>

0000181a <EXTI15_10_IRQHandler>:
    181a:	a001                	j	181a <EXTI15_10_IRQHandler>

0000181c <RTCAlarm_IRQHandler>:
    181c:	a001                	j	181c <RTCAlarm_IRQHandler>

0000181e <USBWakeUp_IRQHandler>:
    181e:	a001                	j	181e <USBWakeUp_IRQHandler>

00001820 <TIM8_BRK_IRQHandler>:
    1820:	a001                	j	1820 <TIM8_BRK_IRQHandler>

00001822 <TIM8_UP_IRQHandler>:
    1822:	a001                	j	1822 <TIM8_UP_IRQHandler>

00001824 <TIM8_TRG_COM_IRQHandler>:
    1824:	a001                	j	1824 <TIM8_TRG_COM_IRQHandler>

00001826 <TIM8_CC_IRQHandler>:
    1826:	a001                	j	1826 <TIM8_CC_IRQHandler>

00001828 <RNG_IRQHandler>:
    1828:	a001                	j	1828 <RNG_IRQHandler>

0000182a <FSMC_IRQHandler>:
    182a:	a001                	j	182a <FSMC_IRQHandler>

0000182c <SDIO_IRQHandler>:
    182c:	a001                	j	182c <SDIO_IRQHandler>

0000182e <TIM5_IRQHandler>:
    182e:	a001                	j	182e <TIM5_IRQHandler>

00001830 <SPI3_IRQHandler>:
    1830:	a001                	j	1830 <SPI3_IRQHandler>

00001832 <UART4_IRQHandler>:
    1832:	a001                	j	1832 <UART4_IRQHandler>

00001834 <UART5_IRQHandler>:
    1834:	a001                	j	1834 <UART5_IRQHandler>

00001836 <TIM6_IRQHandler>:
    1836:	a001                	j	1836 <TIM6_IRQHandler>

00001838 <TIM7_IRQHandler>:
    1838:	a001                	j	1838 <TIM7_IRQHandler>

0000183a <DMA2_Channel1_IRQHandler>:
    183a:	a001                	j	183a <DMA2_Channel1_IRQHandler>

0000183c <DMA2_Channel2_IRQHandler>:
    183c:	a001                	j	183c <DMA2_Channel2_IRQHandler>

0000183e <DMA2_Channel3_IRQHandler>:
    183e:	a001                	j	183e <DMA2_Channel3_IRQHandler>

00001840 <DMA2_Channel4_IRQHandler>:
    1840:	a001                	j	1840 <DMA2_Channel4_IRQHandler>

00001842 <DMA2_Channel5_IRQHandler>:
    1842:	a001                	j	1842 <DMA2_Channel5_IRQHandler>

00001844 <ETH_IRQHandler>:
    1844:	a001                	j	1844 <ETH_IRQHandler>

00001846 <ETH_WKUP_IRQHandler>:
    1846:	a001                	j	1846 <ETH_WKUP_IRQHandler>

00001848 <CAN2_TX_IRQHandler>:
    1848:	a001                	j	1848 <CAN2_TX_IRQHandler>

0000184a <CAN2_RX0_IRQHandler>:
    184a:	a001                	j	184a <CAN2_RX0_IRQHandler>

0000184c <CAN2_RX1_IRQHandler>:
    184c:	a001                	j	184c <CAN2_RX1_IRQHandler>

0000184e <CAN2_SCE_IRQHandler>:
    184e:	a001                	j	184e <CAN2_SCE_IRQHandler>

00001850 <OTG_FS_IRQHandler>:
    1850:	a001                	j	1850 <OTG_FS_IRQHandler>

00001852 <USBHSWakeup_IRQHandler>:
    1852:	a001                	j	1852 <USBHSWakeup_IRQHandler>

00001854 <USBHS_IRQHandler>:
    1854:	a001                	j	1854 <USBHS_IRQHandler>

00001856 <DVP_IRQHandler>:
    1856:	a001                	j	1856 <DVP_IRQHandler>

00001858 <UART6_IRQHandler>:
    1858:	a001                	j	1858 <UART6_IRQHandler>

0000185a <UART7_IRQHandler>:
    185a:	a001                	j	185a <UART7_IRQHandler>

0000185c <UART8_IRQHandler>:
    185c:	a001                	j	185c <UART8_IRQHandler>

0000185e <TIM9_BRK_IRQHandler>:
    185e:	a001                	j	185e <TIM9_BRK_IRQHandler>

00001860 <TIM9_UP_IRQHandler>:
    1860:	a001                	j	1860 <TIM9_UP_IRQHandler>

00001862 <TIM9_TRG_COM_IRQHandler>:
    1862:	a001                	j	1862 <TIM9_TRG_COM_IRQHandler>

00001864 <TIM9_CC_IRQHandler>:
    1864:	a001                	j	1864 <TIM9_CC_IRQHandler>

00001866 <TIM10_BRK_IRQHandler>:
    1866:	a001                	j	1866 <TIM10_BRK_IRQHandler>

00001868 <TIM10_UP_IRQHandler>:
    1868:	a001                	j	1868 <TIM10_UP_IRQHandler>

0000186a <TIM10_TRG_COM_IRQHandler>:
    186a:	a001                	j	186a <TIM10_TRG_COM_IRQHandler>

0000186c <TIM10_CC_IRQHandler>:
    186c:	a001                	j	186c <TIM10_CC_IRQHandler>

0000186e <DMA2_Channel6_IRQHandler>:
    186e:	a001                	j	186e <DMA2_Channel6_IRQHandler>

00001870 <DMA2_Channel7_IRQHandler>:
    1870:	a001                	j	1870 <DMA2_Channel7_IRQHandler>

00001872 <DMA2_Channel8_IRQHandler>:
    1872:	a001                	j	1872 <DMA2_Channel8_IRQHandler>

00001874 <DMA2_Channel9_IRQHandler>:
    1874:	a001                	j	1874 <DMA2_Channel9_IRQHandler>

00001876 <DMA2_Channel10_IRQHandler>:
    1876:	a001                	j	1876 <DMA2_Channel10_IRQHandler>

00001878 <DMA2_Channel11_IRQHandler>:
    1878:	a001                	j	1878 <DMA2_Channel11_IRQHandler>

0000187a <handle_reset>:
    187a:	1ffff197          	auipc	gp,0x1ffff
    187e:	16618193          	addi	gp,gp,358 # 200009e0 <__global_pointer$>
    1882:	20006117          	auipc	sp,0x20006
    1886:	77e10113          	addi	sp,sp,1918 # 20008000 <_eusrstack>
    188a:	00009517          	auipc	a0,0x9
    188e:	02a50513          	addi	a0,a0,42 # a8b4 <_data_lma>
    1892:	1fffe597          	auipc	a1,0x1fffe
    1896:	76e58593          	addi	a1,a1,1902 # 20000000 <_data_vma>
    189a:	84818613          	addi	a2,gp,-1976 # 20000228 <_edata>
    189e:	00c5fa63          	bgeu	a1,a2,18b2 <handle_reset+0x38>
    18a2:	00052283          	lw	t0,0(a0)
    18a6:	0055a023          	sw	t0,0(a1)
    18aa:	0511                	addi	a0,a0,4
    18ac:	0591                	addi	a1,a1,4
    18ae:	fec5eae3          	bltu	a1,a2,18a2 <handle_reset+0x28>
    18b2:	84818513          	addi	a0,gp,-1976 # 20000228 <_edata>
    18b6:	d4418593          	addi	a1,gp,-700 # 20000724 <_ebss>
    18ba:	00b57763          	bgeu	a0,a1,18c8 <handle_reset+0x4e>
    18be:	00052023          	sw	zero,0(a0)
    18c2:	0511                	addi	a0,a0,4
    18c4:	feb56de3          	bltu	a0,a1,18be <handle_reset+0x44>
    18c8:	42fd                	li	t0,31
    18ca:	bc029073          	csrw	0xbc0,t0
    18ce:	42ed                	li	t0,27
    18d0:	80429073          	csrw	0x804,t0
    18d4:	000062b7          	lui	t0,0x6
    18d8:	08828293          	addi	t0,t0,136 # 6088 <__pow5mult+0xa6>
    18dc:	3002a073          	csrs	mstatus,t0
    18e0:	ffffe297          	auipc	t0,0xffffe
    18e4:	75828293          	addi	t0,t0,1880 # 38 <_einit>
    18e8:	0032e293          	ori	t0,t0,3
    18ec:	30529073          	csrw	mtvec,t0
    18f0:	dd3ff0ef          	jal	ra,16c2 <SystemInit>
    18f4:	00000297          	auipc	t0,0x0
    18f8:	a1c28293          	addi	t0,t0,-1508 # 1310 <main>
    18fc:	34129073          	csrw	mepc,t0
    1900:	30200073          	mret

00001904 <GPIO_Init>:
    1904:	459c                	lw	a5,8(a1)
    1906:	0107f713          	andi	a4,a5,16
    190a:	00f7f813          	andi	a6,a5,15
    190e:	c701                	beqz	a4,1916 <GPIO_Init+0x12>
    1910:	41d8                	lw	a4,4(a1)
    1912:	00e86833          	or	a6,a6,a4
    1916:	0005d583          	lhu	a1,0(a1)
    191a:	0ff5f713          	andi	a4,a1,255
    191e:	c339                	beqz	a4,1964 <GPIO_Init+0x60>
    1920:	4118                	lw	a4,0(a0)
    1922:	4681                	li	a3,0
    1924:	4e85                	li	t4,1
    1926:	4f3d                	li	t5,15
    1928:	02800f93          	li	t6,40
    192c:	04800293          	li	t0,72
    1930:	4e21                	li	t3,8
    1932:	00de9633          	sll	a2,t4,a3
    1936:	00c5f8b3          	and	a7,a1,a2
    193a:	03161163          	bne	a2,a7,195c <GPIO_Init+0x58>
    193e:	00269893          	slli	a7,a3,0x2
    1942:	011f1333          	sll	t1,t5,a7
    1946:	fff34313          	not	t1,t1
    194a:	00e37733          	and	a4,t1,a4
    194e:	011818b3          	sll	a7,a6,a7
    1952:	00e8e733          	or	a4,a7,a4
    1956:	05f79f63          	bne	a5,t6,19b4 <GPIO_Init+0xb0>
    195a:	c950                	sw	a2,20(a0)
    195c:	0685                	addi	a3,a3,1
    195e:	fdc69ae3          	bne	a3,t3,1932 <GPIO_Init+0x2e>
    1962:	c118                	sw	a4,0(a0)
    1964:	0ff00713          	li	a4,255
    1968:	04b77563          	bgeu	a4,a1,19b2 <GPIO_Init+0xae>
    196c:	4154                	lw	a3,4(a0)
    196e:	4621                	li	a2,8
    1970:	4e85                	li	t4,1
    1972:	4f3d                	li	t5,15
    1974:	02800f93          	li	t6,40
    1978:	04800293          	li	t0,72
    197c:	4e41                	li	t3,16
    197e:	00ce98b3          	sll	a7,t4,a2
    1982:	0115f733          	and	a4,a1,a7
    1986:	02e89263          	bne	a7,a4,19aa <GPIO_Init+0xa6>
    198a:	00261713          	slli	a4,a2,0x2
    198e:	1701                	addi	a4,a4,-32
    1990:	00ef1333          	sll	t1,t5,a4
    1994:	fff34313          	not	t1,t1
    1998:	00d376b3          	and	a3,t1,a3
    199c:	00e81733          	sll	a4,a6,a4
    19a0:	8ed9                	or	a3,a3,a4
    19a2:	01f79d63          	bne	a5,t6,19bc <GPIO_Init+0xb8>
    19a6:	01152a23          	sw	a7,20(a0)
    19aa:	0605                	addi	a2,a2,1
    19ac:	fdc619e3          	bne	a2,t3,197e <GPIO_Init+0x7a>
    19b0:	c154                	sw	a3,4(a0)
    19b2:	8082                	ret
    19b4:	fa5794e3          	bne	a5,t0,195c <GPIO_Init+0x58>
    19b8:	c910                	sw	a2,16(a0)
    19ba:	b74d                	j	195c <GPIO_Init+0x58>
    19bc:	fe5797e3          	bne	a5,t0,19aa <GPIO_Init+0xa6>
    19c0:	01152823          	sw	a7,16(a0)
    19c4:	b7dd                	j	19aa <GPIO_Init+0xa6>

000019c6 <GPIO_PinRemapConfig>:
    19c6:	400107b7          	lui	a5,0x40010
    19ca:	04055763          	bgez	a0,1a18 <GPIO_PinRemapConfig+0x52>
    19ce:	4fdc                	lw	a5,28(a5)
    19d0:	01055713          	srli	a4,a0,0x10
    19d4:	00f77693          	andi	a3,a4,15
    19d8:	01051613          	slli	a2,a0,0x10
    19dc:	00300737          	lui	a4,0x300
    19e0:	8241                	srli	a2,a2,0x10
    19e2:	00e57833          	and	a6,a0,a4
    19e6:	04055c63          	bgez	a0,1a3e <GPIO_PinRemapConfig+0x78>
    19ea:	02e81963          	bne	a6,a4,1a1c <GPIO_PinRemapConfig+0x56>
    19ee:	01068713          	addi	a4,a3,16 # 40021010 <_eusrstack+0x20019010>
    19f2:	468d                	li	a3,3
    19f4:	00e696b3          	sll	a3,a3,a4
    19f8:	fff6c693          	not	a3,a3
    19fc:	8ff5                	and	a5,a5,a3
    19fe:	c989                	beqz	a1,1a10 <GPIO_PinRemapConfig+0x4a>
    1a00:	01555713          	srli	a4,a0,0x15
    1a04:	0712                	slli	a4,a4,0x4
    1a06:	00e61733          	sll	a4,a2,a4
    1a0a:	8fd9                	or	a5,a5,a4
    1a0c:	04055763          	bgez	a0,1a5a <GPIO_PinRemapConfig+0x94>
    1a10:	40010737          	lui	a4,0x40010
    1a14:	cf5c                	sw	a5,28(a4)
    1a16:	8082                	ret
    1a18:	43dc                	lw	a5,4(a5)
    1a1a:	bf5d                	j	19d0 <GPIO_PinRemapConfig+0xa>
    1a1c:	00b51713          	slli	a4,a0,0xb
    1a20:	00075663          	bgez	a4,1a2c <GPIO_PinRemapConfig+0x66>
    1a24:	470d                	li	a4,3
    1a26:	00d716b3          	sll	a3,a4,a3
    1a2a:	b7f9                	j	19f8 <GPIO_PinRemapConfig+0x32>
    1a2c:	01555713          	srli	a4,a0,0x15
    1a30:	0712                	slli	a4,a4,0x4
    1a32:	00e61733          	sll	a4,a2,a4
    1a36:	fff74713          	not	a4,a4
    1a3a:	8ff9                	and	a5,a5,a4
    1a3c:	b7c9                	j	19fe <GPIO_PinRemapConfig+0x38>
    1a3e:	02e81263          	bne	a6,a4,1a62 <GPIO_PinRemapConfig+0x9c>
    1a42:	40010837          	lui	a6,0x40010
    1a46:	00482683          	lw	a3,4(a6) # 40010004 <_eusrstack+0x20008004>
    1a4a:	f1000737          	lui	a4,0xf1000
    1a4e:	177d                	addi	a4,a4,-1
    1a50:	8ff9                	and	a5,a5,a4
    1a52:	8f75                	and	a4,a4,a3
    1a54:	00e82223          	sw	a4,4(a6)
    1a58:	f5c5                	bnez	a1,1a00 <GPIO_PinRemapConfig+0x3a>
    1a5a:	40010737          	lui	a4,0x40010
    1a5e:	c35c                	sw	a5,4(a4)
    1a60:	8082                	ret
    1a62:	00b51713          	slli	a4,a0,0xb
    1a66:	00075c63          	bgez	a4,1a7e <GPIO_PinRemapConfig+0xb8>
    1a6a:	470d                	li	a4,3
    1a6c:	00d71733          	sll	a4,a4,a3
    1a70:	fff74713          	not	a4,a4
    1a74:	8f7d                	and	a4,a4,a5
    1a76:	0f0007b7          	lui	a5,0xf000
    1a7a:	8fd9                	or	a5,a5,a4
    1a7c:	bff1                	j	1a58 <GPIO_PinRemapConfig+0x92>
    1a7e:	01555713          	srli	a4,a0,0x15
    1a82:	0712                	slli	a4,a4,0x4
    1a84:	00e61733          	sll	a4,a2,a4
    1a88:	b7e5                	j	1a70 <GPIO_PinRemapConfig+0xaa>

00001a8a <I2C_Init>:
    1a8a:	7139                	addi	sp,sp,-64
    1a8c:	dc22                	sw	s0,56(sp)
    1a8e:	da26                	sw	s1,52(sp)
    1a90:	842a                	mv	s0,a0
    1a92:	00455483          	lhu	s1,4(a0)
    1a96:	0868                	addi	a0,sp,28
    1a98:	c62e                	sw	a1,12(sp)
    1a9a:	de06                	sw	ra,60(sp)
    1a9c:	22d5                	jal	1c80 <RCC_GetClocksFreq>
    1a9e:	5792                	lw	a5,36(sp)
    1aa0:	000f4737          	lui	a4,0xf4
    1aa4:	24070713          	addi	a4,a4,576 # f4240 <_data_lma+0xe998c>
    1aa8:	02e7d733          	divu	a4,a5,a4
    1aac:	04c2                	slli	s1,s1,0x10
    1aae:	80c1                	srli	s1,s1,0x10
    1ab0:	fc04f493          	andi	s1,s1,-64
    1ab4:	04c2                	slli	s1,s1,0x10
    1ab6:	80c1                	srli	s1,s1,0x10
    1ab8:	45b2                	lw	a1,12(sp)
    1aba:	6561                	lui	a0,0x18
    1abc:	6a050513          	addi	a0,a0,1696 # 186a0 <_data_lma+0xddec>
    1ac0:	01071613          	slli	a2,a4,0x10
    1ac4:	8241                	srli	a2,a2,0x10
    1ac6:	8cd1                	or	s1,s1,a2
    1ac8:	00941223          	sh	s1,4(s0)
    1acc:	00045683          	lhu	a3,0(s0)
    1ad0:	06c2                	slli	a3,a3,0x10
    1ad2:	82c1                	srli	a3,a3,0x10
    1ad4:	9af9                	andi	a3,a3,-2
    1ad6:	06c2                	slli	a3,a3,0x10
    1ad8:	82c1                	srli	a3,a3,0x10
    1ada:	00d41023          	sh	a3,0(s0)
    1ade:	4194                	lw	a3,0(a1)
    1ae0:	06d56663          	bltu	a0,a3,1b4c <I2C_Init+0xc2>
    1ae4:	0686                	slli	a3,a3,0x1
    1ae6:	02d7d7b3          	divu	a5,a5,a3
    1aea:	4691                	li	a3,4
    1aec:	01079713          	slli	a4,a5,0x10
    1af0:	8341                	srli	a4,a4,0x10
    1af2:	87ba                	mv	a5,a4
    1af4:	00d77363          	bgeu	a4,a3,1afa <I2C_Init+0x70>
    1af8:	4791                	li	a5,4
    1afa:	0605                	addi	a2,a2,1
    1afc:	0642                	slli	a2,a2,0x10
    1afe:	07c2                	slli	a5,a5,0x10
    1b00:	8241                	srli	a2,a2,0x10
    1b02:	83c1                	srli	a5,a5,0x10
    1b04:	02c41023          	sh	a2,32(s0)
    1b08:	00f41e23          	sh	a5,28(s0)
    1b0c:	00045783          	lhu	a5,0(s0)
    1b10:	0045d703          	lhu	a4,4(a1)
    1b14:	00a5d683          	lhu	a3,10(a1)
    1b18:	0017e793          	ori	a5,a5,1
    1b1c:	00f41023          	sh	a5,0(s0)
    1b20:	00045783          	lhu	a5,0(s0)
    1b24:	8f55                	or	a4,a4,a3
    1b26:	50f2                	lw	ra,60(sp)
    1b28:	07c2                	slli	a5,a5,0x10
    1b2a:	83c1                	srli	a5,a5,0x10
    1b2c:	bf57f793          	andi	a5,a5,-1035
    1b30:	8fd9                	or	a5,a5,a4
    1b32:	00f41023          	sh	a5,0(s0)
    1b36:	0085d703          	lhu	a4,8(a1)
    1b3a:	00c5d783          	lhu	a5,12(a1)
    1b3e:	54d2                	lw	s1,52(sp)
    1b40:	8fd9                	or	a5,a5,a4
    1b42:	00f41423          	sh	a5,8(s0)
    1b46:	5462                	lw	s0,56(sp)
    1b48:	6121                	addi	sp,sp,64
    1b4a:	8082                	ret
    1b4c:	0065d503          	lhu	a0,6(a1)
    1b50:	6631                	lui	a2,0xc
    1b52:	167d                	addi	a2,a2,-1
    1b54:	02c51e63          	bne	a0,a2,1b90 <I2C_Init+0x106>
    1b58:	460d                	li	a2,3
    1b5a:	02c686b3          	mul	a3,a3,a2
    1b5e:	02d7d7b3          	divu	a5,a5,a3
    1b62:	07c2                	slli	a5,a5,0x10
    1b64:	83c1                	srli	a5,a5,0x10
    1b66:	01479693          	slli	a3,a5,0x14
    1b6a:	e299                	bnez	a3,1b70 <I2C_Init+0xe6>
    1b6c:	0017e793          	ori	a5,a5,1
    1b70:	66a1                	lui	a3,0x8
    1b72:	8fd5                	or	a5,a5,a3
    1b74:	12c00693          	li	a3,300
    1b78:	02d70733          	mul	a4,a4,a3
    1b7c:	3e800693          	li	a3,1000
    1b80:	02d74733          	div	a4,a4,a3
    1b84:	0705                	addi	a4,a4,1
    1b86:	0742                	slli	a4,a4,0x10
    1b88:	8341                	srli	a4,a4,0x10
    1b8a:	02e41023          	sh	a4,32(s0)
    1b8e:	bfad                	j	1b08 <I2C_Init+0x7e>
    1b90:	4665                	li	a2,25
    1b92:	02c686b3          	mul	a3,a3,a2
    1b96:	02d7d7b3          	divu	a5,a5,a3
    1b9a:	6691                	lui	a3,0x4
    1b9c:	07c2                	slli	a5,a5,0x10
    1b9e:	83c1                	srli	a5,a5,0x10
    1ba0:	8fd5                	or	a5,a5,a3
    1ba2:	b7d1                	j	1b66 <I2C_Init+0xdc>

00001ba4 <I2C_Cmd>:
    1ba4:	00055783          	lhu	a5,0(a0)
    1ba8:	c591                	beqz	a1,1bb4 <I2C_Cmd+0x10>
    1baa:	0017e793          	ori	a5,a5,1
    1bae:	00f51023          	sh	a5,0(a0)
    1bb2:	8082                	ret
    1bb4:	07c2                	slli	a5,a5,0x10
    1bb6:	83c1                	srli	a5,a5,0x10
    1bb8:	9bf9                	andi	a5,a5,-2
    1bba:	07c2                	slli	a5,a5,0x10
    1bbc:	83c1                	srli	a5,a5,0x10
    1bbe:	bfc5                	j	1bae <I2C_Cmd+0xa>

00001bc0 <I2C_GenerateSTART>:
    1bc0:	00055783          	lhu	a5,0(a0)
    1bc4:	c591                	beqz	a1,1bd0 <I2C_GenerateSTART+0x10>
    1bc6:	1007e793          	ori	a5,a5,256
    1bca:	00f51023          	sh	a5,0(a0)
    1bce:	8082                	ret
    1bd0:	07c2                	slli	a5,a5,0x10
    1bd2:	83c1                	srli	a5,a5,0x10
    1bd4:	eff7f793          	andi	a5,a5,-257
    1bd8:	07c2                	slli	a5,a5,0x10
    1bda:	83c1                	srli	a5,a5,0x10
    1bdc:	b7fd                	j	1bca <I2C_GenerateSTART+0xa>

00001bde <I2C_GenerateSTOP>:
    1bde:	00055783          	lhu	a5,0(a0)
    1be2:	c591                	beqz	a1,1bee <I2C_GenerateSTOP+0x10>
    1be4:	2007e793          	ori	a5,a5,512
    1be8:	00f51023          	sh	a5,0(a0)
    1bec:	8082                	ret
    1bee:	07c2                	slli	a5,a5,0x10
    1bf0:	83c1                	srli	a5,a5,0x10
    1bf2:	dff7f793          	andi	a5,a5,-513
    1bf6:	07c2                	slli	a5,a5,0x10
    1bf8:	83c1                	srli	a5,a5,0x10
    1bfa:	b7fd                	j	1be8 <I2C_GenerateSTOP+0xa>

00001bfc <I2C_AcknowledgeConfig>:
    1bfc:	00055783          	lhu	a5,0(a0)
    1c00:	c591                	beqz	a1,1c0c <I2C_AcknowledgeConfig+0x10>
    1c02:	4007e793          	ori	a5,a5,1024
    1c06:	00f51023          	sh	a5,0(a0)
    1c0a:	8082                	ret
    1c0c:	07c2                	slli	a5,a5,0x10
    1c0e:	83c1                	srli	a5,a5,0x10
    1c10:	bff7f793          	andi	a5,a5,-1025
    1c14:	07c2                	slli	a5,a5,0x10
    1c16:	83c1                	srli	a5,a5,0x10
    1c18:	b7fd                	j	1c06 <I2C_AcknowledgeConfig+0xa>

00001c1a <I2C_SendData>:
    1c1a:	00b51823          	sh	a1,16(a0)
    1c1e:	8082                	ret

00001c20 <I2C_Send7bitAddress>:
    1c20:	0fe5f793          	andi	a5,a1,254
    1c24:	c219                	beqz	a2,1c2a <I2C_Send7bitAddress+0xa>
    1c26:	0015e793          	ori	a5,a1,1
    1c2a:	07c2                	slli	a5,a5,0x10
    1c2c:	83c1                	srli	a5,a5,0x10
    1c2e:	00f51823          	sh	a5,16(a0)
    1c32:	8082                	ret

00001c34 <I2C_CheckEvent>:
    1c34:	01455783          	lhu	a5,20(a0)
    1c38:	01855503          	lhu	a0,24(a0)
    1c3c:	0542                	slli	a0,a0,0x10
    1c3e:	8d5d                	or	a0,a0,a5
    1c40:	8d6d                	and	a0,a0,a1
    1c42:	0522                	slli	a0,a0,0x8
    1c44:	8121                	srli	a0,a0,0x8
    1c46:	8d0d                	sub	a0,a0,a1
    1c48:	00153513          	seqz	a0,a0
    1c4c:	8082                	ret

00001c4e <I2C_GetFlagStatus>:
    1c4e:	1141                	addi	sp,sp,-16
    1c50:	c402                	sw	zero,8(sp)
    1c52:	c602                	sw	zero,12(sp)
    1c54:	01c5d793          	srli	a5,a1,0x1c
    1c58:	c62a                	sw	a0,12(sp)
    1c5a:	c43e                	sw	a5,8(sp)
    1c5c:	47a2                	lw	a5,8(sp)
    1c5e:	05a2                	slli	a1,a1,0x8
    1c60:	81a1                	srli	a1,a1,0x8
    1c62:	cb99                	beqz	a5,1c78 <I2C_GetFlagStatus+0x2a>
    1c64:	47b2                	lw	a5,12(sp)
    1c66:	07d1                	addi	a5,a5,20
    1c68:	c63e                	sw	a5,12(sp)
    1c6a:	47b2                	lw	a5,12(sp)
    1c6c:	4388                	lw	a0,0(a5)
    1c6e:	0141                	addi	sp,sp,16
    1c70:	8d6d                	and	a0,a0,a1
    1c72:	00a03533          	snez	a0,a0
    1c76:	8082                	ret
    1c78:	47b2                	lw	a5,12(sp)
    1c7a:	81c1                	srli	a1,a1,0x10
    1c7c:	07e1                	addi	a5,a5,24
    1c7e:	b7ed                	j	1c68 <I2C_GetFlagStatus+0x1a>

00001c80 <RCC_GetClocksFreq>:
    1c80:	40021737          	lui	a4,0x40021
    1c84:	435c                	lw	a5,4(a4)
    1c86:	4691                	li	a3,4
    1c88:	8bb1                	andi	a5,a5,12
    1c8a:	00d78563          	beq	a5,a3,1c94 <RCC_GetClocksFreq+0x14>
    1c8e:	46a1                	li	a3,8
    1c90:	06d78663          	beq	a5,a3,1cfc <RCC_GetClocksFreq+0x7c>
    1c94:	007a17b7          	lui	a5,0x7a1
    1c98:	20078793          	addi	a5,a5,512 # 7a1200 <_data_lma+0x79694c>
    1c9c:	c11c                	sw	a5,0(a0)
    1c9e:	40021637          	lui	a2,0x40021
    1ca2:	425c                	lw	a5,4(a2)
    1ca4:	20000737          	lui	a4,0x20000
    1ca8:	00070713          	mv	a4,a4
    1cac:	8391                	srli	a5,a5,0x4
    1cae:	8bbd                	andi	a5,a5,15
    1cb0:	97ba                	add	a5,a5,a4
    1cb2:	0007c683          	lbu	a3,0(a5)
    1cb6:	411c                	lw	a5,0(a0)
    1cb8:	00d7d7b3          	srl	a5,a5,a3
    1cbc:	c15c                	sw	a5,4(a0)
    1cbe:	4254                	lw	a3,4(a2)
    1cc0:	82a1                	srli	a3,a3,0x8
    1cc2:	8a9d                	andi	a3,a3,7
    1cc4:	96ba                	add	a3,a3,a4
    1cc6:	0006c683          	lbu	a3,0(a3) # 4000 <__swbuf_r+0xba>
    1cca:	00d7d6b3          	srl	a3,a5,a3
    1cce:	c514                	sw	a3,8(a0)
    1cd0:	4254                	lw	a3,4(a2)
    1cd2:	82ad                	srli	a3,a3,0xb
    1cd4:	8a9d                	andi	a3,a3,7
    1cd6:	9736                	add	a4,a4,a3
    1cd8:	00074703          	lbu	a4,0(a4) # 20000000 <_data_vma>
    1cdc:	00e7d7b3          	srl	a5,a5,a4
    1ce0:	c55c                	sw	a5,12(a0)
    1ce2:	4258                	lw	a4,4(a2)
    1ce4:	8339                	srli	a4,a4,0xe
    1ce6:	00377693          	andi	a3,a4,3
    1cea:	81818713          	addi	a4,gp,-2024 # 200001f8 <ADCPrescTable>
    1cee:	9736                	add	a4,a4,a3
    1cf0:	00074703          	lbu	a4,0(a4)
    1cf4:	02e7d7b3          	divu	a5,a5,a4
    1cf8:	c91c                	sw	a5,16(a0)
    1cfa:	8082                	ret
    1cfc:	435c                	lw	a5,4(a4)
    1cfe:	4354                	lw	a3,4(a4)
    1d00:	6741                	lui	a4,0x10
    1d02:	83c9                	srli	a5,a5,0x12
    1d04:	8ef9                	and	a3,a3,a4
    1d06:	1ffff737          	lui	a4,0x1ffff
    1d0a:	70c72703          	lw	a4,1804(a4) # 1ffff70c <_data_lma+0x1fff4e58>
    1d0e:	8bbd                	andi	a5,a5,15
    1d10:	0789                	addi	a5,a5,2
    1d12:	01171613          	slli	a2,a4,0x11
    1d16:	00064863          	bltz	a2,1d26 <RCC_GetClocksFreq+0xa6>
    1d1a:	4645                	li	a2,17
    1d1c:	4701                	li	a4,0
    1d1e:	02c79263          	bne	a5,a2,1d42 <RCC_GetClocksFreq+0xc2>
    1d22:	47c9                	li	a5,18
    1d24:	a839                	j	1d42 <RCC_GetClocksFreq+0xc2>
    1d26:	4709                	li	a4,2
    1d28:	02e78963          	beq	a5,a4,1d5a <RCC_GetClocksFreq+0xda>
    1d2c:	473d                	li	a4,15
    1d2e:	02e78863          	beq	a5,a4,1d5e <RCC_GetClocksFreq+0xde>
    1d32:	4741                	li	a4,16
    1d34:	02e78863          	beq	a5,a4,1d64 <RCC_GetClocksFreq+0xe4>
    1d38:	4645                	li	a2,17
    1d3a:	4701                	li	a4,0
    1d3c:	00c79363          	bne	a5,a2,1d42 <RCC_GetClocksFreq+0xc2>
    1d40:	47c1                	li	a5,16
    1d42:	e685                	bnez	a3,1d6a <RCC_GetClocksFreq+0xea>
    1d44:	400246b7          	lui	a3,0x40024
    1d48:	8006a683          	lw	a3,-2048(a3) # 40023800 <_eusrstack+0x2001b800>
    1d4c:	8ac1                	andi	a3,a3,16
    1d4e:	c68d                	beqz	a3,1d78 <RCC_GetClocksFreq+0xf8>
    1d50:	007a16b7          	lui	a3,0x7a1
    1d54:	20068693          	addi	a3,a3,512 # 7a1200 <_data_lma+0x79694c>
    1d58:	a025                	j	1d80 <RCC_GetClocksFreq+0x100>
    1d5a:	4701                	li	a4,0
    1d5c:	b7d9                	j	1d22 <RCC_GetClocksFreq+0xa2>
    1d5e:	4705                	li	a4,1
    1d60:	47b5                	li	a5,13
    1d62:	b7c5                	j	1d42 <RCC_GetClocksFreq+0xc2>
    1d64:	4701                	li	a4,0
    1d66:	47bd                	li	a5,15
    1d68:	bfe9                	j	1d42 <RCC_GetClocksFreq+0xc2>
    1d6a:	400216b7          	lui	a3,0x40021
    1d6e:	42d4                	lw	a3,4(a3)
    1d70:	00e69613          	slli	a2,a3,0xe
    1d74:	fc065ee3          	bgez	a2,1d50 <RCC_GetClocksFreq+0xd0>
    1d78:	003d16b7          	lui	a3,0x3d1
    1d7c:	90068693          	addi	a3,a3,-1792 # 3d0900 <_data_lma+0x3c604c>
    1d80:	02d787b3          	mul	a5,a5,a3
    1d84:	c11c                	sw	a5,0(a0)
    1d86:	df01                	beqz	a4,1c9e <RCC_GetClocksFreq+0x1e>
    1d88:	411c                	lw	a5,0(a0)
    1d8a:	8385                	srli	a5,a5,0x1
    1d8c:	bf01                	j	1c9c <RCC_GetClocksFreq+0x1c>

00001d8e <RCC_APB2PeriphClockCmd>:
    1d8e:	c599                	beqz	a1,1d9c <RCC_APB2PeriphClockCmd+0xe>
    1d90:	40021737          	lui	a4,0x40021
    1d94:	4f1c                	lw	a5,24(a4)
    1d96:	8d5d                	or	a0,a0,a5
    1d98:	cf08                	sw	a0,24(a4)
    1d9a:	8082                	ret
    1d9c:	400217b7          	lui	a5,0x40021
    1da0:	4f98                	lw	a4,24(a5)
    1da2:	fff54513          	not	a0,a0
    1da6:	8d79                	and	a0,a0,a4
    1da8:	cf88                	sw	a0,24(a5)
    1daa:	8082                	ret

00001dac <RCC_APB1PeriphClockCmd>:
    1dac:	c599                	beqz	a1,1dba <RCC_APB1PeriphClockCmd+0xe>
    1dae:	40021737          	lui	a4,0x40021
    1db2:	4f5c                	lw	a5,28(a4)
    1db4:	8d5d                	or	a0,a0,a5
    1db6:	cf48                	sw	a0,28(a4)
    1db8:	8082                	ret
    1dba:	400217b7          	lui	a5,0x40021
    1dbe:	4fd8                	lw	a4,28(a5)
    1dc0:	fff54513          	not	a0,a0
    1dc4:	8d79                	and	a0,a0,a4
    1dc6:	cfc8                	sw	a0,28(a5)
    1dc8:	8082                	ret

00001dca <USART_Init>:
    1dca:	01055683          	lhu	a3,16(a0)
    1dce:	77f5                	lui	a5,0xffffd
    1dd0:	17fd                	addi	a5,a5,-1
    1dd2:	8ff5                	and	a5,a5,a3
    1dd4:	0065d683          	lhu	a3,6(a1)
    1dd8:	7139                	addi	sp,sp,-64
    1dda:	dc22                	sw	s0,56(sp)
    1ddc:	de06                	sw	ra,60(sp)
    1dde:	8fd5                	or	a5,a5,a3
    1de0:	00c5d703          	lhu	a4,12(a1)
    1de4:	00f51823          	sh	a5,16(a0)
    1de8:	00c55683          	lhu	a3,12(a0)
    1dec:	77fd                	lui	a5,0xfffff
    1dee:	9f378793          	addi	a5,a5,-1549 # ffffe9f3 <_eusrstack+0xdfff69f3>
    1df2:	8ff5                	and	a5,a5,a3
    1df4:	0045d683          	lhu	a3,4(a1)
    1df8:	842a                	mv	s0,a0
    1dfa:	c62e                	sw	a1,12(sp)
    1dfc:	8fd5                	or	a5,a5,a3
    1dfe:	0085d683          	lhu	a3,8(a1)
    1e02:	8fd5                	or	a5,a5,a3
    1e04:	00a5d683          	lhu	a3,10(a1)
    1e08:	8fd5                	or	a5,a5,a3
    1e0a:	00f51623          	sh	a5,12(a0)
    1e0e:	01455783          	lhu	a5,20(a0)
    1e12:	07c2                	slli	a5,a5,0x10
    1e14:	83c1                	srli	a5,a5,0x10
    1e16:	cff7f793          	andi	a5,a5,-769
    1e1a:	8fd9                	or	a5,a5,a4
    1e1c:	00f51a23          	sh	a5,20(a0)
    1e20:	0868                	addi	a0,sp,28
    1e22:	3db9                	jal	1c80 <RCC_GetClocksFreq>
    1e24:	400147b7          	lui	a5,0x40014
    1e28:	80078793          	addi	a5,a5,-2048 # 40013800 <_eusrstack+0x2000b800>
    1e2c:	45b2                	lw	a1,12(sp)
    1e2e:	04f41e63          	bne	s0,a5,1e8a <USART_Init+0xc0>
    1e32:	57a2                	lw	a5,40(sp)
    1e34:	00c45683          	lhu	a3,12(s0)
    1e38:	4765                	li	a4,25
    1e3a:	02e787b3          	mul	a5,a5,a4
    1e3e:	06c2                	slli	a3,a3,0x10
    1e40:	86c1                	srai	a3,a3,0x10
    1e42:	4198                	lw	a4,0(a1)
    1e44:	0406d563          	bgez	a3,1e8e <USART_Init+0xc4>
    1e48:	0706                	slli	a4,a4,0x1
    1e4a:	00c45603          	lhu	a2,12(s0)
    1e4e:	0642                	slli	a2,a2,0x10
    1e50:	02e7d7b3          	divu	a5,a5,a4
    1e54:	06400713          	li	a4,100
    1e58:	8641                	srai	a2,a2,0x10
    1e5a:	02e7d6b3          	divu	a3,a5,a4
    1e5e:	02e7f7b3          	remu	a5,a5,a4
    1e62:	0692                	slli	a3,a3,0x4
    1e64:	02065763          	bgez	a2,1e92 <USART_Init+0xc8>
    1e68:	078e                	slli	a5,a5,0x3
    1e6a:	03278793          	addi	a5,a5,50
    1e6e:	02e7d7b3          	divu	a5,a5,a4
    1e72:	0077f713          	andi	a4,a5,7
    1e76:	00d767b3          	or	a5,a4,a3
    1e7a:	07c2                	slli	a5,a5,0x10
    1e7c:	83c1                	srli	a5,a5,0x10
    1e7e:	00f41423          	sh	a5,8(s0)
    1e82:	50f2                	lw	ra,60(sp)
    1e84:	5462                	lw	s0,56(sp)
    1e86:	6121                	addi	sp,sp,64
    1e88:	8082                	ret
    1e8a:	5792                	lw	a5,36(sp)
    1e8c:	b765                	j	1e34 <USART_Init+0x6a>
    1e8e:	070a                	slli	a4,a4,0x2
    1e90:	bf6d                	j	1e4a <USART_Init+0x80>
    1e92:	0792                	slli	a5,a5,0x4
    1e94:	03278793          	addi	a5,a5,50
    1e98:	02e7d7b3          	divu	a5,a5,a4
    1e9c:	8bbd                	andi	a5,a5,15
    1e9e:	8fd5                	or	a5,a5,a3
    1ea0:	bfe9                	j	1e7a <USART_Init+0xb0>

00001ea2 <USART_Cmd>:
    1ea2:	c981                	beqz	a1,1eb2 <USART_Cmd+0x10>
    1ea4:	00c55783          	lhu	a5,12(a0)
    1ea8:	6709                	lui	a4,0x2
    1eaa:	8fd9                	or	a5,a5,a4
    1eac:	00f51623          	sh	a5,12(a0)
    1eb0:	8082                	ret
    1eb2:	00c55703          	lhu	a4,12(a0)
    1eb6:	77f9                	lui	a5,0xffffe
    1eb8:	17fd                	addi	a5,a5,-1
    1eba:	8ff9                	and	a5,a5,a4
    1ebc:	bfc5                	j	1eac <USART_Cmd+0xa>

00001ebe <USART_SendData>:
    1ebe:	1ff5f593          	andi	a1,a1,511
    1ec2:	00b51223          	sh	a1,4(a0)
    1ec6:	8082                	ret

00001ec8 <USART_GetFlagStatus>:
    1ec8:	00055503          	lhu	a0,0(a0)
    1ecc:	8d6d                	and	a0,a0,a1
    1ece:	00a03533          	snez	a0,a0
    1ed2:	8082                	ret

00001ed4 <Delay_Init>:
    1ed4:	8141a783          	lw	a5,-2028(gp) # 200001f4 <SystemCoreClock>
    1ed8:	007a1737          	lui	a4,0x7a1
    1edc:	20070713          	addi	a4,a4,512 # 7a1200 <_data_lma+0x79694c>
    1ee0:	02e7d7b3          	divu	a5,a5,a4
    1ee4:	0ff7f793          	andi	a5,a5,255
    1ee8:	84f18623          	sb	a5,-1972(gp) # 2000022c <p_us>
    1eec:	3e800713          	li	a4,1000
    1ef0:	02e787b3          	mul	a5,a5,a4
    1ef4:	84f19523          	sh	a5,-1974(gp) # 2000022a <p_ms>
    1ef8:	8082                	ret

00001efa <Delay_Ms>:
    1efa:	e000f7b7          	lui	a5,0xe000f
    1efe:	43d8                	lw	a4,4(a5)
    1f00:	4681                	li	a3,0
    1f02:	9b79                	andi	a4,a4,-2
    1f04:	c3d8                	sw	a4,4(a5)
    1f06:	84a1d703          	lhu	a4,-1974(gp) # 2000022a <p_ms>
    1f0a:	02a70633          	mul	a2,a4,a0
    1f0e:	cb90                	sw	a2,16(a5)
    1f10:	cbd4                	sw	a3,20(a5)
    1f12:	4398                	lw	a4,0(a5)
    1f14:	03176713          	ori	a4,a4,49
    1f18:	c398                	sw	a4,0(a5)
    1f1a:	43d8                	lw	a4,4(a5)
    1f1c:	8b05                	andi	a4,a4,1
    1f1e:	df75                	beqz	a4,1f1a <Delay_Ms+0x20>
    1f20:	4398                	lw	a4,0(a5)
    1f22:	9b79                	andi	a4,a4,-2
    1f24:	c398                	sw	a4,0(a5)
    1f26:	8082                	ret

00001f28 <USART_Printf_Init>:
    1f28:	7179                	addi	sp,sp,-48
    1f2a:	d422                	sw	s0,40(sp)
    1f2c:	842a                	mv	s0,a0
    1f2e:	6511                	lui	a0,0x4
    1f30:	4585                	li	a1,1
    1f32:	0511                	addi	a0,a0,4
    1f34:	d606                	sw	ra,44(sp)
    1f36:	3da1                	jal	1d8e <RCC_APB2PeriphClockCmd>
    1f38:	20000793          	li	a5,512
    1f3c:	00f11223          	sh	a5,4(sp)
    1f40:	40011537          	lui	a0,0x40011
    1f44:	478d                	li	a5,3
    1f46:	c43e                	sw	a5,8(sp)
    1f48:	004c                	addi	a1,sp,4
    1f4a:	47e1                	li	a5,24
    1f4c:	80050513          	addi	a0,a0,-2048 # 40010800 <_eusrstack+0x20008800>
    1f50:	c63e                	sw	a5,12(sp)
    1f52:	9b3ff0ef          	jal	ra,1904 <GPIO_Init>
    1f56:	c822                	sw	s0,16(sp)
    1f58:	40014437          	lui	s0,0x40014
    1f5c:	000807b7          	lui	a5,0x80
    1f60:	080c                	addi	a1,sp,16
    1f62:	80040513          	addi	a0,s0,-2048 # 40013800 <_eusrstack+0x2000b800>
    1f66:	cc3e                	sw	a5,24(sp)
    1f68:	ca02                	sw	zero,20(sp)
    1f6a:	00011e23          	sh	zero,28(sp)
    1f6e:	3db1                	jal	1dca <USART_Init>
    1f70:	80040513          	addi	a0,s0,-2048
    1f74:	4585                	li	a1,1
    1f76:	3735                	jal	1ea2 <USART_Cmd>
    1f78:	50b2                	lw	ra,44(sp)
    1f7a:	5422                	lw	s0,40(sp)
    1f7c:	6145                	addi	sp,sp,48
    1f7e:	8082                	ret

00001f80 <_write>:
    1f80:	1101                	addi	sp,sp,-32
    1f82:	ca26                	sw	s1,20(sp)
    1f84:	400144b7          	lui	s1,0x40014
    1f88:	cc22                	sw	s0,24(sp)
    1f8a:	c84a                	sw	s2,16(sp)
    1f8c:	c64e                	sw	s3,12(sp)
    1f8e:	ce06                	sw	ra,28(sp)
    1f90:	89ae                	mv	s3,a1
    1f92:	8932                	mv	s2,a2
    1f94:	4401                	li	s0,0
    1f96:	80048493          	addi	s1,s1,-2048 # 40013800 <_eusrstack+0x2000b800>
    1f9a:	01244a63          	blt	s0,s2,1fae <_write+0x2e>
    1f9e:	40f2                	lw	ra,28(sp)
    1fa0:	4462                	lw	s0,24(sp)
    1fa2:	854a                	mv	a0,s2
    1fa4:	44d2                	lw	s1,20(sp)
    1fa6:	4942                	lw	s2,16(sp)
    1fa8:	49b2                	lw	s3,12(sp)
    1faa:	6105                	addi	sp,sp,32
    1fac:	8082                	ret
    1fae:	04000593          	li	a1,64
    1fb2:	8526                	mv	a0,s1
    1fb4:	3f11                	jal	1ec8 <USART_GetFlagStatus>
    1fb6:	dd65                	beqz	a0,1fae <_write+0x2e>
    1fb8:	008987b3          	add	a5,s3,s0
    1fbc:	00078583          	lb	a1,0(a5) # 80000 <_data_lma+0x7574c>
    1fc0:	8526                	mv	a0,s1
    1fc2:	0405                	addi	s0,s0,1
    1fc4:	05c2                	slli	a1,a1,0x10
    1fc6:	81c1                	srli	a1,a1,0x10
    1fc8:	3ddd                	jal	1ebe <USART_SendData>
    1fca:	bfc1                	j	1f9a <_write+0x1a>

00001fcc <_sbrk>:
    1fcc:	81c18713          	addi	a4,gp,-2020 # 200001fc <curbrk.5210>
    1fd0:	431c                	lw	a5,0(a4)
    1fd2:	d4418693          	addi	a3,gp,-700 # 20000724 <_ebss>
    1fd6:	953e                	add	a0,a0,a5
    1fd8:	00d56b63          	bltu	a0,a3,1fee <_sbrk+0x22>
    1fdc:	200086b7          	lui	a3,0x20008
    1fe0:	80068693          	addi	a3,a3,-2048 # 20007800 <_heap_end>
    1fe4:	00a6e563          	bltu	a3,a0,1fee <_sbrk+0x22>
    1fe8:	c308                	sw	a0,0(a4)
    1fea:	853e                	mv	a0,a5
    1fec:	8082                	ret
    1fee:	57fd                	li	a5,-1
    1ff0:	bfed                	j	1fea <_sbrk+0x1e>

00001ff2 <__extendsfdf2>:
    1ff2:	01755713          	srli	a4,a0,0x17
    1ff6:	0ff77713          	andi	a4,a4,255
    1ffa:	1141                	addi	sp,sp,-16
    1ffc:	00170793          	addi	a5,a4,1
    2000:	c422                	sw	s0,8(sp)
    2002:	c226                	sw	s1,4(sp)
    2004:	00951413          	slli	s0,a0,0x9
    2008:	c606                	sw	ra,12(sp)
    200a:	0fe7f793          	andi	a5,a5,254
    200e:	8025                	srli	s0,s0,0x9
    2010:	01f55493          	srli	s1,a0,0x1f
    2014:	c785                	beqz	a5,203c <__extendsfdf2+0x4a>
    2016:	00345793          	srli	a5,s0,0x3
    201a:	38070713          	addi	a4,a4,896
    201e:	0476                	slli	s0,s0,0x1d
    2020:	07b2                	slli	a5,a5,0xc
    2022:	0752                	slli	a4,a4,0x14
    2024:	83b1                	srli	a5,a5,0xc
    2026:	01f49513          	slli	a0,s1,0x1f
    202a:	8fd9                	or	a5,a5,a4
    202c:	8fc9                	or	a5,a5,a0
    202e:	40b2                	lw	ra,12(sp)
    2030:	8522                	mv	a0,s0
    2032:	4422                	lw	s0,8(sp)
    2034:	4492                	lw	s1,4(sp)
    2036:	85be                	mv	a1,a5
    2038:	0141                	addi	sp,sp,16
    203a:	8082                	ret
    203c:	eb05                	bnez	a4,206c <__extendsfdf2+0x7a>
    203e:	c439                	beqz	s0,208c <__extendsfdf2+0x9a>
    2040:	8522                	mv	a0,s0
    2042:	28b1                	jal	209e <__clzsi2>
    2044:	47a9                	li	a5,10
    2046:	04a7c663          	blt	a5,a0,2092 <__extendsfdf2+0xa0>
    204a:	472d                	li	a4,11
    204c:	8f09                	sub	a4,a4,a0
    204e:	01550793          	addi	a5,a0,21
    2052:	00e45733          	srl	a4,s0,a4
    2056:	00f41433          	sll	s0,s0,a5
    205a:	00c71793          	slli	a5,a4,0xc
    205e:	38900713          	li	a4,905
    2062:	8f09                	sub	a4,a4,a0
    2064:	83b1                	srli	a5,a5,0xc
    2066:	7ff77713          	andi	a4,a4,2047
    206a:	bf5d                	j	2020 <__extendsfdf2+0x2e>
    206c:	cc01                	beqz	s0,2084 <__extendsfdf2+0x92>
    206e:	00345713          	srli	a4,s0,0x3
    2072:	000807b7          	lui	a5,0x80
    2076:	8fd9                	or	a5,a5,a4
    2078:	07b2                	slli	a5,a5,0xc
    207a:	0476                	slli	s0,s0,0x1d
    207c:	83b1                	srli	a5,a5,0xc
    207e:	7ff00713          	li	a4,2047
    2082:	bf79                	j	2020 <__extendsfdf2+0x2e>
    2084:	7ff00713          	li	a4,2047
    2088:	4781                	li	a5,0
    208a:	bf59                	j	2020 <__extendsfdf2+0x2e>
    208c:	4701                	li	a4,0
    208e:	4781                	li	a5,0
    2090:	bf41                	j	2020 <__extendsfdf2+0x2e>
    2092:	ff550713          	addi	a4,a0,-11
    2096:	00e41733          	sll	a4,s0,a4
    209a:	4401                	li	s0,0
    209c:	bf7d                	j	205a <__extendsfdf2+0x68>

0000209e <__clzsi2>:
    209e:	67c1                	lui	a5,0x10
    20a0:	02f57e63          	bgeu	a0,a5,20dc <__clzsi2+0x3e>
    20a4:	0ff00793          	li	a5,255
    20a8:	02000713          	li	a4,32
    20ac:	00a7ec63          	bltu	a5,a0,20c4 <__clzsi2+0x26>
    20b0:	00008797          	auipc	a5,0x8
    20b4:	2b878793          	addi	a5,a5,696 # a368 <__clz_tab>
    20b8:	97aa                	add	a5,a5,a0
    20ba:	0007c503          	lbu	a0,0(a5)
    20be:	40a70533          	sub	a0,a4,a0
    20c2:	8082                	ret
    20c4:	8121                	srli	a0,a0,0x8
    20c6:	00008797          	auipc	a5,0x8
    20ca:	2a278793          	addi	a5,a5,674 # a368 <__clz_tab>
    20ce:	97aa                	add	a5,a5,a0
    20d0:	0007c503          	lbu	a0,0(a5)
    20d4:	4761                	li	a4,24
    20d6:	40a70533          	sub	a0,a4,a0
    20da:	8082                	ret
    20dc:	010007b7          	lui	a5,0x1000
    20e0:	00f56e63          	bltu	a0,a5,20fc <__clzsi2+0x5e>
    20e4:	8161                	srli	a0,a0,0x18
    20e6:	00008797          	auipc	a5,0x8
    20ea:	28278793          	addi	a5,a5,642 # a368 <__clz_tab>
    20ee:	97aa                	add	a5,a5,a0
    20f0:	0007c503          	lbu	a0,0(a5)
    20f4:	4721                	li	a4,8
    20f6:	40a70533          	sub	a0,a4,a0
    20fa:	8082                	ret
    20fc:	8141                	srli	a0,a0,0x10
    20fe:	00008797          	auipc	a5,0x8
    2102:	26a78793          	addi	a5,a5,618 # a368 <__clz_tab>
    2106:	97aa                	add	a5,a5,a0
    2108:	0007c503          	lbu	a0,0(a5)
    210c:	4741                	li	a4,16
    210e:	40a70533          	sub	a0,a4,a0
    2112:	8082                	ret

00002114 <__cvt>:
    2114:	7179                	addi	sp,sp,-48
    2116:	d422                	sw	s0,40(sp)
    2118:	d04a                	sw	s2,32(sp)
    211a:	cc52                	sw	s4,24(sp)
    211c:	ca56                	sw	s5,20(sp)
    211e:	c85a                	sw	s6,16(sp)
    2120:	d606                	sw	ra,44(sp)
    2122:	d226                	sw	s1,36(sp)
    2124:	ce4e                	sw	s3,28(sp)
    2126:	8a3a                	mv	s4,a4
    2128:	8aae                	mv	s5,a1
    212a:	8432                	mv	s0,a2
    212c:	8936                	mv	s2,a3
    212e:	8b42                	mv	s6,a6
    2130:	4701                	li	a4,0
    2132:	00065863          	bgez	a2,2142 <__cvt+0x2e>
    2136:	80000737          	lui	a4,0x80000
    213a:	00c74433          	xor	s0,a4,a2
    213e:	02d00713          	li	a4,45
    2142:	00e78023          	sb	a4,0(a5)
    2146:	fdf8f493          	andi	s1,a7,-33
    214a:	04600793          	li	a5,70
    214e:	468d                	li	a3,3
    2150:	00f48863          	beq	s1,a5,2160 <__cvt+0x4c>
    2154:	04500793          	li	a5,69
    2158:	4689                	li	a3,2
    215a:	00f49363          	bne	s1,a5,2160 <__cvt+0x4c>
    215e:	0905                	addi	s2,s2,1
    2160:	87da                	mv	a5,s6
    2162:	00c10893          	addi	a7,sp,12
    2166:	00810813          	addi	a6,sp,8
    216a:	874a                	mv	a4,s2
    216c:	85d6                	mv	a1,s5
    216e:	8622                	mv	a2,s0
    2170:	0e8020ef          	jal	ra,4258 <_dtoa_r>
    2174:	04700793          	li	a5,71
    2178:	89aa                	mv	s3,a0
    217a:	00f49663          	bne	s1,a5,2186 <__cvt+0x72>
    217e:	001a7a13          	andi	s4,s4,1
    2182:	040a0a63          	beqz	s4,21d6 <__cvt+0xc2>
    2186:	04600793          	li	a5,70
    218a:	01298a33          	add	s4,s3,s2
    218e:	02f49763          	bne	s1,a5,21bc <__cvt+0xa8>
    2192:	0009c703          	lbu	a4,0(s3)
    2196:	03000793          	li	a5,48
    219a:	00f71e63          	bne	a4,a5,21b6 <__cvt+0xa2>
    219e:	4601                	li	a2,0
    21a0:	4681                	li	a3,0
    21a2:	8556                	mv	a0,s5
    21a4:	85a2                	mv	a1,s0
    21a6:	39f050ef          	jal	ra,7d44 <__eqdf2>
    21aa:	c511                	beqz	a0,21b6 <__cvt+0xa2>
    21ac:	4785                	li	a5,1
    21ae:	41278933          	sub	s2,a5,s2
    21b2:	012b2023          	sw	s2,0(s6)
    21b6:	000b2783          	lw	a5,0(s6)
    21ba:	9a3e                	add	s4,s4,a5
    21bc:	4601                	li	a2,0
    21be:	4681                	li	a3,0
    21c0:	8556                	mv	a0,s5
    21c2:	85a2                	mv	a1,s0
    21c4:	381050ef          	jal	ra,7d44 <__eqdf2>
    21c8:	e111                	bnez	a0,21cc <__cvt+0xb8>
    21ca:	c652                	sw	s4,12(sp)
    21cc:	03000713          	li	a4,48
    21d0:	47b2                	lw	a5,12(sp)
    21d2:	0347e263          	bltu	a5,s4,21f6 <__cvt+0xe2>
    21d6:	47b2                	lw	a5,12(sp)
    21d8:	5742                	lw	a4,48(sp)
    21da:	50b2                	lw	ra,44(sp)
    21dc:	5422                	lw	s0,40(sp)
    21de:	413787b3          	sub	a5,a5,s3
    21e2:	c31c                	sw	a5,0(a4)
    21e4:	854e                	mv	a0,s3
    21e6:	5492                	lw	s1,36(sp)
    21e8:	5902                	lw	s2,32(sp)
    21ea:	49f2                	lw	s3,28(sp)
    21ec:	4a62                	lw	s4,24(sp)
    21ee:	4ad2                	lw	s5,20(sp)
    21f0:	4b42                	lw	s6,16(sp)
    21f2:	6145                	addi	sp,sp,48
    21f4:	8082                	ret
    21f6:	00178693          	addi	a3,a5,1
    21fa:	c636                	sw	a3,12(sp)
    21fc:	00e78023          	sb	a4,0(a5)
    2200:	bfc1                	j	21d0 <__cvt+0xbc>

00002202 <__exponent>:
    2202:	00c50023          	sb	a2,0(a0)
    2206:	00250713          	addi	a4,a0,2
    220a:	02b00793          	li	a5,43
    220e:	0005d663          	bgez	a1,221a <__exponent+0x18>
    2212:	40b005b3          	neg	a1,a1
    2216:	02d00793          	li	a5,45
    221a:	00f500a3          	sb	a5,1(a0)
    221e:	47a5                	li	a5,9
    2220:	04b7da63          	bge	a5,a1,2274 <__exponent+0x72>
    2224:	1141                	addi	sp,sp,-16
    2226:	00f10793          	addi	a5,sp,15
    222a:	88be                	mv	a7,a5
    222c:	4829                	li	a6,10
    222e:	06300313          	li	t1,99
    2232:	0305e6b3          	rem	a3,a1,a6
    2236:	fff78613          	addi	a2,a5,-1
    223a:	03068693          	addi	a3,a3,48
    223e:	fed78fa3          	sb	a3,-1(a5)
    2242:	0305c6b3          	div	a3,a1,a6
    2246:	00b34d63          	blt	t1,a1,2260 <__exponent+0x5e>
    224a:	03068693          	addi	a3,a3,48
    224e:	17f9                	addi	a5,a5,-2
    2250:	fed60fa3          	sb	a3,-1(a2) # 40020fff <_eusrstack+0x20018fff>
    2254:	0117e963          	bltu	a5,a7,2266 <__exponent+0x64>
    2258:	40a70533          	sub	a0,a4,a0
    225c:	0141                	addi	sp,sp,16
    225e:	8082                	ret
    2260:	87b2                	mv	a5,a2
    2262:	85b6                	mv	a1,a3
    2264:	b7f9                	j	2232 <__exponent+0x30>
    2266:	0785                	addi	a5,a5,1
    2268:	fff7c683          	lbu	a3,-1(a5)
    226c:	0705                	addi	a4,a4,1
    226e:	fed70fa3          	sb	a3,-1(a4) # 7fffffff <_eusrstack+0x5fff7fff>
    2272:	b7cd                	j	2254 <__exponent+0x52>
    2274:	03000793          	li	a5,48
    2278:	00450713          	addi	a4,a0,4
    227c:	03058593          	addi	a1,a1,48
    2280:	00f50123          	sb	a5,2(a0)
    2284:	00b501a3          	sb	a1,3(a0)
    2288:	40a70533          	sub	a0,a4,a0
    228c:	8082                	ret

0000228e <_printf_float>:
    228e:	7119                	addi	sp,sp,-128
    2290:	ce3a                	sw	a4,28(sp)
    2292:	de86                	sw	ra,124(sp)
    2294:	dca2                	sw	s0,120(sp)
    2296:	daa6                	sw	s1,116(sp)
    2298:	842e                	mv	s0,a1
    229a:	d8ca                	sw	s2,112(sp)
    229c:	d6ce                	sw	s3,108(sp)
    229e:	d4d2                	sw	s4,104(sp)
    22a0:	89b6                	mv	s3,a3
    22a2:	d0da                	sw	s6,96(sp)
    22a4:	cede                	sw	s7,92(sp)
    22a6:	cce2                	sw	s8,88(sp)
    22a8:	8932                	mv	s2,a2
    22aa:	d2d6                	sw	s5,100(sp)
    22ac:	cae6                	sw	s9,84(sp)
    22ae:	c8ea                	sw	s10,80(sp)
    22b0:	c6ee                	sw	s11,76(sp)
    22b2:	84aa                	mv	s1,a0
    22b4:	6e6030ef          	jal	ra,599a <_localeconv_r>
    22b8:	00052b83          	lw	s7,0(a0)
    22bc:	855e                	mv	a0,s7
    22be:	63f000ef          	jal	ra,30fc <strlen>
    22c2:	00042b03          	lw	s6,0(s0)
    22c6:	4772                	lw	a4,28(sp)
    22c8:	dc02                	sw	zero,56(sp)
    22ca:	100b7693          	andi	a3,s6,256
    22ce:	8c2a                	mv	s8,a0
    22d0:	01844a03          	lbu	s4,24(s0)
    22d4:	431c                	lw	a5,0(a4)
    22d6:	caf1                	beqz	a3,23aa <_printf_float+0x11c>
    22d8:	00478693          	addi	a3,a5,4
    22dc:	c314                	sw	a3,0(a4)
    22de:	439c                	lw	a5,0(a5)
    22e0:	1008                	addi	a0,sp,32
    22e2:	4398                	lw	a4,0(a5)
    22e4:	d03a                	sw	a4,32(sp)
    22e6:	43d8                	lw	a4,4(a5)
    22e8:	d23a                	sw	a4,36(sp)
    22ea:	4798                	lw	a4,8(a5)
    22ec:	d43a                	sw	a4,40(sp)
    22ee:	47dc                	lw	a5,12(a5)
    22f0:	d63e                	sw	a5,44(sp)
    22f2:	4ff060ef          	jal	ra,8ff0 <__trunctfdf2>
    22f6:	c428                	sw	a0,72(s0)
    22f8:	c46c                	sw	a1,76(s0)
    22fa:	04c42c83          	lw	s9,76(s0)
    22fe:	00008717          	auipc	a4,0x8
    2302:	16a70713          	addi	a4,a4,362 # a468 <__clz_tab+0x100>
    2306:	04842a83          	lw	s5,72(s0)
    230a:	00072d03          	lw	s10,0(a4)
    230e:	00472d83          	lw	s11,4(a4)
    2312:	001c9793          	slli	a5,s9,0x1
    2316:	8385                	srli	a5,a5,0x1
    2318:	866a                	mv	a2,s10
    231a:	86ee                	mv	a3,s11
    231c:	8556                	mv	a0,s5
    231e:	85be                	mv	a1,a5
    2320:	ce3e                	sw	a5,28(sp)
    2322:	7e6060ef          	jal	ra,8b08 <__unorddf2>
    2326:	ed41                	bnez	a0,23be <_printf_float+0x130>
    2328:	47f2                	lw	a5,28(sp)
    232a:	866a                	mv	a2,s10
    232c:	86ee                	mv	a3,s11
    232e:	8556                	mv	a0,s5
    2330:	85be                	mv	a1,a5
    2332:	32b050ef          	jal	ra,7e5c <__ledf2>
    2336:	08a05463          	blez	a0,23be <_printf_float+0x130>
    233a:	4601                	li	a2,0
    233c:	4681                	li	a3,0
    233e:	8556                	mv	a0,s5
    2340:	85e6                	mv	a1,s9
    2342:	31b050ef          	jal	ra,7e5c <__ledf2>
    2346:	00055663          	bgez	a0,2352 <_printf_float+0xc4>
    234a:	02d00793          	li	a5,45
    234e:	04f401a3          	sb	a5,67(s0)
    2352:	04700793          	li	a5,71
    2356:	00008a97          	auipc	s5,0x8
    235a:	11aa8a93          	addi	s5,s5,282 # a470 <__clz_tab+0x108>
    235e:	0147f663          	bgeu	a5,s4,236a <_printf_float+0xdc>
    2362:	00008a97          	auipc	s5,0x8
    2366:	112a8a93          	addi	s5,s5,274 # a474 <__clz_tab+0x10c>
    236a:	ffbb7b13          	andi	s6,s6,-5
    236e:	478d                	li	a5,3
    2370:	01642023          	sw	s6,0(s0)
    2374:	c81c                	sw	a5,16(s0)
    2376:	4b01                	li	s6,0
    2378:	874e                	mv	a4,s3
    237a:	86ca                	mv	a3,s2
    237c:	1870                	addi	a2,sp,60
    237e:	85a2                	mv	a1,s0
    2380:	8526                	mv	a0,s1
    2382:	26f1                	jal	274e <_printf_common>
    2384:	5cfd                	li	s9,-1
    2386:	15951c63          	bne	a0,s9,24de <_printf_float+0x250>
    238a:	557d                	li	a0,-1
    238c:	50f6                	lw	ra,124(sp)
    238e:	5466                	lw	s0,120(sp)
    2390:	54d6                	lw	s1,116(sp)
    2392:	5946                	lw	s2,112(sp)
    2394:	59b6                	lw	s3,108(sp)
    2396:	5a26                	lw	s4,104(sp)
    2398:	5a96                	lw	s5,100(sp)
    239a:	5b06                	lw	s6,96(sp)
    239c:	4bf6                	lw	s7,92(sp)
    239e:	4c66                	lw	s8,88(sp)
    23a0:	4cd6                	lw	s9,84(sp)
    23a2:	4d46                	lw	s10,80(sp)
    23a4:	4db6                	lw	s11,76(sp)
    23a6:	6109                	addi	sp,sp,128
    23a8:	8082                	ret
    23aa:	079d                	addi	a5,a5,7
    23ac:	9be1                	andi	a5,a5,-8
    23ae:	00878693          	addi	a3,a5,8
    23b2:	c314                	sw	a3,0(a4)
    23b4:	4398                	lw	a4,0(a5)
    23b6:	43dc                	lw	a5,4(a5)
    23b8:	c438                	sw	a4,72(s0)
    23ba:	c47c                	sw	a5,76(s0)
    23bc:	bf3d                	j	22fa <_printf_float+0x6c>
    23be:	8656                	mv	a2,s5
    23c0:	86e6                	mv	a3,s9
    23c2:	8556                	mv	a0,s5
    23c4:	85e6                	mv	a1,s9
    23c6:	742060ef          	jal	ra,8b08 <__unorddf2>
    23ca:	cd11                	beqz	a0,23e6 <_printf_float+0x158>
    23cc:	04700793          	li	a5,71
    23d0:	00008a97          	auipc	s5,0x8
    23d4:	0a8a8a93          	addi	s5,s5,168 # a478 <__clz_tab+0x110>
    23d8:	f947f9e3          	bgeu	a5,s4,236a <_printf_float+0xdc>
    23dc:	00008a97          	auipc	s5,0x8
    23e0:	0a0a8a93          	addi	s5,s5,160 # a47c <__clz_tab+0x114>
    23e4:	b759                	j	236a <_printf_float+0xdc>
    23e6:	405c                	lw	a5,4(s0)
    23e8:	577d                	li	a4,-1
    23ea:	0dfa7d13          	andi	s10,s4,223
    23ee:	08e79363          	bne	a5,a4,2474 <_printf_float+0x1e6>
    23f2:	4799                	li	a5,6
    23f4:	c05c                	sw	a5,4(s0)
    23f6:	4054                	lw	a3,4(s0)
    23f8:	400b6713          	ori	a4,s6,1024
    23fc:	183c                	addi	a5,sp,56
    23fe:	85d6                	mv	a1,s5
    2400:	c03e                	sw	a5,0(sp)
    2402:	c018                	sw	a4,0(s0)
    2404:	03310793          	addi	a5,sp,51
    2408:	c202                	sw	zero,4(sp)
    240a:	88d2                	mv	a7,s4
    240c:	03410813          	addi	a6,sp,52
    2410:	8666                	mv	a2,s9
    2412:	8526                	mv	a0,s1
    2414:	3301                	jal	2114 <__cvt>
    2416:	04700793          	li	a5,71
    241a:	8aaa                	mv	s5,a0
    241c:	55d2                	lw	a1,52(sp)
    241e:	00fd1b63          	bne	s10,a5,2434 <_printf_float+0x1a6>
    2422:	57f5                	li	a5,-3
    2424:	00f5c563          	blt	a1,a5,242e <_printf_float+0x1a0>
    2428:	405c                	lw	a5,4(s0)
    242a:	08b7d763          	bge	a5,a1,24b8 <_printf_float+0x22a>
    242e:	1a79                	addi	s4,s4,-2
    2430:	0ffa7a13          	andi	s4,s4,255
    2434:	06500793          	li	a5,101
    2438:	0547e563          	bltu	a5,s4,2482 <_printf_float+0x1f4>
    243c:	15fd                	addi	a1,a1,-1
    243e:	8652                	mv	a2,s4
    2440:	05040513          	addi	a0,s0,80
    2444:	da2e                	sw	a1,52(sp)
    2446:	3b75                	jal	2202 <__exponent>
    2448:	5762                	lw	a4,56(sp)
    244a:	4685                	li	a3,1
    244c:	8b2a                	mv	s6,a0
    244e:	00a707b3          	add	a5,a4,a0
    2452:	c81c                	sw	a5,16(s0)
    2454:	00e6c563          	blt	a3,a4,245e <_printf_float+0x1d0>
    2458:	4018                	lw	a4,0(s0)
    245a:	8b05                	andi	a4,a4,1
    245c:	c319                	beqz	a4,2462 <_printf_float+0x1d4>
    245e:	0785                	addi	a5,a5,1
    2460:	c81c                	sw	a5,16(s0)
    2462:	03314783          	lbu	a5,51(sp)
    2466:	f00789e3          	beqz	a5,2378 <_printf_float+0xea>
    246a:	02d00793          	li	a5,45
    246e:	04f401a3          	sb	a5,67(s0)
    2472:	b719                	j	2378 <_printf_float+0xea>
    2474:	04700713          	li	a4,71
    2478:	f6ed1fe3          	bne	s10,a4,23f6 <_printf_float+0x168>
    247c:	ffad                	bnez	a5,23f6 <_printf_float+0x168>
    247e:	4785                	li	a5,1
    2480:	bf95                	j	23f4 <_printf_float+0x166>
    2482:	06600793          	li	a5,102
    2486:	02fa1b63          	bne	s4,a5,24bc <_printf_float+0x22e>
    248a:	405c                	lw	a5,4(s0)
    248c:	00b05b63          	blez	a1,24a2 <_printf_float+0x214>
    2490:	c80c                	sw	a1,16(s0)
    2492:	e781                	bnez	a5,249a <_printf_float+0x20c>
    2494:	4018                	lw	a4,0(s0)
    2496:	8b05                	andi	a4,a4,1
    2498:	cf09                	beqz	a4,24b2 <_printf_float+0x224>
    249a:	0785                	addi	a5,a5,1
    249c:	97ae                	add	a5,a5,a1
    249e:	c81c                	sw	a5,16(s0)
    24a0:	a809                	j	24b2 <_printf_float+0x224>
    24a2:	e789                	bnez	a5,24ac <_printf_float+0x21e>
    24a4:	4018                	lw	a4,0(s0)
    24a6:	4685                	li	a3,1
    24a8:	8b05                	andi	a4,a4,1
    24aa:	c319                	beqz	a4,24b0 <_printf_float+0x222>
    24ac:	00278693          	addi	a3,a5,2
    24b0:	c814                	sw	a3,16(s0)
    24b2:	cc2c                	sw	a1,88(s0)
    24b4:	4b01                	li	s6,0
    24b6:	b775                	j	2462 <_printf_float+0x1d4>
    24b8:	06700a13          	li	s4,103
    24bc:	57e2                	lw	a5,56(sp)
    24be:	00f5c963          	blt	a1,a5,24d0 <_printf_float+0x242>
    24c2:	401c                	lw	a5,0(s0)
    24c4:	c80c                	sw	a1,16(s0)
    24c6:	8b85                	andi	a5,a5,1
    24c8:	d7ed                	beqz	a5,24b2 <_printf_float+0x224>
    24ca:	00158793          	addi	a5,a1,1
    24ce:	bfc1                	j	249e <_printf_float+0x210>
    24d0:	4705                	li	a4,1
    24d2:	00b04463          	bgtz	a1,24da <_printf_float+0x24c>
    24d6:	4709                	li	a4,2
    24d8:	8f0d                	sub	a4,a4,a1
    24da:	97ba                	add	a5,a5,a4
    24dc:	b7c9                	j	249e <_printf_float+0x210>
    24de:	401c                	lw	a5,0(s0)
    24e0:	4007f713          	andi	a4,a5,1024
    24e4:	e315                	bnez	a4,2508 <_printf_float+0x27a>
    24e6:	4814                	lw	a3,16(s0)
    24e8:	8656                	mv	a2,s5
    24ea:	85ca                	mv	a1,s2
    24ec:	8526                	mv	a0,s1
    24ee:	9982                	jalr	s3
    24f0:	e9950de3          	beq	a0,s9,238a <_printf_float+0xfc>
    24f4:	401c                	lw	a5,0(s0)
    24f6:	8b89                	andi	a5,a5,2
    24f8:	24079663          	bnez	a5,2744 <_printf_float+0x4b6>
    24fc:	57f2                	lw	a5,60(sp)
    24fe:	4448                	lw	a0,12(s0)
    2500:	e8f556e3          	bge	a0,a5,238c <_printf_float+0xfe>
    2504:	853e                	mv	a0,a5
    2506:	b559                	j	238c <_printf_float+0xfe>
    2508:	06500713          	li	a4,101
    250c:	19477b63          	bgeu	a4,s4,26a2 <_printf_float+0x414>
    2510:	4428                	lw	a0,72(s0)
    2512:	446c                	lw	a1,76(s0)
    2514:	4601                	li	a2,0
    2516:	4681                	li	a3,0
    2518:	02d050ef          	jal	ra,7d44 <__eqdf2>
    251c:	e939                	bnez	a0,2572 <_printf_float+0x2e4>
    251e:	4685                	li	a3,1
    2520:	00008617          	auipc	a2,0x8
    2524:	f6060613          	addi	a2,a2,-160 # a480 <__clz_tab+0x118>
    2528:	85ca                	mv	a1,s2
    252a:	8526                	mv	a0,s1
    252c:	9982                	jalr	s3
    252e:	e5950ee3          	beq	a0,s9,238a <_printf_float+0xfc>
    2532:	5752                	lw	a4,52(sp)
    2534:	57e2                	lw	a5,56(sp)
    2536:	00f74563          	blt	a4,a5,2540 <_printf_float+0x2b2>
    253a:	401c                	lw	a5,0(s0)
    253c:	8b85                	andi	a5,a5,1
    253e:	dbdd                	beqz	a5,24f4 <_printf_float+0x266>
    2540:	86e2                	mv	a3,s8
    2542:	865e                	mv	a2,s7
    2544:	85ca                	mv	a1,s2
    2546:	8526                	mv	a0,s1
    2548:	9982                	jalr	s3
    254a:	57fd                	li	a5,-1
    254c:	e2f50fe3          	beq	a0,a5,238a <_printf_float+0xfc>
    2550:	4a01                	li	s4,0
    2552:	01a40a93          	addi	s5,s0,26
    2556:	5b7d                	li	s6,-1
    2558:	57e2                	lw	a5,56(sp)
    255a:	17fd                	addi	a5,a5,-1
    255c:	f8fa5ce3          	bge	s4,a5,24f4 <_printf_float+0x266>
    2560:	4685                	li	a3,1
    2562:	8656                	mv	a2,s5
    2564:	85ca                	mv	a1,s2
    2566:	8526                	mv	a0,s1
    2568:	9982                	jalr	s3
    256a:	e36500e3          	beq	a0,s6,238a <_printf_float+0xfc>
    256e:	0a05                	addi	s4,s4,1
    2570:	b7e5                	j	2558 <_printf_float+0x2ca>
    2572:	57d2                	lw	a5,52(sp)
    2574:	06f04663          	bgtz	a5,25e0 <_printf_float+0x352>
    2578:	4685                	li	a3,1
    257a:	00008617          	auipc	a2,0x8
    257e:	f0660613          	addi	a2,a2,-250 # a480 <__clz_tab+0x118>
    2582:	85ca                	mv	a1,s2
    2584:	8526                	mv	a0,s1
    2586:	9982                	jalr	s3
    2588:	e19501e3          	beq	a0,s9,238a <_printf_float+0xfc>
    258c:	57d2                	lw	a5,52(sp)
    258e:	5762                	lw	a4,56(sp)
    2590:	8fd9                	or	a5,a5,a4
    2592:	e781                	bnez	a5,259a <_printf_float+0x30c>
    2594:	401c                	lw	a5,0(s0)
    2596:	8b85                	andi	a5,a5,1
    2598:	dfb1                	beqz	a5,24f4 <_printf_float+0x266>
    259a:	86e2                	mv	a3,s8
    259c:	865e                	mv	a2,s7
    259e:	85ca                	mv	a1,s2
    25a0:	8526                	mv	a0,s1
    25a2:	9982                	jalr	s3
    25a4:	57fd                	li	a5,-1
    25a6:	def502e3          	beq	a0,a5,238a <_printf_float+0xfc>
    25aa:	4a01                	li	s4,0
    25ac:	01a40b13          	addi	s6,s0,26
    25b0:	5bfd                	li	s7,-1
    25b2:	57d2                	lw	a5,52(sp)
    25b4:	40f007b3          	neg	a5,a5
    25b8:	00fa4b63          	blt	s4,a5,25ce <_printf_float+0x340>
    25bc:	56e2                	lw	a3,56(sp)
    25be:	8656                	mv	a2,s5
    25c0:	85ca                	mv	a1,s2
    25c2:	8526                	mv	a0,s1
    25c4:	9982                	jalr	s3
    25c6:	57fd                	li	a5,-1
    25c8:	f2f516e3          	bne	a0,a5,24f4 <_printf_float+0x266>
    25cc:	bb7d                	j	238a <_printf_float+0xfc>
    25ce:	4685                	li	a3,1
    25d0:	865a                	mv	a2,s6
    25d2:	85ca                	mv	a1,s2
    25d4:	8526                	mv	a0,s1
    25d6:	9982                	jalr	s3
    25d8:	db7509e3          	beq	a0,s7,238a <_printf_float+0xfc>
    25dc:	0a05                	addi	s4,s4,1
    25de:	bfd1                	j	25b2 <_printf_float+0x324>
    25e0:	4c3c                	lw	a5,88(s0)
    25e2:	5a62                	lw	s4,56(sp)
    25e4:	0147d363          	bge	a5,s4,25ea <_printf_float+0x35c>
    25e8:	8a3e                	mv	s4,a5
    25ea:	01405a63          	blez	s4,25fe <_printf_float+0x370>
    25ee:	86d2                	mv	a3,s4
    25f0:	8656                	mv	a2,s5
    25f2:	85ca                	mv	a1,s2
    25f4:	8526                	mv	a0,s1
    25f6:	9982                	jalr	s3
    25f8:	57fd                	li	a5,-1
    25fa:	d8f508e3          	beq	a0,a5,238a <_printf_float+0xfc>
    25fe:	4c81                	li	s9,0
    2600:	01a40d13          	addi	s10,s0,26
    2604:	5dfd                	li	s11,-1
    2606:	a809                	j	2618 <_printf_float+0x38a>
    2608:	4685                	li	a3,1
    260a:	866a                	mv	a2,s10
    260c:	85ca                	mv	a1,s2
    260e:	8526                	mv	a0,s1
    2610:	9982                	jalr	s3
    2612:	d7b50ce3          	beq	a0,s11,238a <_printf_float+0xfc>
    2616:	0c85                	addi	s9,s9,1
    2618:	05842b03          	lw	s6,88(s0)
    261c:	87d2                	mv	a5,s4
    261e:	000a5363          	bgez	s4,2624 <_printf_float+0x396>
    2622:	4781                	li	a5,0
    2624:	40fb07b3          	sub	a5,s6,a5
    2628:	fefcc0e3          	blt	s9,a5,2608 <_printf_float+0x37a>
    262c:	5752                	lw	a4,52(sp)
    262e:	57e2                	lw	a5,56(sp)
    2630:	02f74d63          	blt	a4,a5,266a <_printf_float+0x3dc>
    2634:	401c                	lw	a5,0(s0)
    2636:	8b85                	andi	a5,a5,1
    2638:	eb8d                	bnez	a5,266a <_printf_float+0x3dc>
    263a:	57e2                	lw	a5,56(sp)
    263c:	5752                	lw	a4,52(sp)
    263e:	40e78a33          	sub	s4,a5,a4
    2642:	00eb4463          	blt	s6,a4,264a <_printf_float+0x3bc>
    2646:	41678a33          	sub	s4,a5,s6
    264a:	01405b63          	blez	s4,2660 <_printf_float+0x3d2>
    264e:	86d2                	mv	a3,s4
    2650:	016a8633          	add	a2,s5,s6
    2654:	85ca                	mv	a1,s2
    2656:	8526                	mv	a0,s1
    2658:	9982                	jalr	s3
    265a:	57fd                	li	a5,-1
    265c:	d2f507e3          	beq	a0,a5,238a <_printf_float+0xfc>
    2660:	4a81                	li	s5,0
    2662:	01a40b13          	addi	s6,s0,26
    2666:	5bfd                	li	s7,-1
    2668:	a015                	j	268c <_printf_float+0x3fe>
    266a:	86e2                	mv	a3,s8
    266c:	865e                	mv	a2,s7
    266e:	85ca                	mv	a1,s2
    2670:	8526                	mv	a0,s1
    2672:	9982                	jalr	s3
    2674:	57fd                	li	a5,-1
    2676:	fcf512e3          	bne	a0,a5,263a <_printf_float+0x3ac>
    267a:	bb01                	j	238a <_printf_float+0xfc>
    267c:	4685                	li	a3,1
    267e:	865a                	mv	a2,s6
    2680:	85ca                	mv	a1,s2
    2682:	8526                	mv	a0,s1
    2684:	9982                	jalr	s3
    2686:	d17502e3          	beq	a0,s7,238a <_printf_float+0xfc>
    268a:	0a85                	addi	s5,s5,1
    268c:	5752                	lw	a4,52(sp)
    268e:	57e2                	lw	a5,56(sp)
    2690:	8f99                	sub	a5,a5,a4
    2692:	8752                	mv	a4,s4
    2694:	000a5363          	bgez	s4,269a <_printf_float+0x40c>
    2698:	4701                	li	a4,0
    269a:	8f99                	sub	a5,a5,a4
    269c:	fefac0e3          	blt	s5,a5,267c <_printf_float+0x3ee>
    26a0:	bd91                	j	24f4 <_printf_float+0x266>
    26a2:	56e2                	lw	a3,56(sp)
    26a4:	4705                	li	a4,1
    26a6:	00d74463          	blt	a4,a3,26ae <_printf_float+0x420>
    26aa:	8b85                	andi	a5,a5,1
    26ac:	c7b5                	beqz	a5,2718 <_printf_float+0x48a>
    26ae:	4685                	li	a3,1
    26b0:	8656                	mv	a2,s5
    26b2:	85ca                	mv	a1,s2
    26b4:	8526                	mv	a0,s1
    26b6:	9982                	jalr	s3
    26b8:	5a7d                	li	s4,-1
    26ba:	cd4508e3          	beq	a0,s4,238a <_printf_float+0xfc>
    26be:	86e2                	mv	a3,s8
    26c0:	865e                	mv	a2,s7
    26c2:	85ca                	mv	a1,s2
    26c4:	8526                	mv	a0,s1
    26c6:	9982                	jalr	s3
    26c8:	cd4501e3          	beq	a0,s4,238a <_printf_float+0xfc>
    26cc:	4428                	lw	a0,72(s0)
    26ce:	446c                	lw	a1,76(s0)
    26d0:	4601                	li	a2,0
    26d2:	4681                	li	a3,0
    26d4:	670050ef          	jal	ra,7d44 <__eqdf2>
    26d8:	c91d                	beqz	a0,270e <_printf_float+0x480>
    26da:	56e2                	lw	a3,56(sp)
    26dc:	001a8613          	addi	a2,s5,1
    26e0:	85ca                	mv	a1,s2
    26e2:	16fd                	addi	a3,a3,-1
    26e4:	8526                	mv	a0,s1
    26e6:	9982                	jalr	s3
    26e8:	cb4501e3          	beq	a0,s4,238a <_printf_float+0xfc>
    26ec:	86da                	mv	a3,s6
    26ee:	05040613          	addi	a2,s0,80
    26f2:	b5f9                	j	25c0 <_printf_float+0x332>
    26f4:	4685                	li	a3,1
    26f6:	8656                	mv	a2,s5
    26f8:	85ca                	mv	a1,s2
    26fa:	8526                	mv	a0,s1
    26fc:	9982                	jalr	s3
    26fe:	c97506e3          	beq	a0,s7,238a <_printf_float+0xfc>
    2702:	0a05                	addi	s4,s4,1
    2704:	57e2                	lw	a5,56(sp)
    2706:	17fd                	addi	a5,a5,-1
    2708:	fefa46e3          	blt	s4,a5,26f4 <_printf_float+0x466>
    270c:	b7c5                	j	26ec <_printf_float+0x45e>
    270e:	4a01                	li	s4,0
    2710:	01a40a93          	addi	s5,s0,26
    2714:	5bfd                	li	s7,-1
    2716:	b7fd                	j	2704 <_printf_float+0x476>
    2718:	4685                	li	a3,1
    271a:	8656                	mv	a2,s5
    271c:	85ca                	mv	a1,s2
    271e:	8526                	mv	a0,s1
    2720:	9982                	jalr	s3
    2722:	fd9515e3          	bne	a0,s9,26ec <_printf_float+0x45e>
    2726:	b195                	j	238a <_printf_float+0xfc>
    2728:	4685                	li	a3,1
    272a:	8656                	mv	a2,s5
    272c:	85ca                	mv	a1,s2
    272e:	8526                	mv	a0,s1
    2730:	9982                	jalr	s3
    2732:	c5650ce3          	beq	a0,s6,238a <_printf_float+0xfc>
    2736:	0a05                	addi	s4,s4,1
    2738:	445c                	lw	a5,12(s0)
    273a:	5772                	lw	a4,60(sp)
    273c:	8f99                	sub	a5,a5,a4
    273e:	fefa45e3          	blt	s4,a5,2728 <_printf_float+0x49a>
    2742:	bb6d                	j	24fc <_printf_float+0x26e>
    2744:	4a01                	li	s4,0
    2746:	01940a93          	addi	s5,s0,25
    274a:	5b7d                	li	s6,-1
    274c:	b7f5                	j	2738 <_printf_float+0x4aa>

0000274e <_printf_common>:
    274e:	7179                	addi	sp,sp,-48
    2750:	ca56                	sw	s5,20(sp)
    2752:	499c                	lw	a5,16(a1)
    2754:	8aba                	mv	s5,a4
    2756:	4598                	lw	a4,8(a1)
    2758:	d422                	sw	s0,40(sp)
    275a:	d226                	sw	s1,36(sp)
    275c:	ce4e                	sw	s3,28(sp)
    275e:	cc52                	sw	s4,24(sp)
    2760:	d606                	sw	ra,44(sp)
    2762:	d04a                	sw	s2,32(sp)
    2764:	c85a                	sw	s6,16(sp)
    2766:	c65e                	sw	s7,12(sp)
    2768:	89aa                	mv	s3,a0
    276a:	842e                	mv	s0,a1
    276c:	84b2                	mv	s1,a2
    276e:	8a36                	mv	s4,a3
    2770:	00e7d363          	bge	a5,a4,2776 <_printf_common+0x28>
    2774:	87ba                	mv	a5,a4
    2776:	c09c                	sw	a5,0(s1)
    2778:	04344703          	lbu	a4,67(s0)
    277c:	c319                	beqz	a4,2782 <_printf_common+0x34>
    277e:	0785                	addi	a5,a5,1
    2780:	c09c                	sw	a5,0(s1)
    2782:	401c                	lw	a5,0(s0)
    2784:	0207f793          	andi	a5,a5,32
    2788:	c781                	beqz	a5,2790 <_printf_common+0x42>
    278a:	409c                	lw	a5,0(s1)
    278c:	0789                	addi	a5,a5,2
    278e:	c09c                	sw	a5,0(s1)
    2790:	00042903          	lw	s2,0(s0)
    2794:	00697913          	andi	s2,s2,6
    2798:	00091a63          	bnez	s2,27ac <_printf_common+0x5e>
    279c:	01940b13          	addi	s6,s0,25
    27a0:	5bfd                	li	s7,-1
    27a2:	445c                	lw	a5,12(s0)
    27a4:	4098                	lw	a4,0(s1)
    27a6:	8f99                	sub	a5,a5,a4
    27a8:	04f94c63          	blt	s2,a5,2800 <_printf_common+0xb2>
    27ac:	401c                	lw	a5,0(s0)
    27ae:	04344683          	lbu	a3,67(s0)
    27b2:	0207f793          	andi	a5,a5,32
    27b6:	00d036b3          	snez	a3,a3
    27ba:	eba5                	bnez	a5,282a <_printf_common+0xdc>
    27bc:	04340613          	addi	a2,s0,67
    27c0:	85d2                	mv	a1,s4
    27c2:	854e                	mv	a0,s3
    27c4:	9a82                	jalr	s5
    27c6:	57fd                	li	a5,-1
    27c8:	04f50363          	beq	a0,a5,280e <_printf_common+0xc0>
    27cc:	401c                	lw	a5,0(s0)
    27ce:	4611                	li	a2,4
    27d0:	4098                	lw	a4,0(s1)
    27d2:	8b99                	andi	a5,a5,6
    27d4:	4454                	lw	a3,12(s0)
    27d6:	4481                	li	s1,0
    27d8:	00c79763          	bne	a5,a2,27e6 <_printf_common+0x98>
    27dc:	40e684b3          	sub	s1,a3,a4
    27e0:	0004d363          	bgez	s1,27e6 <_printf_common+0x98>
    27e4:	4481                	li	s1,0
    27e6:	441c                	lw	a5,8(s0)
    27e8:	4818                	lw	a4,16(s0)
    27ea:	00f75463          	bge	a4,a5,27f2 <_printf_common+0xa4>
    27ee:	8f99                	sub	a5,a5,a4
    27f0:	94be                	add	s1,s1,a5
    27f2:	4901                	li	s2,0
    27f4:	0469                	addi	s0,s0,26
    27f6:	5b7d                	li	s6,-1
    27f8:	05249863          	bne	s1,s2,2848 <_printf_common+0xfa>
    27fc:	4501                	li	a0,0
    27fe:	a809                	j	2810 <_printf_common+0xc2>
    2800:	4685                	li	a3,1
    2802:	865a                	mv	a2,s6
    2804:	85d2                	mv	a1,s4
    2806:	854e                	mv	a0,s3
    2808:	9a82                	jalr	s5
    280a:	01751e63          	bne	a0,s7,2826 <_printf_common+0xd8>
    280e:	557d                	li	a0,-1
    2810:	50b2                	lw	ra,44(sp)
    2812:	5422                	lw	s0,40(sp)
    2814:	5492                	lw	s1,36(sp)
    2816:	5902                	lw	s2,32(sp)
    2818:	49f2                	lw	s3,28(sp)
    281a:	4a62                	lw	s4,24(sp)
    281c:	4ad2                	lw	s5,20(sp)
    281e:	4b42                	lw	s6,16(sp)
    2820:	4bb2                	lw	s7,12(sp)
    2822:	6145                	addi	sp,sp,48
    2824:	8082                	ret
    2826:	0905                	addi	s2,s2,1
    2828:	bfad                	j	27a2 <_printf_common+0x54>
    282a:	00d40733          	add	a4,s0,a3
    282e:	03000613          	li	a2,48
    2832:	04c701a3          	sb	a2,67(a4)
    2836:	04544703          	lbu	a4,69(s0)
    283a:	00168793          	addi	a5,a3,1
    283e:	97a2                	add	a5,a5,s0
    2840:	0689                	addi	a3,a3,2
    2842:	04e781a3          	sb	a4,67(a5)
    2846:	bf9d                	j	27bc <_printf_common+0x6e>
    2848:	4685                	li	a3,1
    284a:	8622                	mv	a2,s0
    284c:	85d2                	mv	a1,s4
    284e:	854e                	mv	a0,s3
    2850:	9a82                	jalr	s5
    2852:	fb650ee3          	beq	a0,s6,280e <_printf_common+0xc0>
    2856:	0905                	addi	s2,s2,1
    2858:	b745                	j	27f8 <_printf_common+0xaa>

0000285a <_printf_i>:
    285a:	7179                	addi	sp,sp,-48
    285c:	d422                	sw	s0,40(sp)
    285e:	d226                	sw	s1,36(sp)
    2860:	d04a                	sw	s2,32(sp)
    2862:	ce4e                	sw	s3,28(sp)
    2864:	d606                	sw	ra,44(sp)
    2866:	cc52                	sw	s4,24(sp)
    2868:	ca56                	sw	s5,20(sp)
    286a:	c85a                	sw	s6,16(sp)
    286c:	89b6                	mv	s3,a3
    286e:	0185c683          	lbu	a3,24(a1)
    2872:	06900793          	li	a5,105
    2876:	8932                	mv	s2,a2
    2878:	84aa                	mv	s1,a0
    287a:	842e                	mv	s0,a1
    287c:	04358613          	addi	a2,a1,67
    2880:	02f68d63          	beq	a3,a5,28ba <_printf_i+0x60>
    2884:	06d7e263          	bltu	a5,a3,28e8 <_printf_i+0x8e>
    2888:	05800793          	li	a5,88
    288c:	18f68863          	beq	a3,a5,2a1c <_printf_i+0x1c2>
    2890:	00d7ed63          	bltu	a5,a3,28aa <_printf_i+0x50>
    2894:	22068163          	beqz	a3,2ab6 <_printf_i+0x25c>
    2898:	04300793          	li	a5,67
    289c:	0af68f63          	beq	a3,a5,295a <_printf_i+0x100>
    28a0:	04240a93          	addi	s5,s0,66
    28a4:	04d40123          	sb	a3,66(s0)
    28a8:	a0d1                	j	296c <_printf_i+0x112>
    28aa:	06300793          	li	a5,99
    28ae:	0af68663          	beq	a3,a5,295a <_printf_i+0x100>
    28b2:	06400793          	li	a5,100
    28b6:	fef695e3          	bne	a3,a5,28a0 <_printf_i+0x46>
    28ba:	401c                	lw	a5,0(s0)
    28bc:	4308                	lw	a0,0(a4)
    28be:	0807f693          	andi	a3,a5,128
    28c2:	00450593          	addi	a1,a0,4
    28c6:	c6cd                	beqz	a3,2970 <_printf_i+0x116>
    28c8:	411c                	lw	a5,0(a0)
    28ca:	c30c                	sw	a1,0(a4)
    28cc:	0007d863          	bgez	a5,28dc <_printf_i+0x82>
    28d0:	02d00713          	li	a4,45
    28d4:	40f007b3          	neg	a5,a5
    28d8:	04e401a3          	sb	a4,67(s0)
    28dc:	00008697          	auipc	a3,0x8
    28e0:	ba868693          	addi	a3,a3,-1112 # a484 <__clz_tab+0x11c>
    28e4:	4729                	li	a4,10
    28e6:	a875                	j	29a2 <_printf_i+0x148>
    28e8:	07000793          	li	a5,112
    28ec:	16f68463          	beq	a3,a5,2a54 <_printf_i+0x1fa>
    28f0:	02d7e563          	bltu	a5,a3,291a <_printf_i+0xc0>
    28f4:	06e00793          	li	a5,110
    28f8:	18f68b63          	beq	a3,a5,2a8e <_printf_i+0x234>
    28fc:	06f00793          	li	a5,111
    2900:	faf690e3          	bne	a3,a5,28a0 <_printf_i+0x46>
    2904:	400c                	lw	a1,0(s0)
    2906:	431c                	lw	a5,0(a4)
    2908:	0805f813          	andi	a6,a1,128
    290c:	00478513          	addi	a0,a5,4
    2910:	06080863          	beqz	a6,2980 <_printf_i+0x126>
    2914:	c308                	sw	a0,0(a4)
    2916:	439c                	lw	a5,0(a5)
    2918:	a895                	j	298c <_printf_i+0x132>
    291a:	07500793          	li	a5,117
    291e:	fef683e3          	beq	a3,a5,2904 <_printf_i+0xaa>
    2922:	07800793          	li	a5,120
    2926:	12f68b63          	beq	a3,a5,2a5c <_printf_i+0x202>
    292a:	07300793          	li	a5,115
    292e:	f6f699e3          	bne	a3,a5,28a0 <_printf_i+0x46>
    2932:	431c                	lw	a5,0(a4)
    2934:	41d0                	lw	a2,4(a1)
    2936:	4581                	li	a1,0
    2938:	00478693          	addi	a3,a5,4
    293c:	c314                	sw	a3,0(a4)
    293e:	0007aa83          	lw	s5,0(a5)
    2942:	8556                	mv	a0,s5
    2944:	1b0030ef          	jal	ra,5af4 <memchr>
    2948:	c501                	beqz	a0,2950 <_printf_i+0xf6>
    294a:	41550533          	sub	a0,a0,s5
    294e:	c048                	sw	a0,4(s0)
    2950:	405c                	lw	a5,4(s0)
    2952:	c81c                	sw	a5,16(s0)
    2954:	040401a3          	sb	zero,67(s0)
    2958:	a871                	j	29f4 <_printf_i+0x19a>
    295a:	431c                	lw	a5,0(a4)
    295c:	04240a93          	addi	s5,s0,66
    2960:	00478693          	addi	a3,a5,4
    2964:	439c                	lw	a5,0(a5)
    2966:	c314                	sw	a3,0(a4)
    2968:	04f40123          	sb	a5,66(s0)
    296c:	4785                	li	a5,1
    296e:	b7d5                	j	2952 <_printf_i+0xf8>
    2970:	0407f693          	andi	a3,a5,64
    2974:	411c                	lw	a5,0(a0)
    2976:	c30c                	sw	a1,0(a4)
    2978:	dab1                	beqz	a3,28cc <_printf_i+0x72>
    297a:	07c2                	slli	a5,a5,0x10
    297c:	87c1                	srai	a5,a5,0x10
    297e:	b7b9                	j	28cc <_printf_i+0x72>
    2980:	0405f593          	andi	a1,a1,64
    2984:	c308                	sw	a0,0(a4)
    2986:	d9c1                	beqz	a1,2916 <_printf_i+0xbc>
    2988:	0007d783          	lhu	a5,0(a5)
    298c:	06f00713          	li	a4,111
    2990:	0ee68763          	beq	a3,a4,2a7e <_printf_i+0x224>
    2994:	00008697          	auipc	a3,0x8
    2998:	af068693          	addi	a3,a3,-1296 # a484 <__clz_tab+0x11c>
    299c:	4729                	li	a4,10
    299e:	040401a3          	sb	zero,67(s0)
    29a2:	404c                	lw	a1,4(s0)
    29a4:	c40c                	sw	a1,8(s0)
    29a6:	0005c563          	bltz	a1,29b0 <_printf_i+0x156>
    29aa:	4008                	lw	a0,0(s0)
    29ac:	996d                	andi	a0,a0,-5
    29ae:	c008                	sw	a0,0(s0)
    29b0:	e399                	bnez	a5,29b6 <_printf_i+0x15c>
    29b2:	8ab2                	mv	s5,a2
    29b4:	cd91                	beqz	a1,29d0 <_printf_i+0x176>
    29b6:	8ab2                	mv	s5,a2
    29b8:	02e7f5b3          	remu	a1,a5,a4
    29bc:	1afd                	addi	s5,s5,-1
    29be:	95b6                	add	a1,a1,a3
    29c0:	0005c583          	lbu	a1,0(a1)
    29c4:	00ba8023          	sb	a1,0(s5)
    29c8:	02e7d5b3          	divu	a1,a5,a4
    29cc:	0ae7ff63          	bgeu	a5,a4,2a8a <_printf_i+0x230>
    29d0:	47a1                	li	a5,8
    29d2:	00f71e63          	bne	a4,a5,29ee <_printf_i+0x194>
    29d6:	401c                	lw	a5,0(s0)
    29d8:	8b85                	andi	a5,a5,1
    29da:	cb91                	beqz	a5,29ee <_printf_i+0x194>
    29dc:	4058                	lw	a4,4(s0)
    29de:	481c                	lw	a5,16(s0)
    29e0:	00e7c763          	blt	a5,a4,29ee <_printf_i+0x194>
    29e4:	03000793          	li	a5,48
    29e8:	fefa8fa3          	sb	a5,-1(s5)
    29ec:	1afd                	addi	s5,s5,-1
    29ee:	41560633          	sub	a2,a2,s5
    29f2:	c810                	sw	a2,16(s0)
    29f4:	874e                	mv	a4,s3
    29f6:	86ca                	mv	a3,s2
    29f8:	0070                	addi	a2,sp,12
    29fa:	85a2                	mv	a1,s0
    29fc:	8526                	mv	a0,s1
    29fe:	3b81                	jal	274e <_printf_common>
    2a00:	5a7d                	li	s4,-1
    2a02:	0b451e63          	bne	a0,s4,2abe <_printf_i+0x264>
    2a06:	557d                	li	a0,-1
    2a08:	50b2                	lw	ra,44(sp)
    2a0a:	5422                	lw	s0,40(sp)
    2a0c:	5492                	lw	s1,36(sp)
    2a0e:	5902                	lw	s2,32(sp)
    2a10:	49f2                	lw	s3,28(sp)
    2a12:	4a62                	lw	s4,24(sp)
    2a14:	4ad2                	lw	s5,20(sp)
    2a16:	4b42                	lw	s6,16(sp)
    2a18:	6145                	addi	sp,sp,48
    2a1a:	8082                	ret
    2a1c:	04d582a3          	sb	a3,69(a1)
    2a20:	00008697          	auipc	a3,0x8
    2a24:	a6468693          	addi	a3,a3,-1436 # a484 <__clz_tab+0x11c>
    2a28:	400c                	lw	a1,0(s0)
    2a2a:	4308                	lw	a0,0(a4)
    2a2c:	0805f813          	andi	a6,a1,128
    2a30:	411c                	lw	a5,0(a0)
    2a32:	0511                	addi	a0,a0,4
    2a34:	02080d63          	beqz	a6,2a6e <_printf_i+0x214>
    2a38:	c308                	sw	a0,0(a4)
    2a3a:	0015f713          	andi	a4,a1,1
    2a3e:	c701                	beqz	a4,2a46 <_printf_i+0x1ec>
    2a40:	0205e593          	ori	a1,a1,32
    2a44:	c00c                	sw	a1,0(s0)
    2a46:	4741                	li	a4,16
    2a48:	fbb9                	bnez	a5,299e <_printf_i+0x144>
    2a4a:	400c                	lw	a1,0(s0)
    2a4c:	fdf5f593          	andi	a1,a1,-33
    2a50:	c00c                	sw	a1,0(s0)
    2a52:	b7b1                	j	299e <_printf_i+0x144>
    2a54:	419c                	lw	a5,0(a1)
    2a56:	0207e793          	ori	a5,a5,32
    2a5a:	c19c                	sw	a5,0(a1)
    2a5c:	07800793          	li	a5,120
    2a60:	04f402a3          	sb	a5,69(s0)
    2a64:	00008697          	auipc	a3,0x8
    2a68:	a3468693          	addi	a3,a3,-1484 # a498 <__clz_tab+0x130>
    2a6c:	bf75                	j	2a28 <_printf_i+0x1ce>
    2a6e:	0405f813          	andi	a6,a1,64
    2a72:	c308                	sw	a0,0(a4)
    2a74:	fc0803e3          	beqz	a6,2a3a <_printf_i+0x1e0>
    2a78:	07c2                	slli	a5,a5,0x10
    2a7a:	83c1                	srli	a5,a5,0x10
    2a7c:	bf7d                	j	2a3a <_printf_i+0x1e0>
    2a7e:	00008697          	auipc	a3,0x8
    2a82:	a0668693          	addi	a3,a3,-1530 # a484 <__clz_tab+0x11c>
    2a86:	4721                	li	a4,8
    2a88:	bf19                	j	299e <_printf_i+0x144>
    2a8a:	87ae                	mv	a5,a1
    2a8c:	b735                	j	29b8 <_printf_i+0x15e>
    2a8e:	4194                	lw	a3,0(a1)
    2a90:	431c                	lw	a5,0(a4)
    2a92:	49cc                	lw	a1,20(a1)
    2a94:	0806f813          	andi	a6,a3,128
    2a98:	00478513          	addi	a0,a5,4
    2a9c:	00080663          	beqz	a6,2aa8 <_printf_i+0x24e>
    2aa0:	c308                	sw	a0,0(a4)
    2aa2:	439c                	lw	a5,0(a5)
    2aa4:	c38c                	sw	a1,0(a5)
    2aa6:	a801                	j	2ab6 <_printf_i+0x25c>
    2aa8:	c308                	sw	a0,0(a4)
    2aaa:	0406f693          	andi	a3,a3,64
    2aae:	439c                	lw	a5,0(a5)
    2ab0:	daf5                	beqz	a3,2aa4 <_printf_i+0x24a>
    2ab2:	00b79023          	sh	a1,0(a5)
    2ab6:	00042823          	sw	zero,16(s0)
    2aba:	8ab2                	mv	s5,a2
    2abc:	bf25                	j	29f4 <_printf_i+0x19a>
    2abe:	4814                	lw	a3,16(s0)
    2ac0:	8656                	mv	a2,s5
    2ac2:	85ca                	mv	a1,s2
    2ac4:	8526                	mv	a0,s1
    2ac6:	9982                	jalr	s3
    2ac8:	f3450fe3          	beq	a0,s4,2a06 <_printf_i+0x1ac>
    2acc:	401c                	lw	a5,0(s0)
    2ace:	8b89                	andi	a5,a5,2
    2ad0:	e78d                	bnez	a5,2afa <_printf_i+0x2a0>
    2ad2:	47b2                	lw	a5,12(sp)
    2ad4:	4448                	lw	a0,12(s0)
    2ad6:	f2f559e3          	bge	a0,a5,2a08 <_printf_i+0x1ae>
    2ada:	853e                	mv	a0,a5
    2adc:	b735                	j	2a08 <_printf_i+0x1ae>
    2ade:	4685                	li	a3,1
    2ae0:	8656                	mv	a2,s5
    2ae2:	85ca                	mv	a1,s2
    2ae4:	8526                	mv	a0,s1
    2ae6:	9982                	jalr	s3
    2ae8:	f1650fe3          	beq	a0,s6,2a06 <_printf_i+0x1ac>
    2aec:	0a05                	addi	s4,s4,1
    2aee:	445c                	lw	a5,12(s0)
    2af0:	4732                	lw	a4,12(sp)
    2af2:	8f99                	sub	a5,a5,a4
    2af4:	fefa45e3          	blt	s4,a5,2ade <_printf_i+0x284>
    2af8:	bfe9                	j	2ad2 <_printf_i+0x278>
    2afa:	4a01                	li	s4,0
    2afc:	01940a93          	addi	s5,s0,25
    2b00:	5b7d                	li	s6,-1
    2b02:	b7f5                	j	2aee <_printf_i+0x294>

00002b04 <_scanf_float>:
    2b04:	459c                	lw	a5,8(a1)
    2b06:	711d                	addi	sp,sp,-96
    2b08:	cca2                	sw	s0,88(sp)
    2b0a:	c6ce                	sw	s3,76(sp)
    2b0c:	c0da                	sw	s6,64(sp)
    2b0e:	da66                	sw	s9,52(sp)
    2b10:	ce86                	sw	ra,92(sp)
    2b12:	8cb2                	mv	s9,a2
    2b14:	caa6                	sw	s1,84(sp)
    2b16:	c8ca                	sw	s2,80(sp)
    2b18:	c4d2                	sw	s4,72(sp)
    2b1a:	c2d6                	sw	s5,68(sp)
    2b1c:	de5e                	sw	s7,60(sp)
    2b1e:	dc62                	sw	s8,56(sp)
    2b20:	d86a                	sw	s10,48(sp)
    2b22:	d66e                	sw	s11,44(sp)
    2b24:	fff78613          	addi	a2,a5,-1
    2b28:	15c00713          	li	a4,348
    2b2c:	8b36                	mv	s6,a3
    2b2e:	89aa                	mv	s3,a0
    2b30:	842e                	mv	s0,a1
    2b32:	4681                	li	a3,0
    2b34:	00c77763          	bgeu	a4,a2,2b42 <_scanf_float+0x3e>
    2b38:	ea378693          	addi	a3,a5,-349
    2b3c:	15d00793          	li	a5,349
    2b40:	c59c                	sw	a5,8(a1)
    2b42:	401c                	lw	a5,0(s0)
    2b44:	01c40a93          	addi	s5,s0,28
    2b48:	84d6                	mv	s1,s5
    2b4a:	7807e793          	ori	a5,a5,1920
    2b4e:	c01c                	sw	a5,0(s0)
    2b50:	4901                	li	s2,0
    2b52:	4d81                	li	s11,0
    2b54:	4c01                	li	s8,0
    2b56:	4a01                	li	s4,0
    2b58:	4d01                	li	s10,0
    2b5a:	4b81                	li	s7,0
    2b5c:	04900613          	li	a2,73
    2b60:	70000813          	li	a6,1792
    2b64:	4885                	li	a7,1
    2b66:	40000e93          	li	t4,1024
    2b6a:	4309                	li	t1,2
    2b6c:	06500e13          	li	t3,101
    2b70:	4f1d                	li	t5,7
    2b72:	4418                	lw	a4,8(s0)
    2b74:	cb1d                	beqz	a4,2baa <_scanf_float+0xa6>
    2b76:	000ca783          	lw	a5,0(s9)
    2b7a:	0007c783          	lbu	a5,0(a5)
    2b7e:	12c78b63          	beq	a5,a2,2cb4 <_scanf_float+0x1b0>
    2b82:	0cf66863          	bltu	a2,a5,2c52 <_scanf_float+0x14e>
    2b86:	03900593          	li	a1,57
    2b8a:	0af5e463          	bltu	a1,a5,2c32 <_scanf_float+0x12e>
    2b8e:	03100593          	li	a1,49
    2b92:	14b7fb63          	bgeu	a5,a1,2ce8 <_scanf_float+0x1e4>
    2b96:	02d00593          	li	a1,45
    2b9a:	16b78363          	beq	a5,a1,2d00 <_scanf_float+0x1fc>
    2b9e:	04f5e363          	bltu	a1,a5,2be4 <_scanf_float+0xe0>
    2ba2:	02b00713          	li	a4,43
    2ba6:	14e78d63          	beq	a5,a4,2d00 <_scanf_float+0x1fc>
    2baa:	000d0663          	beqz	s10,2bb6 <_scanf_float+0xb2>
    2bae:	401c                	lw	a5,0(s0)
    2bb0:	eff7f793          	andi	a5,a5,-257
    2bb4:	c01c                	sw	a5,0(s0)
    2bb6:	1dfd                	addi	s11,s11,-1
    2bb8:	4785                	li	a5,1
    2bba:	21b7eb63          	bltu	a5,s11,2dd0 <_scanf_float+0x2cc>
    2bbe:	1e9aed63          	bltu	s5,s1,2db8 <_scanf_float+0x2b4>
    2bc2:	4905                	li	s2,1
    2bc4:	40f6                	lw	ra,92(sp)
    2bc6:	4466                	lw	s0,88(sp)
    2bc8:	854a                	mv	a0,s2
    2bca:	44d6                	lw	s1,84(sp)
    2bcc:	4946                	lw	s2,80(sp)
    2bce:	49b6                	lw	s3,76(sp)
    2bd0:	4a26                	lw	s4,72(sp)
    2bd2:	4a96                	lw	s5,68(sp)
    2bd4:	4b06                	lw	s6,64(sp)
    2bd6:	5bf2                	lw	s7,60(sp)
    2bd8:	5c62                	lw	s8,56(sp)
    2bda:	5cd2                	lw	s9,52(sp)
    2bdc:	5d42                	lw	s10,48(sp)
    2bde:	5db2                	lw	s11,44(sp)
    2be0:	6125                	addi	sp,sp,96
    2be2:	8082                	ret
    2be4:	02e00593          	li	a1,46
    2be8:	14b78f63          	beq	a5,a1,2d46 <_scanf_float+0x242>
    2bec:	03000593          	li	a1,48
    2bf0:	fab79de3          	bne	a5,a1,2baa <_scanf_float+0xa6>
    2bf4:	400c                	lw	a1,0(s0)
    2bf6:	1005f513          	andi	a0,a1,256
    2bfa:	c57d                	beqz	a0,2ce8 <_scanf_float+0x1e4>
    2bfc:	f7f5f593          	andi	a1,a1,-129
    2c00:	c00c                	sw	a1,0(s0)
    2c02:	0d05                	addi	s10,s10,1
    2c04:	c681                	beqz	a3,2c0c <_scanf_float+0x108>
    2c06:	0705                	addi	a4,a4,1
    2c08:	16fd                	addi	a3,a3,-1
    2c0a:	c418                	sw	a4,8(s0)
    2c0c:	441c                	lw	a5,8(s0)
    2c0e:	17fd                	addi	a5,a5,-1
    2c10:	c41c                	sw	a5,8(s0)
    2c12:	481c                	lw	a5,16(s0)
    2c14:	0785                	addi	a5,a5,1
    2c16:	c81c                	sw	a5,16(s0)
    2c18:	004ca783          	lw	a5,4(s9)
    2c1c:	17fd                	addi	a5,a5,-1
    2c1e:	00fca223          	sw	a5,4(s9)
    2c22:	16f05663          	blez	a5,2d8e <_scanf_float+0x28a>
    2c26:	000ca783          	lw	a5,0(s9)
    2c2a:	0785                	addi	a5,a5,1
    2c2c:	00fca023          	sw	a5,0(s9)
    2c30:	b789                	j	2b72 <_scanf_float+0x6e>
    2c32:	04500713          	li	a4,69
    2c36:	12e78263          	beq	a5,a4,2d5a <_scanf_float+0x256>
    2c3a:	04600713          	li	a4,70
    2c3e:	0ee78b63          	beq	a5,a4,2d34 <_scanf_float+0x230>
    2c42:	04100713          	li	a4,65
    2c46:	f6e792e3          	bne	a5,a4,2baa <_scanf_float+0xa6>
    2c4a:	f71d90e3          	bne	s11,a7,2baa <_scanf_float+0xa6>
    2c4e:	4d89                	li	s11,2
    2c50:	a065                	j	2cf8 <_scanf_float+0x1f4>
    2c52:	11c78463          	beq	a5,t3,2d5a <_scanf_float+0x256>
    2c56:	04fe6163          	bltu	t3,a5,2c98 <_scanf_float+0x194>
    2c5a:	05400713          	li	a4,84
    2c5e:	0ce78f63          	beq	a5,a4,2d3c <_scanf_float+0x238>
    2c62:	02f76463          	bltu	a4,a5,2c8a <_scanf_float+0x186>
    2c66:	04e00713          	li	a4,78
    2c6a:	f4e790e3          	bne	a5,a4,2baa <_scanf_float+0xa6>
    2c6e:	0a0d9163          	bnez	s11,2d10 <_scanf_float+0x20c>
    2c72:	0a0d1163          	bnez	s10,2d14 <_scanf_float+0x210>
    2c76:	4018                	lw	a4,0(s0)
    2c78:	70077593          	andi	a1,a4,1792
    2c7c:	09059c63          	bne	a1,a6,2d14 <_scanf_float+0x210>
    2c80:	87f77713          	andi	a4,a4,-1921
    2c84:	c018                	sw	a4,0(s0)
    2c86:	4d85                	li	s11,1
    2c88:	a885                	j	2cf8 <_scanf_float+0x1f4>
    2c8a:	05900713          	li	a4,89
    2c8e:	04e78963          	beq	a5,a4,2ce0 <_scanf_float+0x1dc>
    2c92:	06100713          	li	a4,97
    2c96:	bf45                	j	2c46 <_scanf_float+0x142>
    2c98:	06e00713          	li	a4,110
    2c9c:	fce789e3          	beq	a5,a4,2c6e <_scanf_float+0x16a>
    2ca0:	02f76863          	bltu	a4,a5,2cd0 <_scanf_float+0x1cc>
    2ca4:	06600713          	li	a4,102
    2ca8:	08e78663          	beq	a5,a4,2d34 <_scanf_float+0x230>
    2cac:	06900713          	li	a4,105
    2cb0:	eee79de3          	bne	a5,a4,2baa <_scanf_float+0xa6>
    2cb4:	06091963          	bnez	s2,2d26 <_scanf_float+0x222>
    2cb8:	ee0d1be3          	bnez	s10,2bae <_scanf_float+0xaa>
    2cbc:	4018                	lw	a4,0(s0)
    2cbe:	70077593          	andi	a1,a4,1792
    2cc2:	ef059ae3          	bne	a1,a6,2bb6 <_scanf_float+0xb2>
    2cc6:	87f77713          	andi	a4,a4,-1921
    2cca:	c018                	sw	a4,0(s0)
    2ccc:	4905                	li	s2,1
    2cce:	a02d                	j	2cf8 <_scanf_float+0x1f4>
    2cd0:	07400713          	li	a4,116
    2cd4:	06e78463          	beq	a5,a4,2d3c <_scanf_float+0x238>
    2cd8:	07900713          	li	a4,121
    2cdc:	ece797e3          	bne	a5,a4,2baa <_scanf_float+0xa6>
    2ce0:	ede915e3          	bne	s2,t5,2baa <_scanf_float+0xa6>
    2ce4:	4921                	li	s2,8
    2ce6:	a809                	j	2cf8 <_scanf_float+0x1f4>
    2ce8:	012d8733          	add	a4,s11,s2
    2cec:	ea071fe3          	bnez	a4,2baa <_scanf_float+0xa6>
    2cf0:	4018                	lw	a4,0(s0)
    2cf2:	e7f77713          	andi	a4,a4,-385
    2cf6:	c018                	sw	a4,0(s0)
    2cf8:	00f48023          	sb	a5,0(s1)
    2cfc:	0485                	addi	s1,s1,1
    2cfe:	b739                	j	2c0c <_scanf_float+0x108>
    2d00:	4018                	lw	a4,0(s0)
    2d02:	08077593          	andi	a1,a4,128
    2d06:	ea0582e3          	beqz	a1,2baa <_scanf_float+0xa6>
    2d0a:	f7f77713          	andi	a4,a4,-129
    2d0e:	b7e5                	j	2cf6 <_scanf_float+0x1f2>
    2d10:	066d8d63          	beq	s11,t1,2d8a <_scanf_float+0x286>
    2d14:	01190563          	beq	s2,a7,2d1e <_scanf_float+0x21a>
    2d18:	4711                	li	a4,4
    2d1a:	e8e918e3          	bne	s2,a4,2baa <_scanf_float+0xa6>
    2d1e:	0905                	addi	s2,s2,1
    2d20:	0ff97913          	andi	s2,s2,255
    2d24:	bfd1                	j	2cf8 <_scanf_float+0x1f4>
    2d26:	ffd90713          	addi	a4,s2,-3
    2d2a:	0fd77713          	andi	a4,a4,253
    2d2e:	e6071ee3          	bnez	a4,2baa <_scanf_float+0xa6>
    2d32:	b7f5                	j	2d1e <_scanf_float+0x21a>
    2d34:	e6691be3          	bne	s2,t1,2baa <_scanf_float+0xa6>
    2d38:	490d                	li	s2,3
    2d3a:	bf7d                	j	2cf8 <_scanf_float+0x1f4>
    2d3c:	4719                	li	a4,6
    2d3e:	e6e916e3          	bne	s2,a4,2baa <_scanf_float+0xa6>
    2d42:	491d                	li	s2,7
    2d44:	bf55                	j	2cf8 <_scanf_float+0x1f4>
    2d46:	4018                	lw	a4,0(s0)
    2d48:	20077593          	andi	a1,a4,512
    2d4c:	e4058fe3          	beqz	a1,2baa <_scanf_float+0xa6>
    2d50:	d7f77713          	andi	a4,a4,-641
    2d54:	c018                	sw	a4,0(s0)
    2d56:	8bea                	mv	s7,s10
    2d58:	b745                	j	2cf8 <_scanf_float+0x1f4>
    2d5a:	4018                	lw	a4,0(s0)
    2d5c:	50077593          	andi	a1,a4,1280
    2d60:	01d58863          	beq	a1,t4,2d70 <_scanf_float+0x26c>
    2d64:	40077593          	andi	a1,a4,1024
    2d68:	e40581e3          	beqz	a1,2baa <_scanf_float+0xa6>
    2d6c:	e40d05e3          	beqz	s10,2bb6 <_scanf_float+0xb2>
    2d70:	20077593          	andi	a1,a4,512
    2d74:	e581                	bnez	a1,2d7c <_scanf_float+0x278>
    2d76:	417d0a33          	sub	s4,s10,s7
    2d7a:	8c26                	mv	s8,s1
    2d7c:	87f77713          	andi	a4,a4,-1921
    2d80:	18076713          	ori	a4,a4,384
    2d84:	c018                	sw	a4,0(s0)
    2d86:	4d01                	li	s10,0
    2d88:	bf85                	j	2cf8 <_scanf_float+0x1f4>
    2d8a:	4d8d                	li	s11,3
    2d8c:	b7b5                	j	2cf8 <_scanf_float+0x1f4>
    2d8e:	18042783          	lw	a5,384(s0)
    2d92:	85e6                	mv	a1,s9
    2d94:	854e                	mv	a0,s3
    2d96:	c636                	sw	a3,12(sp)
    2d98:	9782                	jalr	a5
    2d9a:	46b2                	lw	a3,12(sp)
    2d9c:	04900613          	li	a2,73
    2da0:	70000813          	li	a6,1792
    2da4:	4885                	li	a7,1
    2da6:	40000e93          	li	t4,1024
    2daa:	4309                	li	t1,2
    2dac:	06500e13          	li	t3,101
    2db0:	4f1d                	li	t5,7
    2db2:	dc0500e3          	beqz	a0,2b72 <_scanf_float+0x6e>
    2db6:	bbd5                	j	2baa <_scanf_float+0xa6>
    2db8:	14fd                	addi	s1,s1,-1
    2dba:	17c42783          	lw	a5,380(s0)
    2dbe:	0004c583          	lbu	a1,0(s1)
    2dc2:	8666                	mv	a2,s9
    2dc4:	854e                	mv	a0,s3
    2dc6:	9782                	jalr	a5
    2dc8:	481c                	lw	a5,16(s0)
    2dca:	17fd                	addi	a5,a5,-1
    2dcc:	c81c                	sw	a5,16(s0)
    2dce:	bbc5                	j	2bbe <_scanf_float+0xba>
    2dd0:	fff90793          	addi	a5,s2,-1
    2dd4:	4719                	li	a4,6
    2dd6:	02f76663          	bltu	a4,a5,2e02 <_scanf_float+0x2fe>
    2dda:	4789                	li	a5,2
    2ddc:	8da6                	mv	s11,s1
    2dde:	0927f163          	bgeu	a5,s2,2e60 <_scanf_float+0x35c>
    2de2:	40990733          	sub	a4,s2,s1
    2de6:	0ff77713          	andi	a4,a4,255
    2dea:	468d                	li	a3,3
    2dec:	00ed87b3          	add	a5,s11,a4
    2df0:	0ff7f793          	andi	a5,a5,255
    2df4:	02f6ec63          	bltu	a3,a5,2e2c <_scanf_float+0x328>
    2df8:	1975                	addi	s2,s2,-3
    2dfa:	0ff97913          	andi	s2,s2,255
    2dfe:	412484b3          	sub	s1,s1,s2
    2e02:	401c                	lw	a5,0(s0)
    2e04:	1007f713          	andi	a4,a5,256
    2e08:	c345                	beqz	a4,2ea8 <_scanf_float+0x3a4>
    2e0a:	4007f793          	andi	a5,a5,1024
    2e0e:	cfa1                	beqz	a5,2e66 <_scanf_float+0x362>
    2e10:	da9af9e3          	bgeu	s5,s1,2bc2 <_scanf_float+0xbe>
    2e14:	14fd                	addi	s1,s1,-1
    2e16:	17c42783          	lw	a5,380(s0)
    2e1a:	0004c583          	lbu	a1,0(s1)
    2e1e:	8666                	mv	a2,s9
    2e20:	854e                	mv	a0,s3
    2e22:	9782                	jalr	a5
    2e24:	481c                	lw	a5,16(s0)
    2e26:	17fd                	addi	a5,a5,-1
    2e28:	c81c                	sw	a5,16(s0)
    2e2a:	b7dd                	j	2e10 <_scanf_float+0x30c>
    2e2c:	1dfd                	addi	s11,s11,-1
    2e2e:	17c42783          	lw	a5,380(s0)
    2e32:	000dc583          	lbu	a1,0(s11)
    2e36:	8666                	mv	a2,s9
    2e38:	854e                	mv	a0,s3
    2e3a:	c63a                	sw	a4,12(sp)
    2e3c:	9782                	jalr	a5
    2e3e:	481c                	lw	a5,16(s0)
    2e40:	468d                	li	a3,3
    2e42:	4732                	lw	a4,12(sp)
    2e44:	17fd                	addi	a5,a5,-1
    2e46:	c81c                	sw	a5,16(s0)
    2e48:	b755                	j	2dec <_scanf_float+0x2e8>
    2e4a:	14fd                	addi	s1,s1,-1
    2e4c:	17c42783          	lw	a5,380(s0)
    2e50:	0004c583          	lbu	a1,0(s1)
    2e54:	8666                	mv	a2,s9
    2e56:	854e                	mv	a0,s3
    2e58:	9782                	jalr	a5
    2e5a:	481c                	lw	a5,16(s0)
    2e5c:	17fd                	addi	a5,a5,-1
    2e5e:	c81c                	sw	a5,16(s0)
    2e60:	fe9ae5e3          	bltu	s5,s1,2e4a <_scanf_float+0x346>
    2e64:	bbb9                	j	2bc2 <_scanf_float+0xbe>
    2e66:	481c                	lw	a5,16(s0)
    2e68:	fff4c583          	lbu	a1,-1(s1)
    2e6c:	fff48913          	addi	s2,s1,-1
    2e70:	17fd                	addi	a5,a5,-1
    2e72:	c81c                	sw	a5,16(s0)
    2e74:	06500793          	li	a5,101
    2e78:	02f58263          	beq	a1,a5,2e9c <_scanf_float+0x398>
    2e7c:	04500793          	li	a5,69
    2e80:	00f58e63          	beq	a1,a5,2e9c <_scanf_float+0x398>
    2e84:	17c42783          	lw	a5,380(s0)
    2e88:	8666                	mv	a2,s9
    2e8a:	854e                	mv	a0,s3
    2e8c:	9782                	jalr	a5
    2e8e:	481c                	lw	a5,16(s0)
    2e90:	ffe4c583          	lbu	a1,-2(s1)
    2e94:	ffe48913          	addi	s2,s1,-2
    2e98:	17fd                	addi	a5,a5,-1
    2e9a:	c81c                	sw	a5,16(s0)
    2e9c:	17c42783          	lw	a5,380(s0)
    2ea0:	8666                	mv	a2,s9
    2ea2:	854e                	mv	a0,s3
    2ea4:	9782                	jalr	a5
    2ea6:	84ca                	mv	s1,s2
    2ea8:	00042903          	lw	s2,0(s0)
    2eac:	01097913          	andi	s2,s2,16
    2eb0:	0c091363          	bnez	s2,2f76 <_scanf_float+0x472>
    2eb4:	00048023          	sb	zero,0(s1)
    2eb8:	401c                	lw	a5,0(s0)
    2eba:	40000713          	li	a4,1024
    2ebe:	6007f793          	andi	a5,a5,1536
    2ec2:	02e79e63          	bne	a5,a4,2efe <_scanf_float+0x3fa>
    2ec6:	41ab8633          	sub	a2,s7,s10
    2eca:	05ab9663          	bne	s7,s10,2f16 <_scanf_float+0x412>
    2ece:	85d6                	mv	a1,s5
    2ed0:	4601                	li	a2,0
    2ed2:	854e                	mv	a0,s3
    2ed4:	705000ef          	jal	ra,3dd8 <_strtod_r>
    2ed8:	4018                	lw	a4,0(s0)
    2eda:	8a2a                	mv	s4,a0
    2edc:	8aae                	mv	s5,a1
    2ede:	00277693          	andi	a3,a4,2
    2ee2:	000b2783          	lw	a5,0(s6)
    2ee6:	c6a9                	beqz	a3,2f30 <_scanf_float+0x42c>
    2ee8:	00478713          	addi	a4,a5,4
    2eec:	00eb2023          	sw	a4,0(s6)
    2ef0:	439c                	lw	a5,0(a5)
    2ef2:	c388                	sw	a0,0(a5)
    2ef4:	c3cc                	sw	a1,4(a5)
    2ef6:	445c                	lw	a5,12(s0)
    2ef8:	0785                	addi	a5,a5,1
    2efa:	c45c                	sw	a5,12(s0)
    2efc:	b1e1                	j	2bc4 <_scanf_float+0xc0>
    2efe:	fc0a08e3          	beqz	s4,2ece <_scanf_float+0x3ca>
    2f02:	4601                	li	a2,0
    2f04:	46a9                	li	a3,10
    2f06:	001c0593          	addi	a1,s8,1
    2f0a:	854e                	mv	a0,s3
    2f0c:	026010ef          	jal	ra,3f32 <_strtol_r>
    2f10:	41450633          	sub	a2,a0,s4
    2f14:	84e2                	mv	s1,s8
    2f16:	16f40793          	addi	a5,s0,367
    2f1a:	00f4e463          	bltu	s1,a5,2f22 <_scanf_float+0x41e>
    2f1e:	16e40493          	addi	s1,s0,366
    2f22:	00007597          	auipc	a1,0x7
    2f26:	58a58593          	addi	a1,a1,1418 # a4ac <__clz_tab+0x144>
    2f2a:	8526                	mv	a0,s1
    2f2c:	2269                	jal	30b6 <siprintf>
    2f2e:	b745                	j	2ece <_scanf_float+0x3ca>
    2f30:	00478693          	addi	a3,a5,4
    2f34:	00db2023          	sw	a3,0(s6)
    2f38:	8b11                	andi	a4,a4,4
    2f3a:	4384                	lw	s1,0(a5)
    2f3c:	cf19                	beqz	a4,2f5a <_scanf_float+0x456>
    2f3e:	85aa                	mv	a1,a0
    2f40:	8656                	mv	a2,s5
    2f42:	0808                	addi	a0,sp,16
    2f44:	59f050ef          	jal	ra,8ce2 <__extenddftf2>
    2f48:	46d2                	lw	a3,20(sp)
    2f4a:	4762                	lw	a4,24(sp)
    2f4c:	47f2                	lw	a5,28(sp)
    2f4e:	4642                	lw	a2,16(sp)
    2f50:	c0d4                	sw	a3,4(s1)
    2f52:	c498                	sw	a4,8(s1)
    2f54:	c090                	sw	a2,0(s1)
    2f56:	c4dc                	sw	a5,12(s1)
    2f58:	bf79                	j	2ef6 <_scanf_float+0x3f2>
    2f5a:	862a                	mv	a2,a0
    2f5c:	86ae                	mv	a3,a1
    2f5e:	3ab050ef          	jal	ra,8b08 <__unorddf2>
    2f62:	c509                	beqz	a0,2f6c <_scanf_float+0x468>
    2f64:	4501                	li	a0,0
    2f66:	2291                	jal	30aa <nanf>
    2f68:	c088                	sw	a0,0(s1)
    2f6a:	b771                	j	2ef6 <_scanf_float+0x3f2>
    2f6c:	8552                	mv	a0,s4
    2f6e:	85d6                	mv	a1,s5
    2f70:	717050ef          	jal	ra,8e86 <__truncdfsf2>
    2f74:	bfd5                	j	2f68 <_scanf_float+0x464>
    2f76:	4901                	li	s2,0
    2f78:	b1b1                	j	2bc4 <_scanf_float+0xc0>

00002f7a <iprintf>:
    2f7a:	7139                	addi	sp,sp,-64
    2f7c:	da3e                	sw	a5,52(sp)
    2f7e:	d22e                	sw	a1,36(sp)
    2f80:	d432                	sw	a2,40(sp)
    2f82:	d636                	sw	a3,44(sp)
    2f84:	d83a                	sw	a4,48(sp)
    2f86:	dc42                	sw	a6,56(sp)
    2f88:	de46                	sw	a7,60(sp)
    2f8a:	82018793          	addi	a5,gp,-2016 # 20000200 <_impure_ptr>
    2f8e:	cc22                	sw	s0,24(sp)
    2f90:	4380                	lw	s0,0(a5)
    2f92:	ca26                	sw	s1,20(sp)
    2f94:	ce06                	sw	ra,28(sp)
    2f96:	84aa                	mv	s1,a0
    2f98:	c411                	beqz	s0,2fa4 <iprintf+0x2a>
    2f9a:	4c1c                	lw	a5,24(s0)
    2f9c:	e781                	bnez	a5,2fa4 <iprintf+0x2a>
    2f9e:	8522                	mv	a0,s0
    2fa0:	138020ef          	jal	ra,50d8 <__sinit>
    2fa4:	440c                	lw	a1,8(s0)
    2fa6:	1054                	addi	a3,sp,36
    2fa8:	8626                	mv	a2,s1
    2faa:	8522                	mv	a0,s0
    2fac:	c636                	sw	a3,12(sp)
    2fae:	31f030ef          	jal	ra,6acc <_vfiprintf_r>
    2fb2:	40f2                	lw	ra,28(sp)
    2fb4:	4462                	lw	s0,24(sp)
    2fb6:	44d2                	lw	s1,20(sp)
    2fb8:	6121                	addi	sp,sp,64
    2fba:	8082                	ret

00002fbc <_puts_r>:
    2fbc:	1101                	addi	sp,sp,-32
    2fbe:	ca26                	sw	s1,20(sp)
    2fc0:	c84a                	sw	s2,16(sp)
    2fc2:	ce06                	sw	ra,28(sp)
    2fc4:	cc22                	sw	s0,24(sp)
    2fc6:	c64e                	sw	s3,12(sp)
    2fc8:	c452                	sw	s4,8(sp)
    2fca:	84aa                	mv	s1,a0
    2fcc:	892e                	mv	s2,a1
    2fce:	c509                	beqz	a0,2fd8 <_puts_r+0x1c>
    2fd0:	4d1c                	lw	a5,24(a0)
    2fd2:	e399                	bnez	a5,2fd8 <_puts_r+0x1c>
    2fd4:	104020ef          	jal	ra,50d8 <__sinit>
    2fd8:	4c9c                	lw	a5,24(s1)
    2fda:	4480                	lw	s0,8(s1)
    2fdc:	e781                	bnez	a5,2fe4 <_puts_r+0x28>
    2fde:	8526                	mv	a0,s1
    2fe0:	0f8020ef          	jal	ra,50d8 <__sinit>
    2fe4:	00007797          	auipc	a5,0x7
    2fe8:	5ec78793          	addi	a5,a5,1516 # a5d0 <__sf_fake_stdin>
    2fec:	02f41d63          	bne	s0,a5,3026 <_puts_r+0x6a>
    2ff0:	40c0                	lw	s0,4(s1)
    2ff2:	00c45783          	lhu	a5,12(s0)
    2ff6:	8ba1                	andi	a5,a5,8
    2ff8:	c7b9                	beqz	a5,3046 <_puts_r+0x8a>
    2ffa:	481c                	lw	a5,16(s0)
    2ffc:	c7a9                	beqz	a5,3046 <_puts_r+0x8a>
    2ffe:	59fd                	li	s3,-1
    3000:	4a29                	li	s4,10
    3002:	441c                	lw	a5,8(s0)
    3004:	00094583          	lbu	a1,0(s2)
    3008:	17fd                	addi	a5,a5,-1
    300a:	eda1                	bnez	a1,3062 <_puts_r+0xa6>
    300c:	c41c                	sw	a5,8(s0)
    300e:	0807d163          	bgez	a5,3090 <_puts_r+0xd4>
    3012:	8622                	mv	a2,s0
    3014:	45a9                	li	a1,10
    3016:	8526                	mv	a0,s1
    3018:	72f000ef          	jal	ra,3f46 <__swbuf_r>
    301c:	57fd                	li	a5,-1
    301e:	02f50963          	beq	a0,a5,3050 <_puts_r+0x94>
    3022:	4529                	li	a0,10
    3024:	a03d                	j	3052 <_puts_r+0x96>
    3026:	00007797          	auipc	a5,0x7
    302a:	5ca78793          	addi	a5,a5,1482 # a5f0 <__sf_fake_stdout>
    302e:	00f41463          	bne	s0,a5,3036 <_puts_r+0x7a>
    3032:	4480                	lw	s0,8(s1)
    3034:	bf7d                	j	2ff2 <_puts_r+0x36>
    3036:	00007797          	auipc	a5,0x7
    303a:	57a78793          	addi	a5,a5,1402 # a5b0 <__sf_fake_stderr>
    303e:	faf41ae3          	bne	s0,a5,2ff2 <_puts_r+0x36>
    3042:	44c0                	lw	s0,12(s1)
    3044:	b77d                	j	2ff2 <_puts_r+0x36>
    3046:	85a2                	mv	a1,s0
    3048:	8526                	mv	a0,s1
    304a:	7c3000ef          	jal	ra,400c <__swsetup_r>
    304e:	d945                	beqz	a0,2ffe <_puts_r+0x42>
    3050:	557d                	li	a0,-1
    3052:	40f2                	lw	ra,28(sp)
    3054:	4462                	lw	s0,24(sp)
    3056:	44d2                	lw	s1,20(sp)
    3058:	4942                	lw	s2,16(sp)
    305a:	49b2                	lw	s3,12(sp)
    305c:	4a22                	lw	s4,8(sp)
    305e:	6105                	addi	sp,sp,32
    3060:	8082                	ret
    3062:	c41c                	sw	a5,8(s0)
    3064:	0905                	addi	s2,s2,1
    3066:	0007d763          	bgez	a5,3074 <_puts_r+0xb8>
    306a:	4c18                	lw	a4,24(s0)
    306c:	00e7cb63          	blt	a5,a4,3082 <_puts_r+0xc6>
    3070:	01458963          	beq	a1,s4,3082 <_puts_r+0xc6>
    3074:	401c                	lw	a5,0(s0)
    3076:	00178713          	addi	a4,a5,1
    307a:	c018                	sw	a4,0(s0)
    307c:	00b78023          	sb	a1,0(a5)
    3080:	b749                	j	3002 <_puts_r+0x46>
    3082:	8622                	mv	a2,s0
    3084:	8526                	mv	a0,s1
    3086:	6c1000ef          	jal	ra,3f46 <__swbuf_r>
    308a:	f7351ce3          	bne	a0,s3,3002 <_puts_r+0x46>
    308e:	b7c9                	j	3050 <_puts_r+0x94>
    3090:	401c                	lw	a5,0(s0)
    3092:	00178713          	addi	a4,a5,1
    3096:	c018                	sw	a4,0(s0)
    3098:	4729                	li	a4,10
    309a:	00e78023          	sb	a4,0(a5)
    309e:	b751                	j	3022 <_puts_r+0x66>

000030a0 <puts>:
    30a0:	82018793          	addi	a5,gp,-2016 # 20000200 <_impure_ptr>
    30a4:	85aa                	mv	a1,a0
    30a6:	4388                	lw	a0,0(a5)
    30a8:	bf11                	j	2fbc <_puts_r>

000030aa <nanf>:
    30aa:	00007797          	auipc	a5,0x7
    30ae:	40a78793          	addi	a5,a5,1034 # a4b4 <__clz_tab+0x14c>
    30b2:	4388                	lw	a0,0(a5)
    30b4:	8082                	ret

000030b6 <siprintf>:
    30b6:	7135                	addi	sp,sp,-160
    30b8:	cb3e                	sw	a5,148(sp)
    30ba:	800007b7          	lui	a5,0x80000
    30be:	fff7c793          	not	a5,a5
    30c2:	ce3e                	sw	a5,28(sp)
    30c4:	c83e                	sw	a5,16(sp)
    30c6:	77c1                	lui	a5,0xffff0
    30c8:	20878793          	addi	a5,a5,520 # ffff0208 <_eusrstack+0xdffe8208>
    30cc:	c532                	sw	a2,136(sp)
    30ce:	c736                	sw	a3,140(sp)
    30d0:	c93a                	sw	a4,144(sp)
    30d2:	cd42                	sw	a6,152(sp)
    30d4:	cf46                	sw	a7,156(sp)
    30d6:	ca3e                	sw	a5,20(sp)
    30d8:	82018793          	addi	a5,gp,-2016 # 20000200 <_impure_ptr>
    30dc:	c42a                	sw	a0,8(sp)
    30de:	cc2a                	sw	a0,24(sp)
    30e0:	4388                	lw	a0,0(a5)
    30e2:	0134                	addi	a3,sp,136
    30e4:	862e                	mv	a2,a1
    30e6:	002c                	addi	a1,sp,8
    30e8:	de86                	sw	ra,124(sp)
    30ea:	c236                	sw	a3,4(sp)
    30ec:	6f4030ef          	jal	ra,67e0 <_svfiprintf_r>
    30f0:	47a2                	lw	a5,8(sp)
    30f2:	00078023          	sb	zero,0(a5)
    30f6:	50f6                	lw	ra,124(sp)
    30f8:	610d                	addi	sp,sp,160
    30fa:	8082                	ret

000030fc <strlen>:
    30fc:	87aa                	mv	a5,a0
    30fe:	0785                	addi	a5,a5,1
    3100:	fff7c703          	lbu	a4,-1(a5)
    3104:	ff6d                	bnez	a4,30fe <strlen+0x2>
    3106:	40a78533          	sub	a0,a5,a0
    310a:	157d                	addi	a0,a0,-1
    310c:	8082                	ret

0000310e <sulp>:
    310e:	1101                	addi	sp,sp,-32
    3110:	cc22                	sw	s0,24(sp)
    3112:	872a                	mv	a4,a0
    3114:	842e                	mv	s0,a1
    3116:	853a                	mv	a0,a4
    3118:	85a2                	mv	a1,s0
    311a:	c632                	sw	a2,12(sp)
    311c:	ce06                	sw	ra,28(sp)
    311e:	174030ef          	jal	ra,6292 <__ulp>
    3122:	4632                	lw	a2,12(sp)
    3124:	882a                	mv	a6,a0
    3126:	88ae                	mv	a7,a1
    3128:	c605                	beqz	a2,3150 <sulp+0x42>
    312a:	8051                	srli	s0,s0,0x14
    312c:	7ff47413          	andi	s0,s0,2047
    3130:	06b00793          	li	a5,107
    3134:	8f81                	sub	a5,a5,s0
    3136:	00f05d63          	blez	a5,3150 <sulp+0x42>
    313a:	07d2                	slli	a5,a5,0x14
    313c:	3ff00737          	lui	a4,0x3ff00
    3140:	4801                	li	a6,0
    3142:	973e                	add	a4,a4,a5
    3144:	8642                	mv	a2,a6
    3146:	86ba                	mv	a3,a4
    3148:	5cb040ef          	jal	ra,7f12 <__muldf3>
    314c:	882a                	mv	a6,a0
    314e:	88ae                	mv	a7,a1
    3150:	40f2                	lw	ra,28(sp)
    3152:	4462                	lw	s0,24(sp)
    3154:	8542                	mv	a0,a6
    3156:	85c6                	mv	a1,a7
    3158:	6105                	addi	sp,sp,32
    315a:	8082                	ret

0000315c <_strtod_l>:
    315c:	7135                	addi	sp,sp,-160
    315e:	c94a                	sw	s2,144(sp)
    3160:	892a                	mv	s2,a0
    3162:	8536                	mv	a0,a3
    3164:	d432                	sw	a2,40(sp)
    3166:	c636                	sw	a3,12(sp)
    3168:	cf06                	sw	ra,156(sp)
    316a:	cd22                	sw	s0,152(sp)
    316c:	cb26                	sw	s1,148(sp)
    316e:	c74e                	sw	s3,140(sp)
    3170:	d8ea                	sw	s10,112(sp)
    3172:	d6ee                	sw	s11,108(sp)
    3174:	8d2e                	mv	s10,a1
    3176:	c552                	sw	s4,136(sp)
    3178:	c356                	sw	s5,132(sp)
    317a:	c15a                	sw	s6,128(sp)
    317c:	dede                	sw	s7,124(sp)
    317e:	dce2                	sw	s8,120(sp)
    3180:	dae6                	sw	s9,116(sp)
    3182:	c882                	sw	zero,80(sp)
    3184:	011020ef          	jal	ra,5994 <__localeconv_l>
    3188:	8daa                	mv	s11,a0
    318a:	4108                	lw	a0,0(a0)
    318c:	4481                	li	s1,0
    318e:	4401                	li	s0,0
    3190:	37b5                	jal	30fc <strlen>
    3192:	46b2                	lw	a3,12(sp)
    3194:	89aa                	mv	s3,a0
    3196:	c6ea                	sw	s10,76(sp)
    3198:	4635                	li	a2,13
    319a:	02b00593          	li	a1,43
    319e:	02d00513          	li	a0,45
    31a2:	02000813          	li	a6,32
    31a6:	48a5                	li	a7,9
    31a8:	47b6                	lw	a5,76(sp)
    31aa:	0007c703          	lbu	a4,0(a5)
    31ae:	08e66b63          	bltu	a2,a4,3244 <_strtod_l+0xe8>
    31b2:	09177f63          	bgeu	a4,a7,3250 <_strtod_l+0xf4>
    31b6:	c75d                	beqz	a4,3264 <_strtod_l+0x108>
    31b8:	c802                	sw	zero,16(sp)
    31ba:	4a36                	lw	s4,76(sp)
    31bc:	03000793          	li	a5,48
    31c0:	4a81                	li	s5,0
    31c2:	000a4703          	lbu	a4,0(s4)
    31c6:	12f71d63          	bne	a4,a5,3300 <_strtod_l+0x1a4>
    31ca:	001a4783          	lbu	a5,1(s4)
    31ce:	05800713          	li	a4,88
    31d2:	00e78863          	beq	a5,a4,31e2 <_strtod_l+0x86>
    31d6:	07800613          	li	a2,120
    31da:	03000713          	li	a4,48
    31de:	10c79763          	bne	a5,a2,32ec <_strtod_l+0x190>
    31e2:	47c2                	lw	a5,16(sp)
    31e4:	8836                	mv	a6,a3
    31e6:	0898                	addi	a4,sp,80
    31e8:	08d4                	addi	a3,sp,84
    31ea:	00007617          	auipc	a2,0x7
    31ee:	32e60613          	addi	a2,a2,814 # a518 <fpi.3395>
    31f2:	00ec                	addi	a1,sp,76
    31f4:	854a                	mv	a0,s2
    31f6:	110020ef          	jal	ra,5306 <__gethex>
    31fa:	00757993          	andi	s3,a0,7
    31fe:	8aaa                	mv	s5,a0
    3200:	00098863          	beqz	s3,3210 <_strtod_l+0xb4>
    3204:	4799                	li	a5,6
    3206:	06f99863          	bne	s3,a5,3276 <_strtod_l+0x11a>
    320a:	0a05                	addi	s4,s4,1
    320c:	c6d2                	sw	s4,76(sp)
    320e:	c802                	sw	zero,16(sp)
    3210:	57a2                	lw	a5,40(sp)
    3212:	c781                	beqz	a5,321a <_strtod_l+0xbe>
    3214:	47b6                	lw	a5,76(sp)
    3216:	5722                	lw	a4,40(sp)
    3218:	c31c                	sw	a5,0(a4)
    321a:	47c2                	lw	a5,16(sp)
    321c:	cba1                	beqz	a5,326c <_strtod_l+0x110>
    321e:	800005b7          	lui	a1,0x80000
    3222:	8da1                	xor	a1,a1,s0
    3224:	40fa                	lw	ra,156(sp)
    3226:	446a                	lw	s0,152(sp)
    3228:	8526                	mv	a0,s1
    322a:	494a                	lw	s2,144(sp)
    322c:	44da                	lw	s1,148(sp)
    322e:	49ba                	lw	s3,140(sp)
    3230:	4a2a                	lw	s4,136(sp)
    3232:	4a9a                	lw	s5,132(sp)
    3234:	4b0a                	lw	s6,128(sp)
    3236:	5bf6                	lw	s7,124(sp)
    3238:	5c66                	lw	s8,120(sp)
    323a:	5cd6                	lw	s9,116(sp)
    323c:	5d46                	lw	s10,112(sp)
    323e:	5db6                	lw	s11,108(sp)
    3240:	610d                	addi	sp,sp,160
    3242:	8082                	ret
    3244:	00b70963          	beq	a4,a1,3256 <_strtod_l+0xfa>
    3248:	02a70463          	beq	a4,a0,3270 <_strtod_l+0x114>
    324c:	f70716e3          	bne	a4,a6,31b8 <_strtod_l+0x5c>
    3250:	0785                	addi	a5,a5,1
    3252:	c6be                	sw	a5,76(sp)
    3254:	bf91                	j	31a8 <_strtod_l+0x4c>
    3256:	c802                	sw	zero,16(sp)
    3258:	00178713          	addi	a4,a5,1
    325c:	c6ba                	sw	a4,76(sp)
    325e:	0017c783          	lbu	a5,1(a5)
    3262:	ffa1                	bnez	a5,31ba <_strtod_l+0x5e>
    3264:	57a2                	lw	a5,40(sp)
    3266:	c6ea                	sw	s10,76(sp)
    3268:	c802                	sw	zero,16(sp)
    326a:	f7cd                	bnez	a5,3214 <_strtod_l+0xb8>
    326c:	85a2                	mv	a1,s0
    326e:	bf5d                	j	3224 <_strtod_l+0xc8>
    3270:	4705                	li	a4,1
    3272:	c83a                	sw	a4,16(sp)
    3274:	b7d5                	j	3258 <_strtod_l+0xfc>
    3276:	4646                	lw	a2,80(sp)
    3278:	ca11                	beqz	a2,328c <_strtod_l+0x130>
    327a:	03500593          	li	a1,53
    327e:	08a8                	addi	a0,sp,88
    3280:	254030ef          	jal	ra,64d4 <__copybits>
    3284:	45c6                	lw	a1,80(sp)
    3286:	854a                	mv	a0,s2
    3288:	1c9020ef          	jal	ra,5c50 <_Bfree>
    328c:	19fd                	addi	s3,s3,-1
    328e:	4791                	li	a5,4
    3290:	0137ee63          	bltu	a5,s3,32ac <_strtod_l+0x150>
    3294:	00007717          	auipc	a4,0x7
    3298:	22470713          	addi	a4,a4,548 # a4b8 <__clz_tab+0x150>
    329c:	098a                	slli	s3,s3,0x2
    329e:	99ba                	add	s3,s3,a4
    32a0:	0009a783          	lw	a5,0(s3)
    32a4:	97ba                	add	a5,a5,a4
    32a6:	8782                	jr	a5
    32a8:	44e6                	lw	s1,88(sp)
    32aa:	4476                	lw	s0,92(sp)
    32ac:	008afa93          	andi	s5,s5,8
    32b0:	f60a80e3          	beqz	s5,3210 <_strtod_l+0xb4>
    32b4:	800007b7          	lui	a5,0x80000
    32b8:	8c5d                	or	s0,s0,a5
    32ba:	bf99                	j	3210 <_strtod_l+0xb4>
    32bc:	45f6                	lw	a1,92(sp)
    32be:	fff00437          	lui	s0,0xfff00
    32c2:	147d                	addi	s0,s0,-1
    32c4:	0085f7b3          	and	a5,a1,s0
    32c8:	4456                	lw	s0,84(sp)
    32ca:	44e6                	lw	s1,88(sp)
    32cc:	43340413          	addi	s0,s0,1075 # fff00433 <_eusrstack+0xdfef8433>
    32d0:	01441593          	slli	a1,s0,0x14
    32d4:	00b7e433          	or	s0,a5,a1
    32d8:	bfd1                	j	32ac <_strtod_l+0x150>
    32da:	7ff00437          	lui	s0,0x7ff00
    32de:	b7f9                	j	32ac <_strtod_l+0x150>
    32e0:	800005b7          	lui	a1,0x80000
    32e4:	fff5c413          	not	s0,a1
    32e8:	54fd                	li	s1,-1
    32ea:	b7c9                	j	32ac <_strtod_l+0x150>
    32ec:	47b6                	lw	a5,76(sp)
    32ee:	00178693          	addi	a3,a5,1 # 80000001 <_eusrstack+0x5fff8001>
    32f2:	c6b6                	sw	a3,76(sp)
    32f4:	0017c783          	lbu	a5,1(a5)
    32f8:	fee78ae3          	beq	a5,a4,32ec <_strtod_l+0x190>
    32fc:	db91                	beqz	a5,3210 <_strtod_l+0xb4>
    32fe:	4a85                	li	s5,1
    3300:	4cb6                	lw	s9,76(sp)
    3302:	4a01                	li	s4,0
    3304:	4b81                	li	s7,0
    3306:	4c01                	li	s8,0
    3308:	46a5                	li	a3,9
    330a:	45a1                	li	a1,8
    330c:	47a9                	li	a5,10
    330e:	4536                	lw	a0,76(sp)
    3310:	00054b03          	lbu	s6,0(a0)
    3314:	fd0b0713          	addi	a4,s6,-48
    3318:	0ff77613          	andi	a2,a4,255
    331c:	04c6fd63          	bgeu	a3,a2,3376 <_strtod_l+0x21a>
    3320:	000da583          	lw	a1,0(s11)
    3324:	864e                	mv	a2,s3
    3326:	32b030ef          	jal	ra,6e50 <strncmp>
    332a:	c13d                	beqz	a0,3390 <_strtod_l+0x234>
    332c:	87da                	mv	a5,s6
    332e:	8de2                	mv	s11,s8
    3330:	4681                	li	a3,0
    3332:	4b01                	li	s6,0
    3334:	4501                	li	a0,0
    3336:	06500713          	li	a4,101
    333a:	00e78763          	beq	a5,a4,3348 <_strtod_l+0x1ec>
    333e:	04500713          	li	a4,69
    3342:	4981                	li	s3,0
    3344:	16e79963          	bne	a5,a4,34b6 <_strtod_l+0x35a>
    3348:	000d9663          	bnez	s11,3354 <_strtod_l+0x1f8>
    334c:	0156e7b3          	or	a5,a3,s5
    3350:	db91                	beqz	a5,3264 <_strtod_l+0x108>
    3352:	4d81                	li	s11,0
    3354:	4d36                	lw	s10,76(sp)
    3356:	02b00713          	li	a4,43
    335a:	001d0793          	addi	a5,s10,1
    335e:	c6be                	sw	a5,76(sp)
    3360:	001d4783          	lbu	a5,1(s10)
    3364:	0ee78263          	beq	a5,a4,3448 <_strtod_l+0x2ec>
    3368:	02d00713          	li	a4,45
    336c:	4801                	li	a6,0
    336e:	0ee79363          	bne	a5,a4,3454 <_strtod_l+0x2f8>
    3372:	4805                	li	a6,1
    3374:	a8d9                	j	344a <_strtod_l+0x2ee>
    3376:	0185c963          	blt	a1,s8,3388 <_strtod_l+0x22c>
    337a:	02fb8bb3          	mul	s7,s7,a5
    337e:	9bba                	add	s7,s7,a4
    3380:	0505                	addi	a0,a0,1
    3382:	0c05                	addi	s8,s8,1
    3384:	c6aa                	sw	a0,76(sp)
    3386:	b761                	j	330e <_strtod_l+0x1b2>
    3388:	02fa0a33          	mul	s4,s4,a5
    338c:	9a3a                	add	s4,s4,a4
    338e:	bfcd                	j	3380 <_strtod_l+0x224>
    3390:	4536                	lw	a0,76(sp)
    3392:	4681                	li	a3,0
    3394:	954e                	add	a0,a0,s3
    3396:	c6aa                	sw	a0,76(sp)
    3398:	00054783          	lbu	a5,0(a0)
    339c:	060c0d63          	beqz	s8,3416 <_strtod_l+0x2ba>
    33a0:	4b01                	li	s6,0
    33a2:	8de2                	mv	s11,s8
    33a4:	fd078713          	addi	a4,a5,-48
    33a8:	4625                	li	a2,9
    33aa:	02e67663          	bgeu	a2,a4,33d6 <_strtod_l+0x27a>
    33ae:	4505                	li	a0,1
    33b0:	b759                	j	3336 <_strtod_l+0x1da>
    33b2:	47b6                	lw	a5,76(sp)
    33b4:	0685                	addi	a3,a3,1
    33b6:	00178613          	addi	a2,a5,1
    33ba:	c6b2                	sw	a2,76(sp)
    33bc:	0017c783          	lbu	a5,1(a5)
    33c0:	fee789e3          	beq	a5,a4,33b2 <_strtod_l+0x256>
    33c4:	fcf78713          	addi	a4,a5,-49
    33c8:	4621                	li	a2,8
    33ca:	1ee66ae3          	bltu	a2,a4,3dbe <_strtod_l+0xc62>
    33ce:	4cb6                	lw	s9,76(sp)
    33d0:	8b36                	mv	s6,a3
    33d2:	4d81                	li	s11,0
    33d4:	4681                	li	a3,0
    33d6:	fd078793          	addi	a5,a5,-48
    33da:	00168713          	addi	a4,a3,1
    33de:	c785                	beqz	a5,3406 <_strtod_l+0x2aa>
    33e0:	9b3a                	add	s6,s6,a4
    33e2:	01b68533          	add	a0,a3,s11
    33e6:	876e                	mv	a4,s11
    33e8:	4821                	li	a6,8
    33ea:	48c1                	li	a7,16
    33ec:	4629                	li	a2,10
    33ee:	02a71763          	bne	a4,a0,341c <_strtod_l+0x2c0>
    33f2:	0d85                	addi	s11,s11,1
    33f4:	9db6                	add	s11,s11,a3
    33f6:	46a1                	li	a3,8
    33f8:	02e6cf63          	blt	a3,a4,3436 <_strtod_l+0x2da>
    33fc:	4729                	li	a4,10
    33fe:	02eb8bb3          	mul	s7,s7,a4
    3402:	4701                	li	a4,0
    3404:	9bbe                	add	s7,s7,a5
    3406:	47b6                	lw	a5,76(sp)
    3408:	00178693          	addi	a3,a5,1
    340c:	c6b6                	sw	a3,76(sp)
    340e:	0017c783          	lbu	a5,1(a5)
    3412:	86ba                	mv	a3,a4
    3414:	bf41                	j	33a4 <_strtod_l+0x248>
    3416:	03000713          	li	a4,48
    341a:	b75d                	j	33c0 <_strtod_l+0x264>
    341c:	00170593          	addi	a1,a4,1
    3420:	00e84663          	blt	a6,a4,342c <_strtod_l+0x2d0>
    3424:	02cb8bb3          	mul	s7,s7,a2
    3428:	872e                	mv	a4,a1
    342a:	b7d1                	j	33ee <_strtod_l+0x292>
    342c:	feb8cee3          	blt	a7,a1,3428 <_strtod_l+0x2cc>
    3430:	02ca0a33          	mul	s4,s4,a2
    3434:	bfd5                	j	3428 <_strtod_l+0x2cc>
    3436:	46c1                	li	a3,16
    3438:	4701                	li	a4,0
    343a:	fdb6c6e3          	blt	a3,s11,3406 <_strtod_l+0x2aa>
    343e:	46a9                	li	a3,10
    3440:	02da0a33          	mul	s4,s4,a3
    3444:	9a3e                	add	s4,s4,a5
    3446:	b7c1                	j	3406 <_strtod_l+0x2aa>
    3448:	4801                	li	a6,0
    344a:	002d0793          	addi	a5,s10,2
    344e:	c6be                	sw	a5,76(sp)
    3450:	002d4783          	lbu	a5,2(s10)
    3454:	fd078713          	addi	a4,a5,-48
    3458:	4625                	li	a2,9
    345a:	0ce66763          	bltu	a2,a4,3528 <_strtod_l+0x3cc>
    345e:	03000713          	li	a4,48
    3462:	0ae78663          	beq	a5,a4,350e <_strtod_l+0x3b2>
    3466:	fcf78713          	addi	a4,a5,-49
    346a:	4621                	li	a2,8
    346c:	4981                	li	s3,0
    346e:	04e66463          	bltu	a2,a4,34b6 <_strtod_l+0x35a>
    3472:	48b6                	lw	a7,76(sp)
    3474:	fd078713          	addi	a4,a5,-48
    3478:	4325                	li	t1,9
    347a:	4e29                	li	t3,10
    347c:	47b6                	lw	a5,76(sp)
    347e:	00178613          	addi	a2,a5,1
    3482:	c6b2                	sw	a2,76(sp)
    3484:	0017c783          	lbu	a5,1(a5)
    3488:	fd078593          	addi	a1,a5,-48
    348c:	0ff5f593          	andi	a1,a1,255
    3490:	08b37663          	bgeu	t1,a1,351c <_strtod_l+0x3c0>
    3494:	6995                	lui	s3,0x5
    3496:	41160633          	sub	a2,a2,a7
    349a:	e1f98993          	addi	s3,s3,-481 # 4e1f <_dtoa_r+0xbc7>
    349e:	48a1                	li	a7,8
    34a0:	85ce                	mv	a1,s3
    34a2:	00c8c663          	blt	a7,a2,34ae <_strtod_l+0x352>
    34a6:	89ba                	mv	s3,a4
    34a8:	00e5d363          	bge	a1,a4,34ae <_strtod_l+0x352>
    34ac:	89ae                	mv	s3,a1
    34ae:	00080463          	beqz	a6,34b6 <_strtod_l+0x35a>
    34b2:	413009b3          	neg	s3,s3
    34b6:	0c0d9863          	bnez	s11,3586 <_strtod_l+0x42a>
    34ba:	00dae6b3          	or	a3,s5,a3
    34be:	d40699e3          	bnez	a3,3210 <_strtod_l+0xb4>
    34c2:	da0511e3          	bnez	a0,3264 <_strtod_l+0x108>
    34c6:	04e00713          	li	a4,78
    34ca:	06e78a63          	beq	a5,a4,353e <_strtod_l+0x3e2>
    34ce:	06f74063          	blt	a4,a5,352e <_strtod_l+0x3d2>
    34d2:	04900713          	li	a4,73
    34d6:	d8e797e3          	bne	a5,a4,3264 <_strtod_l+0x108>
    34da:	00007597          	auipc	a1,0x7
    34de:	02e58593          	addi	a1,a1,46 # a508 <__clz_tab+0x1a0>
    34e2:	00e8                	addi	a0,sp,76
    34e4:	31a020ef          	jal	ra,57fe <__match>
    34e8:	d6050ee3          	beqz	a0,3264 <_strtod_l+0x108>
    34ec:	47b6                	lw	a5,76(sp)
    34ee:	00007597          	auipc	a1,0x7
    34f2:	01e58593          	addi	a1,a1,30 # a50c <__clz_tab+0x1a4>
    34f6:	00e8                	addi	a0,sp,76
    34f8:	17fd                	addi	a5,a5,-1
    34fa:	c6be                	sw	a5,76(sp)
    34fc:	302020ef          	jal	ra,57fe <__match>
    3500:	e501                	bnez	a0,3508 <_strtod_l+0x3ac>
    3502:	47b6                	lw	a5,76(sp)
    3504:	0785                	addi	a5,a5,1
    3506:	c6be                	sw	a5,76(sp)
    3508:	7ff00437          	lui	s0,0x7ff00
    350c:	b311                	j	3210 <_strtod_l+0xb4>
    350e:	47b6                	lw	a5,76(sp)
    3510:	00178613          	addi	a2,a5,1
    3514:	c6b2                	sw	a2,76(sp)
    3516:	0017c783          	lbu	a5,1(a5)
    351a:	b7a1                	j	3462 <_strtod_l+0x306>
    351c:	03c70733          	mul	a4,a4,t3
    3520:	97ba                	add	a5,a5,a4
    3522:	fd078713          	addi	a4,a5,-48
    3526:	bf99                	j	347c <_strtod_l+0x320>
    3528:	c6ea                	sw	s10,76(sp)
    352a:	4981                	li	s3,0
    352c:	b769                	j	34b6 <_strtod_l+0x35a>
    352e:	06900713          	li	a4,105
    3532:	fae784e3          	beq	a5,a4,34da <_strtod_l+0x37e>
    3536:	06e00713          	li	a4,110
    353a:	d2e795e3          	bne	a5,a4,3264 <_strtod_l+0x108>
    353e:	00007597          	auipc	a1,0x7
    3542:	fd658593          	addi	a1,a1,-42 # a514 <__clz_tab+0x1ac>
    3546:	00e8                	addi	a0,sp,76
    3548:	2b6020ef          	jal	ra,57fe <__match>
    354c:	d0050ce3          	beqz	a0,3264 <_strtod_l+0x108>
    3550:	47b6                	lw	a5,76(sp)
    3552:	0007c703          	lbu	a4,0(a5)
    3556:	02800793          	li	a5,40
    355a:	02f71363          	bne	a4,a5,3580 <_strtod_l+0x424>
    355e:	08b0                	addi	a2,sp,88
    3560:	00007597          	auipc	a1,0x7
    3564:	fcc58593          	addi	a1,a1,-52 # a52c <fpinan.3431>
    3568:	00e8                	addi	a0,sp,76
    356a:	2c4020ef          	jal	ra,582e <__hexnan>
    356e:	4795                	li	a5,5
    3570:	00f51863          	bne	a0,a5,3580 <_strtod_l+0x424>
    3574:	45f6                	lw	a1,92(sp)
    3576:	7ff00437          	lui	s0,0x7ff00
    357a:	44e6                	lw	s1,88(sp)
    357c:	8c4d                	or	s0,s0,a1
    357e:	b949                	j	3210 <_strtod_l+0xb4>
    3580:	fff80437          	lui	s0,0xfff80
    3584:	b171                	j	3210 <_strtod_l+0xb4>
    3586:	41698ab3          	sub	s5,s3,s6
    358a:	000c1363          	bnez	s8,3590 <_strtod_l+0x434>
    358e:	8c6e                	mv	s8,s11
    3590:	47c1                	li	a5,16
    3592:	8d6e                	mv	s10,s11
    3594:	01b7d363          	bge	a5,s11,359a <_strtod_l+0x43e>
    3598:	4d41                	li	s10,16
    359a:	855e                	mv	a0,s7
    359c:	6de050ef          	jal	ra,8c7a <__floatunsidf>
    35a0:	47a5                	li	a5,9
    35a2:	84aa                	mv	s1,a0
    35a4:	842e                	mv	s0,a1
    35a6:	03b7dc63          	bge	a5,s11,35de <_strtod_l+0x482>
    35aa:	ff7d0793          	addi	a5,s10,-9
    35ae:	00379713          	slli	a4,a5,0x3
    35b2:	00007797          	auipc	a5,0x7
    35b6:	09678793          	addi	a5,a5,150 # a648 <__mprec_tens>
    35ba:	97ba                	add	a5,a5,a4
    35bc:	4390                	lw	a2,0(a5)
    35be:	43d4                	lw	a3,4(a5)
    35c0:	153040ef          	jal	ra,7f12 <__muldf3>
    35c4:	842a                	mv	s0,a0
    35c6:	8552                	mv	a0,s4
    35c8:	84ae                	mv	s1,a1
    35ca:	6b0050ef          	jal	ra,8c7a <__floatunsidf>
    35ce:	862a                	mv	a2,a0
    35d0:	86ae                	mv	a3,a1
    35d2:	8522                	mv	a0,s0
    35d4:	85a6                	mv	a1,s1
    35d6:	28b030ef          	jal	ra,7060 <__adddf3>
    35da:	84aa                	mv	s1,a0
    35dc:	842e                	mv	s0,a1
    35de:	47bd                	li	a5,15
    35e0:	09b7cd63          	blt	a5,s11,367a <_strtod_l+0x51e>
    35e4:	c20a86e3          	beqz	s5,3210 <_strtod_l+0xb4>
    35e8:	07505463          	blez	s5,3650 <_strtod_l+0x4f4>
    35ec:	4759                	li	a4,22
    35ee:	03574363          	blt	a4,s5,3614 <_strtod_l+0x4b8>
    35f2:	0a8e                	slli	s5,s5,0x3
    35f4:	00007797          	auipc	a5,0x7
    35f8:	05478793          	addi	a5,a5,84 # a648 <__mprec_tens>
    35fc:	9abe                	add	s5,s5,a5
    35fe:	000aa503          	lw	a0,0(s5)
    3602:	004aa583          	lw	a1,4(s5)
    3606:	8626                	mv	a2,s1
    3608:	86a2                	mv	a3,s0
    360a:	109040ef          	jal	ra,7f12 <__muldf3>
    360e:	84aa                	mv	s1,a0
    3610:	842e                	mv	s0,a1
    3612:	befd                	j	3210 <_strtod_l+0xb4>
    3614:	02500713          	li	a4,37
    3618:	41b70733          	sub	a4,a4,s11
    361c:	05574f63          	blt	a4,s5,367a <_strtod_l+0x51e>
    3620:	41b78db3          	sub	s11,a5,s11
    3624:	00007917          	auipc	s2,0x7
    3628:	02490913          	addi	s2,s2,36 # a648 <__mprec_tens>
    362c:	003d9793          	slli	a5,s11,0x3
    3630:	97ca                	add	a5,a5,s2
    3632:	4388                	lw	a0,0(a5)
    3634:	43cc                	lw	a1,4(a5)
    3636:	41ba8db3          	sub	s11,s5,s11
    363a:	8626                	mv	a2,s1
    363c:	86a2                	mv	a3,s0
    363e:	0d8e                	slli	s11,s11,0x3
    3640:	0d3040ef          	jal	ra,7f12 <__muldf3>
    3644:	9dca                	add	s11,s11,s2
    3646:	000da603          	lw	a2,0(s11)
    364a:	004da683          	lw	a3,4(s11)
    364e:	bf75                	j	360a <_strtod_l+0x4ae>
    3650:	57a9                	li	a5,-22
    3652:	02fac463          	blt	s5,a5,367a <_strtod_l+0x51e>
    3656:	413b09b3          	sub	s3,s6,s3
    365a:	00399b13          	slli	s6,s3,0x3
    365e:	00007997          	auipc	s3,0x7
    3662:	fea98993          	addi	s3,s3,-22 # a648 <__mprec_tens>
    3666:	99da                	add	s3,s3,s6
    3668:	0009a603          	lw	a2,0(s3)
    366c:	0049a683          	lw	a3,4(s3)
    3670:	8526                	mv	a0,s1
    3672:	85a2                	mv	a1,s0
    3674:	11c040ef          	jal	ra,7790 <__divdf3>
    3678:	bf59                	j	360e <_strtod_l+0x4b2>
    367a:	41ad8d33          	sub	s10,s11,s10
    367e:	9d56                	add	s10,s10,s5
    3680:	11a05763          	blez	s10,378e <_strtod_l+0x632>
    3684:	00fd7793          	andi	a5,s10,15
    3688:	cf99                	beqz	a5,36a6 <_strtod_l+0x54a>
    368a:	00007717          	auipc	a4,0x7
    368e:	fbe70713          	addi	a4,a4,-66 # a648 <__mprec_tens>
    3692:	078e                	slli	a5,a5,0x3
    3694:	97ba                	add	a5,a5,a4
    3696:	4388                	lw	a0,0(a5)
    3698:	43cc                	lw	a1,4(a5)
    369a:	8626                	mv	a2,s1
    369c:	86a2                	mv	a3,s0
    369e:	075040ef          	jal	ra,7f12 <__muldf3>
    36a2:	84aa                	mv	s1,a0
    36a4:	842e                	mv	s0,a1
    36a6:	ff0d7d13          	andi	s10,s10,-16
    36aa:	0a0d0863          	beqz	s10,375a <_strtod_l+0x5fe>
    36ae:	13400793          	li	a5,308
    36b2:	05a7d563          	bge	a5,s10,36fc <_strtod_l+0x5a0>
    36b6:	4b01                	li	s6,0
    36b8:	4981                	li	s3,0
    36ba:	c602                	sw	zero,12(sp)
    36bc:	4b81                	li	s7,0
    36be:	02200793          	li	a5,34
    36c2:	00f92023          	sw	a5,0(s2)
    36c6:	7ff00437          	lui	s0,0x7ff00
    36ca:	4481                	li	s1,0
    36cc:	47b2                	lw	a5,12(sp)
    36ce:	b40781e3          	beqz	a5,3210 <_strtod_l+0xb4>
    36d2:	45c6                	lw	a1,80(sp)
    36d4:	854a                	mv	a0,s2
    36d6:	57a020ef          	jal	ra,5c50 <_Bfree>
    36da:	85de                	mv	a1,s7
    36dc:	854a                	mv	a0,s2
    36de:	572020ef          	jal	ra,5c50 <_Bfree>
    36e2:	85ce                	mv	a1,s3
    36e4:	854a                	mv	a0,s2
    36e6:	56a020ef          	jal	ra,5c50 <_Bfree>
    36ea:	45b2                	lw	a1,12(sp)
    36ec:	854a                	mv	a0,s2
    36ee:	562020ef          	jal	ra,5c50 <_Bfree>
    36f2:	85da                	mv	a1,s6
    36f4:	854a                	mv	a0,s2
    36f6:	55a020ef          	jal	ra,5c50 <_Bfree>
    36fa:	be19                	j	3210 <_strtod_l+0xb4>
    36fc:	404d5d13          	srai	s10,s10,0x4
    3700:	8526                	mv	a0,s1
    3702:	85a2                	mv	a1,s0
    3704:	4781                	li	a5,0
    3706:	4a01                	li	s4,0
    3708:	4805                	li	a6,1
    370a:	00007897          	auipc	a7,0x7
    370e:	f1688893          	addi	a7,a7,-234 # a620 <__mprec_bigtens>
    3712:	05a84663          	blt	a6,s10,375e <_strtod_l+0x602>
    3716:	c399                	beqz	a5,371c <_strtod_l+0x5c0>
    3718:	84aa                	mv	s1,a0
    371a:	842e                	mv	s0,a1
    371c:	00007717          	auipc	a4,0x7
    3720:	f0470713          	addi	a4,a4,-252 # a620 <__mprec_bigtens>
    3724:	003a1793          	slli	a5,s4,0x3
    3728:	97ba                	add	a5,a5,a4
    372a:	4388                	lw	a0,0(a5)
    372c:	43cc                	lw	a1,4(a5)
    372e:	fcb00737          	lui	a4,0xfcb00
    3732:	9722                	add	a4,a4,s0
    3734:	8626                	mv	a2,s1
    3736:	86ba                	mv	a3,a4
    3738:	7da040ef          	jal	ra,7f12 <__muldf3>
    373c:	7ff00437          	lui	s0,0x7ff00
    3740:	00b477b3          	and	a5,s0,a1
    3744:	7ca00737          	lui	a4,0x7ca00
    3748:	84aa                	mv	s1,a0
    374a:	f6f766e3          	bltu	a4,a5,36b6 <_strtod_l+0x55a>
    374e:	7c900737          	lui	a4,0x7c900
    3752:	02f77a63          	bgeu	a4,a5,3786 <_strtod_l+0x62a>
    3756:	147d                	addi	s0,s0,-1
    3758:	54fd                	li	s1,-1
    375a:	4a01                	li	s4,0
    375c:	a8dd                	j	3852 <_strtod_l+0x6f6>
    375e:	001d7713          	andi	a4,s10,1
    3762:	cf11                	beqz	a4,377e <_strtod_l+0x622>
    3764:	003a1713          	slli	a4,s4,0x3
    3768:	9746                	add	a4,a4,a7
    376a:	4310                	lw	a2,0(a4)
    376c:	4354                	lw	a3,4(a4)
    376e:	7a4040ef          	jal	ra,7f12 <__muldf3>
    3772:	4785                	li	a5,1
    3774:	4805                	li	a6,1
    3776:	00007897          	auipc	a7,0x7
    377a:	eaa88893          	addi	a7,a7,-342 # a620 <__mprec_bigtens>
    377e:	0a05                	addi	s4,s4,1
    3780:	401d5d13          	srai	s10,s10,0x1
    3784:	b779                	j	3712 <_strtod_l+0x5b6>
    3786:	03500437          	lui	s0,0x3500
    378a:	942e                	add	s0,s0,a1
    378c:	b7f9                	j	375a <_strtod_l+0x5fe>
    378e:	fc0d06e3          	beqz	s10,375a <_strtod_l+0x5fe>
    3792:	41a00d33          	neg	s10,s10
    3796:	00fd7793          	andi	a5,s10,15
    379a:	cf99                	beqz	a5,37b8 <_strtod_l+0x65c>
    379c:	00007717          	auipc	a4,0x7
    37a0:	eac70713          	addi	a4,a4,-340 # a648 <__mprec_tens>
    37a4:	078e                	slli	a5,a5,0x3
    37a6:	97ba                	add	a5,a5,a4
    37a8:	4390                	lw	a2,0(a5)
    37aa:	43d4                	lw	a3,4(a5)
    37ac:	8526                	mv	a0,s1
    37ae:	85a2                	mv	a1,s0
    37b0:	7e1030ef          	jal	ra,7790 <__divdf3>
    37b4:	84aa                	mv	s1,a0
    37b6:	842e                	mv	s0,a1
    37b8:	404d5d13          	srai	s10,s10,0x4
    37bc:	f80d0fe3          	beqz	s10,375a <_strtod_l+0x5fe>
    37c0:	47fd                	li	a5,31
    37c2:	01a7dd63          	bge	a5,s10,37dc <_strtod_l+0x680>
    37c6:	4b01                	li	s6,0
    37c8:	4981                	li	s3,0
    37ca:	c602                	sw	zero,12(sp)
    37cc:	4b81                	li	s7,0
    37ce:	02200793          	li	a5,34
    37d2:	4481                	li	s1,0
    37d4:	4401                	li	s0,0
    37d6:	00f92023          	sw	a5,0(s2)
    37da:	bdcd                	j	36cc <_strtod_l+0x570>
    37dc:	010d7a13          	andi	s4,s10,16
    37e0:	000a0463          	beqz	s4,37e8 <_strtod_l+0x68c>
    37e4:	06a00a13          	li	s4,106
    37e8:	8526                	mv	a0,s1
    37ea:	85a2                	mv	a1,s0
    37ec:	00007797          	auipc	a5,0x7
    37f0:	d5478793          	addi	a5,a5,-684 # a540 <tinytens>
    37f4:	4701                	li	a4,0
    37f6:	001d7693          	andi	a3,s10,1
    37fa:	ca81                	beqz	a3,380a <_strtod_l+0x6ae>
    37fc:	4390                	lw	a2,0(a5)
    37fe:	43d4                	lw	a3,4(a5)
    3800:	c63e                	sw	a5,12(sp)
    3802:	710040ef          	jal	ra,7f12 <__muldf3>
    3806:	47b2                	lw	a5,12(sp)
    3808:	4705                	li	a4,1
    380a:	401d5d13          	srai	s10,s10,0x1
    380e:	07a1                	addi	a5,a5,8
    3810:	fe0d13e3          	bnez	s10,37f6 <_strtod_l+0x69a>
    3814:	c319                	beqz	a4,381a <_strtod_l+0x6be>
    3816:	84aa                	mv	s1,a0
    3818:	842e                	mv	s0,a1
    381a:	020a0563          	beqz	s4,3844 <_strtod_l+0x6e8>
    381e:	01445793          	srli	a5,s0,0x14
    3822:	7ff7f713          	andi	a4,a5,2047
    3826:	06b00793          	li	a5,107
    382a:	8f99                	sub	a5,a5,a4
    382c:	00f05c63          	blez	a5,3844 <_strtod_l+0x6e8>
    3830:	477d                	li	a4,31
    3832:	22f75463          	bge	a4,a5,3a5a <_strtod_l+0x8fe>
    3836:	03400713          	li	a4,52
    383a:	4481                	li	s1,0
    383c:	20f75963          	bge	a4,a5,3a4e <_strtod_l+0x8f2>
    3840:	03700437          	lui	s0,0x3700
    3844:	4601                	li	a2,0
    3846:	4681                	li	a3,0
    3848:	8526                	mv	a0,s1
    384a:	85a2                	mv	a1,s0
    384c:	4f8040ef          	jal	ra,7d44 <__eqdf2>
    3850:	d93d                	beqz	a0,37c6 <_strtod_l+0x66a>
    3852:	875e                	mv	a4,s7
    3854:	86ee                	mv	a3,s11
    3856:	8662                	mv	a2,s8
    3858:	85e6                	mv	a1,s9
    385a:	854a                	mv	a0,s2
    385c:	4d0020ef          	jal	ra,5d2c <__s2b>
    3860:	c62a                	sw	a0,12(sp)
    3862:	e4050ae3          	beqz	a0,36b6 <_strtod_l+0x55a>
    3866:	41fad793          	srai	a5,s5,0x1f
    386a:	413b09b3          	sub	s3,s6,s3
    386e:	00f9f7b3          	and	a5,s3,a5
    3872:	d03e                	sw	a5,32(sp)
    3874:	ce56                	sw	s5,28(sp)
    3876:	000ad363          	bgez	s5,387c <_strtod_l+0x720>
    387a:	ce02                	sw	zero,28(sp)
    387c:	47b2                	lw	a5,12(sp)
    387e:	4b01                	li	s6,0
    3880:	4981                	li	s3,0
    3882:	07b1                	addi	a5,a5,12
    3884:	d83e                	sw	a5,48(sp)
    3886:	001007b7          	lui	a5,0x100
    388a:	17fd                	addi	a5,a5,-1
    388c:	d63e                	sw	a5,44(sp)
    388e:	47b2                	lw	a5,12(sp)
    3890:	854a                	mv	a0,s2
    3892:	43cc                	lw	a1,4(a5)
    3894:	330020ef          	jal	ra,5bc4 <_Balloc>
    3898:	8baa                	mv	s7,a0
    389a:	e20502e3          	beqz	a0,36be <_strtod_l+0x562>
    389e:	47b2                	lw	a5,12(sp)
    38a0:	55c2                	lw	a1,48(sp)
    38a2:	0531                	addi	a0,a0,12
    38a4:	4b90                	lw	a2,16(a5)
    38a6:	0609                	addi	a2,a2,2
    38a8:	060a                	slli	a2,a2,0x2
    38aa:	264020ef          	jal	ra,5b0e <memcpy>
    38ae:	08b8                	addi	a4,sp,88
    38b0:	08d4                	addi	a3,sp,84
    38b2:	8622                	mv	a2,s0
    38b4:	85a6                	mv	a1,s1
    38b6:	854a                	mv	a0,s2
    38b8:	ca26                	sw	s1,20(sp)
    38ba:	cc22                	sw	s0,24(sp)
    38bc:	2d1020ef          	jal	ra,638c <__d2b>
    38c0:	c8aa                	sw	a0,80(sp)
    38c2:	de050ee3          	beqz	a0,36be <_strtod_l+0x562>
    38c6:	4585                	li	a1,1
    38c8:	854a                	mv	a0,s2
    38ca:	5b8020ef          	jal	ra,5e82 <__i2b>
    38ce:	89aa                	mv	s3,a0
    38d0:	de0507e3          	beqz	a0,36be <_strtod_l+0x562>
    38d4:	47d6                	lw	a5,84(sp)
    38d6:	1807c763          	bltz	a5,3a64 <_strtod_l+0x908>
    38da:	5702                	lw	a4,32(sp)
    38dc:	4c72                	lw	s8,28(sp)
    38de:	00e78d33          	add	s10,a5,a4
    38e2:	4766                	lw	a4,88(sp)
    38e4:	414787b3          	sub	a5,a5,s4
    38e8:	03600693          	li	a3,54
    38ec:	97ba                	add	a5,a5,a4
    38ee:	17fd                	addi	a5,a5,-1
    38f0:	c0200d93          	li	s11,-1022
    38f4:	8e99                	sub	a3,a3,a4
    38f6:	19b7d663          	bge	a5,s11,3a82 <_strtod_l+0x926>
    38fa:	40fd8733          	sub	a4,s11,a5
    38fe:	467d                	li	a2,31
    3900:	8e99                	sub	a3,a3,a4
    3902:	16e64663          	blt	a2,a4,3a6e <_strtod_l+0x912>
    3906:	4d85                	li	s11,1
    3908:	00ed97b3          	sll	a5,s11,a4
    390c:	d23e                	sw	a5,36(sp)
    390e:	4c81                	li	s9,0
    3910:	9c36                	add	s8,s8,a3
    3912:	00dd0db3          	add	s11,s10,a3
    3916:	9c52                	add	s8,s8,s4
    3918:	87ea                	mv	a5,s10
    391a:	01add363          	bge	s11,s10,3920 <_strtod_l+0x7c4>
    391e:	87ee                	mv	a5,s11
    3920:	00fc5363          	bge	s8,a5,3926 <_strtod_l+0x7ca>
    3924:	87e2                	mv	a5,s8
    3926:	00f05863          	blez	a5,3936 <_strtod_l+0x7da>
    392a:	40fd8db3          	sub	s11,s11,a5
    392e:	40fc0c33          	sub	s8,s8,a5
    3932:	40fd0d33          	sub	s10,s10,a5
    3936:	5782                	lw	a5,32(sp)
    3938:	02f05863          	blez	a5,3968 <_strtod_l+0x80c>
    393c:	85ce                	mv	a1,s3
    393e:	863e                	mv	a2,a5
    3940:	854a                	mv	a0,s2
    3942:	6a0020ef          	jal	ra,5fe2 <__pow5mult>
    3946:	89aa                	mv	s3,a0
    3948:	d6050be3          	beqz	a0,36be <_strtod_l+0x562>
    394c:	4646                	lw	a2,80(sp)
    394e:	85aa                	mv	a1,a0
    3950:	854a                	mv	a0,s2
    3952:	54c020ef          	jal	ra,5e9e <__multiply>
    3956:	da2a                	sw	a0,52(sp)
    3958:	d60503e3          	beqz	a0,36be <_strtod_l+0x562>
    395c:	45c6                	lw	a1,80(sp)
    395e:	854a                	mv	a0,s2
    3960:	2f0020ef          	jal	ra,5c50 <_Bfree>
    3964:	57d2                	lw	a5,52(sp)
    3966:	c8be                	sw	a5,80(sp)
    3968:	11b04f63          	bgtz	s11,3a86 <_strtod_l+0x92a>
    396c:	01505a63          	blez	s5,3980 <_strtod_l+0x824>
    3970:	4672                	lw	a2,28(sp)
    3972:	85de                	mv	a1,s7
    3974:	854a                	mv	a0,s2
    3976:	66c020ef          	jal	ra,5fe2 <__pow5mult>
    397a:	8baa                	mv	s7,a0
    397c:	d40501e3          	beqz	a0,36be <_strtod_l+0x562>
    3980:	01805a63          	blez	s8,3994 <_strtod_l+0x838>
    3984:	85de                	mv	a1,s7
    3986:	8662                	mv	a2,s8
    3988:	854a                	mv	a0,s2
    398a:	716020ef          	jal	ra,60a0 <__lshift>
    398e:	8baa                	mv	s7,a0
    3990:	d20507e3          	beqz	a0,36be <_strtod_l+0x562>
    3994:	01a05a63          	blez	s10,39a8 <_strtod_l+0x84c>
    3998:	85ce                	mv	a1,s3
    399a:	866a                	mv	a2,s10
    399c:	854a                	mv	a0,s2
    399e:	702020ef          	jal	ra,60a0 <__lshift>
    39a2:	89aa                	mv	s3,a0
    39a4:	d0050de3          	beqz	a0,36be <_strtod_l+0x562>
    39a8:	45c6                	lw	a1,80(sp)
    39aa:	865e                	mv	a2,s7
    39ac:	854a                	mv	a0,s2
    39ae:	7f2020ef          	jal	ra,61a0 <__mdiff>
    39b2:	8b2a                	mv	s6,a0
    39b4:	d00505e3          	beqz	a0,36be <_strtod_l+0x562>
    39b8:	00c52c03          	lw	s8,12(a0)
    39bc:	85ce                	mv	a1,s3
    39be:	00052623          	sw	zero,12(a0)
    39c2:	7ac020ef          	jal	ra,616e <__mcmp>
    39c6:	0c055963          	bgez	a0,3a98 <_strtod_l+0x93c>
    39ca:	009c6c33          	or	s8,s8,s1
    39ce:	120c1163          	bnez	s8,3af0 <_strtod_l+0x994>
    39d2:	00c41793          	slli	a5,s0,0xc
    39d6:	10079d63          	bnez	a5,3af0 <_strtod_l+0x994>
    39da:	7ff007b7          	lui	a5,0x7ff00
    39de:	8fe1                	and	a5,a5,s0
    39e0:	06b00737          	lui	a4,0x6b00
    39e4:	10f77663          	bgeu	a4,a5,3af0 <_strtod_l+0x994>
    39e8:	014b2783          	lw	a5,20(s6)
    39ec:	e791                	bnez	a5,39f8 <_strtod_l+0x89c>
    39ee:	010b2703          	lw	a4,16(s6)
    39f2:	4785                	li	a5,1
    39f4:	0ee7de63          	bge	a5,a4,3af0 <_strtod_l+0x994>
    39f8:	85da                	mv	a1,s6
    39fa:	4605                	li	a2,1
    39fc:	854a                	mv	a0,s2
    39fe:	6a2020ef          	jal	ra,60a0 <__lshift>
    3a02:	85ce                	mv	a1,s3
    3a04:	8b2a                	mv	s6,a0
    3a06:	768020ef          	jal	ra,616e <__mcmp>
    3a0a:	0ea05363          	blez	a0,3af0 <_strtod_l+0x994>
    3a0e:	100a0c63          	beqz	s4,3b26 <_strtod_l+0x9ca>
    3a12:	7ff007b7          	lui	a5,0x7ff00
    3a16:	8fe1                	and	a5,a5,s0
    3a18:	06b00737          	lui	a4,0x6b00
    3a1c:	10f74563          	blt	a4,a5,3b26 <_strtod_l+0x9ca>
    3a20:	03700737          	lui	a4,0x3700
    3a24:	daf755e3          	bge	a4,a5,37ce <_strtod_l+0x672>
    3a28:	4701                	li	a4,0
    3a2a:	395007b7          	lui	a5,0x39500
    3a2e:	8526                	mv	a0,s1
    3a30:	85a2                	mv	a1,s0
    3a32:	863a                	mv	a2,a4
    3a34:	86be                	mv	a3,a5
    3a36:	4dc040ef          	jal	ra,7f12 <__muldf3>
    3a3a:	842e                	mv	s0,a1
    3a3c:	8dc9                	or	a1,a1,a0
    3a3e:	84aa                	mv	s1,a0
    3a40:	c80599e3          	bnez	a1,36d2 <_strtod_l+0x576>
    3a44:	02200793          	li	a5,34
    3a48:	00f92023          	sw	a5,0(s2)
    3a4c:	b159                	j	36d2 <_strtod_l+0x576>
    3a4e:	1781                	addi	a5,a5,-32
    3a50:	577d                	li	a4,-1
    3a52:	00f717b3          	sll	a5,a4,a5
    3a56:	8c7d                	and	s0,s0,a5
    3a58:	b3f5                	j	3844 <_strtod_l+0x6e8>
    3a5a:	577d                	li	a4,-1
    3a5c:	00f717b3          	sll	a5,a4,a5
    3a60:	8cfd                	and	s1,s1,a5
    3a62:	b3cd                	j	3844 <_strtod_l+0x6e8>
    3a64:	4772                	lw	a4,28(sp)
    3a66:	5d02                	lw	s10,32(sp)
    3a68:	40f70c33          	sub	s8,a4,a5
    3a6c:	bd9d                	j	38e2 <_strtod_l+0x786>
    3a6e:	be200c93          	li	s9,-1054
    3a72:	40fc87b3          	sub	a5,s9,a5
    3a76:	4c85                	li	s9,1
    3a78:	00fc9cb3          	sll	s9,s9,a5
    3a7c:	4785                	li	a5,1
    3a7e:	d23e                	sw	a5,36(sp)
    3a80:	bd41                	j	3910 <_strtod_l+0x7b4>
    3a82:	4c81                	li	s9,0
    3a84:	bfe5                	j	3a7c <_strtod_l+0x920>
    3a86:	45c6                	lw	a1,80(sp)
    3a88:	866e                	mv	a2,s11
    3a8a:	854a                	mv	a0,s2
    3a8c:	614020ef          	jal	ra,60a0 <__lshift>
    3a90:	c8aa                	sw	a0,80(sp)
    3a92:	ec051de3          	bnez	a0,396c <_strtod_l+0x810>
    3a96:	b125                	j	36be <_strtod_l+0x562>
    3a98:	e969                	bnez	a0,3b6a <_strtod_l+0xa0e>
    3a9a:	00100737          	lui	a4,0x100
    3a9e:	177d                	addi	a4,a4,-1
    3aa0:	00e477b3          	and	a5,s0,a4
    3aa4:	040c0963          	beqz	s8,3af6 <_strtod_l+0x99a>
    3aa8:	04e79963          	bne	a5,a4,3afa <_strtod_l+0x99e>
    3aac:	577d                	li	a4,-1
    3aae:	020a0063          	beqz	s4,3ace <_strtod_l+0x972>
    3ab2:	7ff007b7          	lui	a5,0x7ff00
    3ab6:	8fe1                	and	a5,a5,s0
    3ab8:	06a006b7          	lui	a3,0x6a00
    3abc:	00f6e963          	bltu	a3,a5,3ace <_strtod_l+0x972>
    3ac0:	83d1                	srli	a5,a5,0x14
    3ac2:	06b00693          	li	a3,107
    3ac6:	40f687b3          	sub	a5,a3,a5
    3aca:	00f71733          	sll	a4,a4,a5
    3ace:	02e49663          	bne	s1,a4,3afa <_strtod_l+0x99e>
    3ad2:	7ff007b7          	lui	a5,0x7ff00
    3ad6:	17fd                	addi	a5,a5,-1
    3ad8:	00f41563          	bne	s0,a5,3ae2 <_strtod_l+0x986>
    3adc:	57fd                	li	a5,-1
    3ade:	bef480e3          	beq	s1,a5,36be <_strtod_l+0x562>
    3ae2:	7ff005b7          	lui	a1,0x7ff00
    3ae6:	8de1                	and	a1,a1,s0
    3ae8:	00100437          	lui	s0,0x100
    3aec:	942e                	add	s0,s0,a1
    3aee:	4481                	li	s1,0
    3af0:	f20a1ce3          	bnez	s4,3a28 <_strtod_l+0x8cc>
    3af4:	bef9                	j	36d2 <_strtod_l+0x576>
    3af6:	8fc5                	or	a5,a5,s1
    3af8:	db99                	beqz	a5,3a0e <_strtod_l+0x8b2>
    3afa:	040c8263          	beqz	s9,3b3e <_strtod_l+0x9e2>
    3afe:	008cfcb3          	and	s9,s9,s0
    3b02:	fe0c87e3          	beqz	s9,3af0 <_strtod_l+0x994>
    3b06:	8652                	mv	a2,s4
    3b08:	8526                	mv	a0,s1
    3b0a:	85a2                	mv	a1,s0
    3b0c:	020c0f63          	beqz	s8,3b4a <_strtod_l+0x9ee>
    3b10:	dfeff0ef          	jal	ra,310e <sulp>
    3b14:	862a                	mv	a2,a0
    3b16:	86ae                	mv	a3,a1
    3b18:	4552                	lw	a0,20(sp)
    3b1a:	45e2                	lw	a1,24(sp)
    3b1c:	544030ef          	jal	ra,7060 <__adddf3>
    3b20:	84aa                	mv	s1,a0
    3b22:	842e                	mv	s0,a1
    3b24:	b7f1                	j	3af0 <_strtod_l+0x994>
    3b26:	7ff005b7          	lui	a1,0x7ff00
    3b2a:	8de1                	and	a1,a1,s0
    3b2c:	fff00437          	lui	s0,0xfff00
    3b30:	95a2                	add	a1,a1,s0
    3b32:	00100437          	lui	s0,0x100
    3b36:	147d                	addi	s0,s0,-1
    3b38:	8c4d                	or	s0,s0,a1
    3b3a:	54fd                	li	s1,-1
    3b3c:	bf55                	j	3af0 <_strtod_l+0x994>
    3b3e:	5792                	lw	a5,36(sp)
    3b40:	0097fdb3          	and	s11,a5,s1
    3b44:	fa0d86e3          	beqz	s11,3af0 <_strtod_l+0x994>
    3b48:	bf7d                	j	3b06 <_strtod_l+0x9aa>
    3b4a:	dc4ff0ef          	jal	ra,310e <sulp>
    3b4e:	862a                	mv	a2,a0
    3b50:	86ae                	mv	a3,a1
    3b52:	4552                	lw	a0,20(sp)
    3b54:	45e2                	lw	a1,24(sp)
    3b56:	075040ef          	jal	ra,83ca <__subdf3>
    3b5a:	4601                	li	a2,0
    3b5c:	4681                	li	a3,0
    3b5e:	84aa                	mv	s1,a0
    3b60:	842e                	mv	s0,a1
    3b62:	1e2040ef          	jal	ra,7d44 <__eqdf2>
    3b66:	f549                	bnez	a0,3af0 <_strtod_l+0x994>
    3b68:	b19d                	j	37ce <_strtod_l+0x672>
    3b6a:	85ce                	mv	a1,s3
    3b6c:	855a                	mv	a0,s6
    3b6e:	0f3020ef          	jal	ra,6460 <__ratio>
    3b72:	00007797          	auipc	a5,0x7
    3b76:	96e78793          	addi	a5,a5,-1682 # a4e0 <__clz_tab+0x178>
    3b7a:	4390                	lw	a2,0(a5)
    3b7c:	43d4                	lw	a3,4(a5)
    3b7e:	8d2a                	mv	s10,a0
    3b80:	8dae                	mv	s11,a1
    3b82:	2da040ef          	jal	ra,7e5c <__ledf2>
    3b86:	10a04263          	bgtz	a0,3c8a <_strtod_l+0xb2e>
    3b8a:	0a0c0163          	beqz	s8,3c2c <_strtod_l+0xad0>
    3b8e:	4d81                	li	s11,0
    3b90:	3ff00d37          	lui	s10,0x3ff00
    3b94:	4701                	li	a4,0
    3b96:	3ff007b7          	lui	a5,0x3ff00
    3b9a:	7ff006b7          	lui	a3,0x7ff00
    3b9e:	00d47cb3          	and	s9,s0,a3
    3ba2:	7fe006b7          	lui	a3,0x7fe00
    3ba6:	16dc9f63          	bne	s9,a3,3d24 <_strtod_l+0xbc8>
    3baa:	d26a                	sw	s10,36(sp)
    3bac:	fcb00d37          	lui	s10,0xfcb00
    3bb0:	9d22                	add	s10,s10,s0
    3bb2:	8526                	mv	a0,s1
    3bb4:	85ea                	mv	a1,s10
    3bb6:	de3e                	sw	a5,60(sp)
    3bb8:	dc3a                	sw	a4,56(sp)
    3bba:	da6e                	sw	s11,52(sp)
    3bbc:	6d6020ef          	jal	ra,6292 <__ulp>
    3bc0:	58d2                	lw	a7,52(sp)
    3bc2:	5812                	lw	a6,36(sp)
    3bc4:	862a                	mv	a2,a0
    3bc6:	86ae                	mv	a3,a1
    3bc8:	8546                	mv	a0,a7
    3bca:	85c2                	mv	a1,a6
    3bcc:	346040ef          	jal	ra,7f12 <__muldf3>
    3bd0:	8626                	mv	a2,s1
    3bd2:	86ea                	mv	a3,s10
    3bd4:	48c030ef          	jal	ra,7060 <__adddf3>
    3bd8:	84aa                	mv	s1,a0
    3bda:	7ff00537          	lui	a0,0x7ff00
    3bde:	00b57633          	and	a2,a0,a1
    3be2:	7ca006b7          	lui	a3,0x7ca00
    3be6:	5762                	lw	a4,56(sp)
    3be8:	57f2                	lw	a5,60(sp)
    3bea:	0cd66563          	bltu	a2,a3,3cb4 <_strtod_l+0xb58>
    3bee:	4762                	lw	a4,24(sp)
    3bf0:	fff50793          	addi	a5,a0,-1 # 7fefffff <_eusrstack+0x5fef7fff>
    3bf4:	00e79663          	bne	a5,a4,3c00 <_strtod_l+0xaa4>
    3bf8:	4752                	lw	a4,20(sp)
    3bfa:	57fd                	li	a5,-1
    3bfc:	ace781e3          	beq	a5,a4,36be <_strtod_l+0x562>
    3c00:	7ff007b7          	lui	a5,0x7ff00
    3c04:	fff78413          	addi	s0,a5,-1 # 7fefffff <_eusrstack+0x5fef7fff>
    3c08:	54fd                	li	s1,-1
    3c0a:	45c6                	lw	a1,80(sp)
    3c0c:	854a                	mv	a0,s2
    3c0e:	042020ef          	jal	ra,5c50 <_Bfree>
    3c12:	85de                	mv	a1,s7
    3c14:	854a                	mv	a0,s2
    3c16:	03a020ef          	jal	ra,5c50 <_Bfree>
    3c1a:	85ce                	mv	a1,s3
    3c1c:	854a                	mv	a0,s2
    3c1e:	032020ef          	jal	ra,5c50 <_Bfree>
    3c22:	85da                	mv	a1,s6
    3c24:	854a                	mv	a0,s2
    3c26:	02a020ef          	jal	ra,5c50 <_Bfree>
    3c2a:	b195                	j	388e <_strtod_l+0x732>
    3c2c:	e0b1                	bnez	s1,3c70 <_strtod_l+0xb14>
    3c2e:	57b2                	lw	a5,44(sp)
    3c30:	8fe1                	and	a5,a5,s0
    3c32:	e7a1                	bnez	a5,3c7a <_strtod_l+0xb1e>
    3c34:	00007797          	auipc	a5,0x7
    3c38:	8a478793          	addi	a5,a5,-1884 # a4d8 <__clz_tab+0x170>
    3c3c:	4390                	lw	a2,0(a5)
    3c3e:	43d4                	lw	a3,4(a5)
    3c40:	856a                	mv	a0,s10
    3c42:	85ee                	mv	a1,s11
    3c44:	218040ef          	jal	ra,7e5c <__ledf2>
    3c48:	02054d63          	bltz	a0,3c82 <_strtod_l+0xb26>
    3c4c:	00007797          	auipc	a5,0x7
    3c50:	88478793          	addi	a5,a5,-1916 # a4d0 <__clz_tab+0x168>
    3c54:	4390                	lw	a2,0(a5)
    3c56:	43d4                	lw	a3,4(a5)
    3c58:	856a                	mv	a0,s10
    3c5a:	85ee                	mv	a1,s11
    3c5c:	2b6040ef          	jal	ra,7f12 <__muldf3>
    3c60:	872a                	mv	a4,a0
    3c62:	87ae                	mv	a5,a1
    3c64:	80000d37          	lui	s10,0x80000
    3c68:	8dba                	mv	s11,a4
    3c6a:	00fd4d33          	xor	s10,s10,a5
    3c6e:	b735                	j	3b9a <_strtod_l+0xa3e>
    3c70:	4785                	li	a5,1
    3c72:	00f49463          	bne	s1,a5,3c7a <_strtod_l+0xb1e>
    3c76:	b4040ce3          	beqz	s0,37ce <_strtod_l+0x672>
    3c7a:	4d81                	li	s11,0
    3c7c:	bff00d37          	lui	s10,0xbff00
    3c80:	bf11                	j	3b94 <_strtod_l+0xa38>
    3c82:	4701                	li	a4,0
    3c84:	3fe007b7          	lui	a5,0x3fe00
    3c88:	bff1                	j	3c64 <_strtod_l+0xb08>
    3c8a:	00007797          	auipc	a5,0x7
    3c8e:	84678793          	addi	a5,a5,-1978 # a4d0 <__clz_tab+0x168>
    3c92:	4390                	lw	a2,0(a5)
    3c94:	43d4                	lw	a3,4(a5)
    3c96:	856a                	mv	a0,s10
    3c98:	85ee                	mv	a1,s11
    3c9a:	278040ef          	jal	ra,7f12 <__muldf3>
    3c9e:	872a                	mv	a4,a0
    3ca0:	87ae                	mv	a5,a1
    3ca2:	8d2e                	mv	s10,a1
    3ca4:	000c1663          	bnez	s8,3cb0 <_strtod_l+0xb54>
    3ca8:	80000d37          	lui	s10,0x80000
    3cac:	00bd4d33          	xor	s10,s10,a1
    3cb0:	8daa                	mv	s11,a0
    3cb2:	b5e5                	j	3b9a <_strtod_l+0xa3e>
    3cb4:	03500437          	lui	s0,0x3500
    3cb8:	942e                	add	s0,s0,a1
    3cba:	f40a18e3          	bnez	s4,3c0a <_strtod_l+0xaae>
    3cbe:	7ff006b7          	lui	a3,0x7ff00
    3cc2:	8ee1                	and	a3,a3,s0
    3cc4:	f4dc93e3          	bne	s9,a3,3c0a <_strtod_l+0xaae>
    3cc8:	85be                	mv	a1,a5
    3cca:	853a                	mv	a0,a4
    3ccc:	8d3a                	mv	s10,a4
    3cce:	8cbe                	mv	s9,a5
    3cd0:	675040ef          	jal	ra,8b44 <__fixdfsi>
    3cd4:	735040ef          	jal	ra,8c08 <__floatsidf>
    3cd8:	862a                	mv	a2,a0
    3cda:	86ae                	mv	a3,a1
    3cdc:	856a                	mv	a0,s10
    3cde:	85e6                	mv	a1,s9
    3ce0:	6ea040ef          	jal	ra,83ca <__subdf3>
    3ce4:	57b2                	lw	a5,44(sp)
    3ce6:	8d2a                	mv	s10,a0
    3ce8:	8dae                	mv	s11,a1
    3cea:	8fe1                	and	a5,a5,s0
    3cec:	8fc5                	or	a5,a5,s1
    3cee:	0187ec33          	or	s8,a5,s8
    3cf2:	0a0c0b63          	beqz	s8,3da8 <_strtod_l+0xc4c>
    3cf6:	00006797          	auipc	a5,0x6
    3cfa:	7fa78793          	addi	a5,a5,2042 # a4f0 <__clz_tab+0x188>
    3cfe:	4390                	lw	a2,0(a5)
    3d00:	43d4                	lw	a3,4(a5)
    3d02:	15a040ef          	jal	ra,7e5c <__ledf2>
    3d06:	9c0546e3          	bltz	a0,36d2 <_strtod_l+0x576>
    3d0a:	00006797          	auipc	a5,0x6
    3d0e:	7ee78793          	addi	a5,a5,2030 # a4f8 <__clz_tab+0x190>
    3d12:	4390                	lw	a2,0(a5)
    3d14:	43d4                	lw	a3,4(a5)
    3d16:	856a                	mv	a0,s10
    3d18:	85ee                	mv	a1,s11
    3d1a:	094040ef          	jal	ra,7dae <__gedf2>
    3d1e:	eea056e3          	blez	a0,3c0a <_strtod_l+0xaae>
    3d22:	ba45                	j	36d2 <_strtod_l+0x576>
    3d24:	040a0d63          	beqz	s4,3d7e <_strtod_l+0xc22>
    3d28:	06a006b7          	lui	a3,0x6a00
    3d2c:	0596e963          	bltu	a3,s9,3d7e <_strtod_l+0xc22>
    3d30:	00006697          	auipc	a3,0x6
    3d34:	7b868693          	addi	a3,a3,1976 # a4e8 <__clz_tab+0x180>
    3d38:	4290                	lw	a2,0(a3)
    3d3a:	42d4                	lw	a3,4(a3)
    3d3c:	853a                	mv	a0,a4
    3d3e:	85be                	mv	a1,a5
    3d40:	da3a                	sw	a4,52(sp)
    3d42:	d23e                	sw	a5,36(sp)
    3d44:	118040ef          	jal	ra,7e5c <__ledf2>
    3d48:	5792                	lw	a5,36(sp)
    3d4a:	5752                	lw	a4,52(sp)
    3d4c:	02a04463          	bgtz	a0,3d74 <_strtod_l+0xc18>
    3d50:	853a                	mv	a0,a4
    3d52:	85be                	mv	a1,a5
    3d54:	659040ef          	jal	ra,8bac <__fixunsdfsi>
    3d58:	e111                	bnez	a0,3d5c <_strtod_l+0xc00>
    3d5a:	4505                	li	a0,1
    3d5c:	71f040ef          	jal	ra,8c7a <__floatunsidf>
    3d60:	872a                	mv	a4,a0
    3d62:	87ae                	mv	a5,a1
    3d64:	8d2e                	mv	s10,a1
    3d66:	000c1663          	bnez	s8,3d72 <_strtod_l+0xc16>
    3d6a:	80000d37          	lui	s10,0x80000
    3d6e:	00bd4d33          	xor	s10,s10,a1
    3d72:	8daa                	mv	s11,a0
    3d74:	06b005b7          	lui	a1,0x6b00
    3d78:	9d2e                	add	s10,s10,a1
    3d7a:	419d0d33          	sub	s10,s10,s9
    3d7e:	4552                	lw	a0,20(sp)
    3d80:	45e2                	lw	a1,24(sp)
    3d82:	da3e                	sw	a5,52(sp)
    3d84:	d23a                	sw	a4,36(sp)
    3d86:	50c020ef          	jal	ra,6292 <__ulp>
    3d8a:	862a                	mv	a2,a0
    3d8c:	86ae                	mv	a3,a1
    3d8e:	856e                	mv	a0,s11
    3d90:	85ea                	mv	a1,s10
    3d92:	180040ef          	jal	ra,7f12 <__muldf3>
    3d96:	4652                	lw	a2,20(sp)
    3d98:	46e2                	lw	a3,24(sp)
    3d9a:	2c6030ef          	jal	ra,7060 <__adddf3>
    3d9e:	84aa                	mv	s1,a0
    3da0:	842e                	mv	s0,a1
    3da2:	57d2                	lw	a5,52(sp)
    3da4:	5712                	lw	a4,36(sp)
    3da6:	bf11                	j	3cba <_strtod_l+0xb5e>
    3da8:	00006797          	auipc	a5,0x6
    3dac:	75878793          	addi	a5,a5,1880 # a500 <__clz_tab+0x198>
    3db0:	4390                	lw	a2,0(a5)
    3db2:	43d4                	lw	a3,4(a5)
    3db4:	0a8040ef          	jal	ra,7e5c <__ledf2>
    3db8:	e40559e3          	bgez	a0,3c0a <_strtod_l+0xaae>
    3dbc:	ba19                	j	36d2 <_strtod_l+0x576>
    3dbe:	06500713          	li	a4,101
    3dc2:	00e78763          	beq	a5,a4,3dd0 <_strtod_l+0xc74>
    3dc6:	04500713          	li	a4,69
    3dca:	4505                	li	a0,1
    3dcc:	eee79763          	bne	a5,a4,34ba <_strtod_l+0x35e>
    3dd0:	4b01                	li	s6,0
    3dd2:	4505                	li	a0,1
    3dd4:	d78ff06f          	j	334c <_strtod_l+0x1f0>

00003dd8 <_strtod_r>:
    3dd8:	82018793          	addi	a5,gp,-2016 # 20000200 <_impure_ptr>
    3ddc:	439c                	lw	a5,0(a5)
    3dde:	5394                	lw	a3,32(a5)
    3de0:	e689                	bnez	a3,3dea <_strtod_r+0x12>
    3de2:	1fffc697          	auipc	a3,0x1fffc
    3de6:	28e68693          	addi	a3,a3,654 # 20000070 <__global_locale>
    3dea:	b72ff06f          	j	315c <_strtod_l>

00003dee <_strtol_l.isra.0>:
    3dee:	7179                	addi	sp,sp,-48
    3df0:	d04a                	sw	s2,32(sp)
    3df2:	ce4e                	sw	s3,28(sp)
    3df4:	d606                	sw	ra,44(sp)
    3df6:	d422                	sw	s0,40(sp)
    3df8:	d226                	sw	s1,36(sp)
    3dfa:	89aa                	mv	s3,a0
    3dfc:	892e                	mv	s2,a1
    3dfe:	00190493          	addi	s1,s2,1
    3e02:	fff4c403          	lbu	s0,-1(s1)
    3e06:	853a                	mv	a0,a4
    3e08:	c636                	sw	a3,12(sp)
    3e0a:	c432                	sw	a2,8(sp)
    3e0c:	c22e                	sw	a1,4(sp)
    3e0e:	c03a                	sw	a4,0(sp)
    3e10:	37f010ef          	jal	ra,598e <__locale_ctype_ptr_l>
    3e14:	9522                	add	a0,a0,s0
    3e16:	00154783          	lbu	a5,1(a0)
    3e1a:	4702                	lw	a4,0(sp)
    3e1c:	4592                	lw	a1,4(sp)
    3e1e:	8ba1                	andi	a5,a5,8
    3e20:	4622                	lw	a2,8(sp)
    3e22:	46b2                	lw	a3,12(sp)
    3e24:	e7c9                	bnez	a5,3eae <_strtol_l.isra.0+0xc0>
    3e26:	02d00793          	li	a5,45
    3e2a:	08f41463          	bne	s0,a5,3eb2 <_strtol_l.isra.0+0xc4>
    3e2e:	0004c783          	lbu	a5,0(s1)
    3e32:	4305                	li	t1,1
    3e34:	00290493          	addi	s1,s2,2
    3e38:	c6fd                	beqz	a3,3f26 <_strtol_l.isra.0+0x138>
    3e3a:	4741                	li	a4,16
    3e3c:	02e69263          	bne	a3,a4,3e60 <_strtol_l.isra.0+0x72>
    3e40:	03000713          	li	a4,48
    3e44:	00e79e63          	bne	a5,a4,3e60 <_strtol_l.isra.0+0x72>
    3e48:	0004c783          	lbu	a5,0(s1)
    3e4c:	05800713          	li	a4,88
    3e50:	0df7f793          	andi	a5,a5,223
    3e54:	0ce79463          	bne	a5,a4,3f1c <_strtol_l.isra.0+0x12e>
    3e58:	0014c783          	lbu	a5,1(s1)
    3e5c:	46c1                	li	a3,16
    3e5e:	0489                	addi	s1,s1,2
    3e60:	800008b7          	lui	a7,0x80000
    3e64:	00031463          	bnez	t1,3e6c <_strtol_l.isra.0+0x7e>
    3e68:	fff8c893          	not	a7,a7
    3e6c:	02d8ff33          	remu	t5,a7,a3
    3e70:	4801                	li	a6,0
    3e72:	4501                	li	a0,0
    3e74:	4fa5                	li	t6,9
    3e76:	4ee5                	li	t4,25
    3e78:	52fd                	li	t0,-1
    3e7a:	02d8de33          	divu	t3,a7,a3
    3e7e:	fd078713          	addi	a4,a5,-48
    3e82:	04efe463          	bltu	t6,a4,3eca <_strtol_l.isra.0+0xdc>
    3e86:	87ba                	mv	a5,a4
    3e88:	04d7df63          	bge	a5,a3,3ee6 <_strtol_l.isra.0+0xf8>
    3e8c:	00580d63          	beq	a6,t0,3ea6 <_strtol_l.isra.0+0xb8>
    3e90:	587d                	li	a6,-1
    3e92:	00ae6a63          	bltu	t3,a0,3ea6 <_strtol_l.isra.0+0xb8>
    3e96:	00ae1463          	bne	t3,a0,3e9e <_strtol_l.isra.0+0xb0>
    3e9a:	00ff4663          	blt	t5,a5,3ea6 <_strtol_l.isra.0+0xb8>
    3e9e:	4805                	li	a6,1
    3ea0:	02a68533          	mul	a0,a3,a0
    3ea4:	953e                	add	a0,a0,a5
    3ea6:	0485                	addi	s1,s1,1
    3ea8:	fff4c783          	lbu	a5,-1(s1)
    3eac:	bfc9                	j	3e7e <_strtol_l.isra.0+0x90>
    3eae:	8926                	mv	s2,s1
    3eb0:	b7b9                	j	3dfe <_strtol_l.isra.0+0x10>
    3eb2:	02b00793          	li	a5,43
    3eb6:	00f40563          	beq	s0,a5,3ec0 <_strtol_l.isra.0+0xd2>
    3eba:	87a2                	mv	a5,s0
    3ebc:	4301                	li	t1,0
    3ebe:	bfad                	j	3e38 <_strtol_l.isra.0+0x4a>
    3ec0:	0004c783          	lbu	a5,0(s1)
    3ec4:	00290493          	addi	s1,s2,2
    3ec8:	bfd5                	j	3ebc <_strtol_l.isra.0+0xce>
    3eca:	fbf78713          	addi	a4,a5,-65
    3ece:	00eee563          	bltu	t4,a4,3ed8 <_strtol_l.isra.0+0xea>
    3ed2:	fc978793          	addi	a5,a5,-55
    3ed6:	bf4d                	j	3e88 <_strtol_l.isra.0+0x9a>
    3ed8:	f9f78713          	addi	a4,a5,-97
    3edc:	00eee563          	bltu	t4,a4,3ee6 <_strtol_l.isra.0+0xf8>
    3ee0:	fa978793          	addi	a5,a5,-87
    3ee4:	b755                	j	3e88 <_strtol_l.isra.0+0x9a>
    3ee6:	57fd                	li	a5,-1
    3ee8:	00f81f63          	bne	a6,a5,3f06 <_strtol_l.isra.0+0x118>
    3eec:	02200793          	li	a5,34
    3ef0:	00f9a023          	sw	a5,0(s3)
    3ef4:	8546                	mv	a0,a7
    3ef6:	ee19                	bnez	a2,3f14 <_strtol_l.isra.0+0x126>
    3ef8:	50b2                	lw	ra,44(sp)
    3efa:	5422                	lw	s0,40(sp)
    3efc:	5492                	lw	s1,36(sp)
    3efe:	5902                	lw	s2,32(sp)
    3f00:	49f2                	lw	s3,28(sp)
    3f02:	6145                	addi	sp,sp,48
    3f04:	8082                	ret
    3f06:	00030463          	beqz	t1,3f0e <_strtol_l.isra.0+0x120>
    3f0a:	40a00533          	neg	a0,a0
    3f0e:	d66d                	beqz	a2,3ef8 <_strtol_l.isra.0+0x10a>
    3f10:	00080463          	beqz	a6,3f18 <_strtol_l.isra.0+0x12a>
    3f14:	fff48593          	addi	a1,s1,-1
    3f18:	c20c                	sw	a1,0(a2)
    3f1a:	bff9                	j	3ef8 <_strtol_l.isra.0+0x10a>
    3f1c:	03000793          	li	a5,48
    3f20:	f2a1                	bnez	a3,3e60 <_strtol_l.isra.0+0x72>
    3f22:	46a1                	li	a3,8
    3f24:	bf35                	j	3e60 <_strtol_l.isra.0+0x72>
    3f26:	03000713          	li	a4,48
    3f2a:	f0e78fe3          	beq	a5,a4,3e48 <_strtol_l.isra.0+0x5a>
    3f2e:	46a9                	li	a3,10
    3f30:	bf05                	j	3e60 <_strtol_l.isra.0+0x72>

00003f32 <_strtol_r>:
    3f32:	82018793          	addi	a5,gp,-2016 # 20000200 <_impure_ptr>
    3f36:	439c                	lw	a5,0(a5)
    3f38:	5398                	lw	a4,32(a5)
    3f3a:	e709                	bnez	a4,3f44 <_strtol_r+0x12>
    3f3c:	1fffc717          	auipc	a4,0x1fffc
    3f40:	13470713          	addi	a4,a4,308 # 20000070 <__global_locale>
    3f44:	b56d                	j	3dee <_strtol_l.isra.0>

00003f46 <__swbuf_r>:
    3f46:	1101                	addi	sp,sp,-32
    3f48:	cc22                	sw	s0,24(sp)
    3f4a:	ca26                	sw	s1,20(sp)
    3f4c:	c84a                	sw	s2,16(sp)
    3f4e:	ce06                	sw	ra,28(sp)
    3f50:	c64e                	sw	s3,12(sp)
    3f52:	84aa                	mv	s1,a0
    3f54:	892e                	mv	s2,a1
    3f56:	8432                	mv	s0,a2
    3f58:	c509                	beqz	a0,3f62 <__swbuf_r+0x1c>
    3f5a:	4d1c                	lw	a5,24(a0)
    3f5c:	e399                	bnez	a5,3f62 <__swbuf_r+0x1c>
    3f5e:	17a010ef          	jal	ra,50d8 <__sinit>
    3f62:	00006797          	auipc	a5,0x6
    3f66:	66e78793          	addi	a5,a5,1646 # a5d0 <__sf_fake_stdin>
    3f6a:	06f41b63          	bne	s0,a5,3fe0 <__swbuf_r+0x9a>
    3f6e:	40c0                	lw	s0,4(s1)
    3f70:	4c1c                	lw	a5,24(s0)
    3f72:	c41c                	sw	a5,8(s0)
    3f74:	00c45783          	lhu	a5,12(s0) # 350000c <_data_lma+0x34f5758>
    3f78:	8ba1                	andi	a5,a5,8
    3f7a:	c3d9                	beqz	a5,4000 <__swbuf_r+0xba>
    3f7c:	481c                	lw	a5,16(s0)
    3f7e:	c3c9                	beqz	a5,4000 <__swbuf_r+0xba>
    3f80:	481c                	lw	a5,16(s0)
    3f82:	4008                	lw	a0,0(s0)
    3f84:	0ff97993          	andi	s3,s2,255
    3f88:	0ff97913          	andi	s2,s2,255
    3f8c:	8d1d                	sub	a0,a0,a5
    3f8e:	485c                	lw	a5,20(s0)
    3f90:	00f54763          	blt	a0,a5,3f9e <__swbuf_r+0x58>
    3f94:	85a2                	mv	a1,s0
    3f96:	8526                	mv	a0,s1
    3f98:	01e010ef          	jal	ra,4fb6 <_fflush_r>
    3f9c:	e535                	bnez	a0,4008 <__swbuf_r+0xc2>
    3f9e:	441c                	lw	a5,8(s0)
    3fa0:	0505                	addi	a0,a0,1
    3fa2:	17fd                	addi	a5,a5,-1
    3fa4:	c41c                	sw	a5,8(s0)
    3fa6:	401c                	lw	a5,0(s0)
    3fa8:	00178713          	addi	a4,a5,1
    3fac:	c018                	sw	a4,0(s0)
    3fae:	01378023          	sb	s3,0(a5)
    3fb2:	485c                	lw	a5,20(s0)
    3fb4:	00a78963          	beq	a5,a0,3fc6 <__swbuf_r+0x80>
    3fb8:	00c45783          	lhu	a5,12(s0)
    3fbc:	8b85                	andi	a5,a5,1
    3fbe:	cb89                	beqz	a5,3fd0 <__swbuf_r+0x8a>
    3fc0:	47a9                	li	a5,10
    3fc2:	00f91763          	bne	s2,a5,3fd0 <__swbuf_r+0x8a>
    3fc6:	85a2                	mv	a1,s0
    3fc8:	8526                	mv	a0,s1
    3fca:	7ed000ef          	jal	ra,4fb6 <_fflush_r>
    3fce:	ed0d                	bnez	a0,4008 <__swbuf_r+0xc2>
    3fd0:	40f2                	lw	ra,28(sp)
    3fd2:	4462                	lw	s0,24(sp)
    3fd4:	854a                	mv	a0,s2
    3fd6:	44d2                	lw	s1,20(sp)
    3fd8:	4942                	lw	s2,16(sp)
    3fda:	49b2                	lw	s3,12(sp)
    3fdc:	6105                	addi	sp,sp,32
    3fde:	8082                	ret
    3fe0:	00006797          	auipc	a5,0x6
    3fe4:	61078793          	addi	a5,a5,1552 # a5f0 <__sf_fake_stdout>
    3fe8:	00f41463          	bne	s0,a5,3ff0 <__swbuf_r+0xaa>
    3fec:	4480                	lw	s0,8(s1)
    3fee:	b749                	j	3f70 <__swbuf_r+0x2a>
    3ff0:	00006797          	auipc	a5,0x6
    3ff4:	5c078793          	addi	a5,a5,1472 # a5b0 <__sf_fake_stderr>
    3ff8:	f6f41ce3          	bne	s0,a5,3f70 <__swbuf_r+0x2a>
    3ffc:	44c0                	lw	s0,12(s1)
    3ffe:	bf8d                	j	3f70 <__swbuf_r+0x2a>
    4000:	85a2                	mv	a1,s0
    4002:	8526                	mv	a0,s1
    4004:	2021                	jal	400c <__swsetup_r>
    4006:	dd2d                	beqz	a0,3f80 <__swbuf_r+0x3a>
    4008:	597d                	li	s2,-1
    400a:	b7d9                	j	3fd0 <__swbuf_r+0x8a>

0000400c <__swsetup_r>:
    400c:	1141                	addi	sp,sp,-16
    400e:	82018793          	addi	a5,gp,-2016 # 20000200 <_impure_ptr>
    4012:	c226                	sw	s1,4(sp)
    4014:	4384                	lw	s1,0(a5)
    4016:	c422                	sw	s0,8(sp)
    4018:	c04a                	sw	s2,0(sp)
    401a:	c606                	sw	ra,12(sp)
    401c:	892a                	mv	s2,a0
    401e:	842e                	mv	s0,a1
    4020:	c491                	beqz	s1,402c <__swsetup_r+0x20>
    4022:	4c9c                	lw	a5,24(s1)
    4024:	e781                	bnez	a5,402c <__swsetup_r+0x20>
    4026:	8526                	mv	a0,s1
    4028:	0b0010ef          	jal	ra,50d8 <__sinit>
    402c:	00006797          	auipc	a5,0x6
    4030:	5a478793          	addi	a5,a5,1444 # a5d0 <__sf_fake_stdin>
    4034:	02f41c63          	bne	s0,a5,406c <__swsetup_r+0x60>
    4038:	40c0                	lw	s0,4(s1)
    403a:	00c41703          	lh	a4,12(s0)
    403e:	01071793          	slli	a5,a4,0x10
    4042:	83c1                	srli	a5,a5,0x10
    4044:	0087f693          	andi	a3,a5,8
    4048:	eebd                	bnez	a3,40c6 <__swsetup_r+0xba>
    404a:	0107f693          	andi	a3,a5,16
    404e:	ee9d                	bnez	a3,408c <__swsetup_r+0x80>
    4050:	47a5                	li	a5,9
    4052:	00f92023          	sw	a5,0(s2)
    4056:	04076713          	ori	a4,a4,64
    405a:	00e41623          	sh	a4,12(s0)
    405e:	557d                	li	a0,-1
    4060:	40b2                	lw	ra,12(sp)
    4062:	4422                	lw	s0,8(sp)
    4064:	4492                	lw	s1,4(sp)
    4066:	4902                	lw	s2,0(sp)
    4068:	0141                	addi	sp,sp,16
    406a:	8082                	ret
    406c:	00006797          	auipc	a5,0x6
    4070:	58478793          	addi	a5,a5,1412 # a5f0 <__sf_fake_stdout>
    4074:	00f41463          	bne	s0,a5,407c <__swsetup_r+0x70>
    4078:	4480                	lw	s0,8(s1)
    407a:	b7c1                	j	403a <__swsetup_r+0x2e>
    407c:	00006797          	auipc	a5,0x6
    4080:	53478793          	addi	a5,a5,1332 # a5b0 <__sf_fake_stderr>
    4084:	faf41be3          	bne	s0,a5,403a <__swsetup_r+0x2e>
    4088:	44c0                	lw	s0,12(s1)
    408a:	bf45                	j	403a <__swsetup_r+0x2e>
    408c:	8b91                	andi	a5,a5,4
    408e:	c795                	beqz	a5,40ba <__swsetup_r+0xae>
    4090:	584c                	lw	a1,52(s0)
    4092:	c991                	beqz	a1,40a6 <__swsetup_r+0x9a>
    4094:	04440793          	addi	a5,s0,68
    4098:	00f58563          	beq	a1,a5,40a2 <__swsetup_r+0x96>
    409c:	854a                	mv	a0,s2
    409e:	4d8020ef          	jal	ra,6576 <_free_r>
    40a2:	02042a23          	sw	zero,52(s0)
    40a6:	00c45783          	lhu	a5,12(s0)
    40aa:	00042223          	sw	zero,4(s0)
    40ae:	fdb7f793          	andi	a5,a5,-37
    40b2:	00f41623          	sh	a5,12(s0)
    40b6:	481c                	lw	a5,16(s0)
    40b8:	c01c                	sw	a5,0(s0)
    40ba:	00c45783          	lhu	a5,12(s0)
    40be:	0087e793          	ori	a5,a5,8
    40c2:	00f41623          	sh	a5,12(s0)
    40c6:	481c                	lw	a5,16(s0)
    40c8:	ef89                	bnez	a5,40e2 <__swsetup_r+0xd6>
    40ca:	00c45783          	lhu	a5,12(s0)
    40ce:	20000713          	li	a4,512
    40d2:	2807f793          	andi	a5,a5,640
    40d6:	00e78663          	beq	a5,a4,40e2 <__swsetup_r+0xd6>
    40da:	85a2                	mv	a1,s0
    40dc:	854a                	mv	a0,s2
    40de:	12f010ef          	jal	ra,5a0c <__smakebuf_r>
    40e2:	00c45783          	lhu	a5,12(s0)
    40e6:	0017f713          	andi	a4,a5,1
    40ea:	c705                	beqz	a4,4112 <__swsetup_r+0x106>
    40ec:	485c                	lw	a5,20(s0)
    40ee:	00042423          	sw	zero,8(s0)
    40f2:	40f007b3          	neg	a5,a5
    40f6:	cc1c                	sw	a5,24(s0)
    40f8:	481c                	lw	a5,16(s0)
    40fa:	4501                	li	a0,0
    40fc:	f3b5                	bnez	a5,4060 <__swsetup_r+0x54>
    40fe:	00c41783          	lh	a5,12(s0)
    4102:	0807f713          	andi	a4,a5,128
    4106:	df29                	beqz	a4,4060 <__swsetup_r+0x54>
    4108:	0407e793          	ori	a5,a5,64
    410c:	00f41623          	sh	a5,12(s0)
    4110:	b7b9                	j	405e <__swsetup_r+0x52>
    4112:	8b89                	andi	a5,a5,2
    4114:	4701                	li	a4,0
    4116:	e391                	bnez	a5,411a <__swsetup_r+0x10e>
    4118:	4858                	lw	a4,20(s0)
    411a:	c418                	sw	a4,8(s0)
    411c:	bff1                	j	40f8 <__swsetup_r+0xec>

0000411e <quorem>:
    411e:	1101                	addi	sp,sp,-32
    4120:	cc22                	sw	s0,24(sp)
    4122:	491c                	lw	a5,16(a0)
    4124:	4980                	lw	s0,16(a1)
    4126:	ce06                	sw	ra,28(sp)
    4128:	ca26                	sw	s1,20(sp)
    412a:	c84a                	sw	s2,16(sp)
    412c:	c64e                	sw	s3,12(sp)
    412e:	c452                	sw	s4,8(sp)
    4130:	c256                	sw	s5,4(sp)
    4132:	1287c163          	blt	a5,s0,4254 <quorem+0x136>
    4136:	147d                	addi	s0,s0,-1
    4138:	00241813          	slli	a6,s0,0x2
    413c:	01458993          	addi	s3,a1,20 # 6b00014 <_data_lma+0x6af5760>
    4140:	01098a33          	add	s4,s3,a6
    4144:	01450913          	addi	s2,a0,20
    4148:	984a                	add	a6,a6,s2
    414a:	000a2783          	lw	a5,0(s4)
    414e:	00082703          	lw	a4,0(a6)
    4152:	0785                	addi	a5,a5,1
    4154:	02f754b3          	divu	s1,a4,a5
    4158:	06f76663          	bltu	a4,a5,41c4 <quorem+0xa6>
    415c:	68c1                	lui	a7,0x10
    415e:	834e                	mv	t1,s3
    4160:	8e4a                	mv	t3,s2
    4162:	4e81                	li	t4,0
    4164:	4f01                	li	t5,0
    4166:	18fd                	addi	a7,a7,-1
    4168:	0311                	addi	t1,t1,4
    416a:	ffc32603          	lw	a2,-4(t1)
    416e:	0e11                	addi	t3,t3,4
    4170:	01167733          	and	a4,a2,a7
    4174:	8241                	srli	a2,a2,0x10
    4176:	02970733          	mul	a4,a4,s1
    417a:	02960633          	mul	a2,a2,s1
    417e:	9776                	add	a4,a4,t4
    4180:	01075693          	srli	a3,a4,0x10
    4184:	011777b3          	and	a5,a4,a7
    4188:	40ff07b3          	sub	a5,t5,a5
    418c:	9636                	add	a2,a2,a3
    418e:	ffce2683          	lw	a3,-4(t3)
    4192:	01065e93          	srli	t4,a2,0x10
    4196:	01167633          	and	a2,a2,a7
    419a:	0116f733          	and	a4,a3,a7
    419e:	97ba                	add	a5,a5,a4
    41a0:	82c1                	srli	a3,a3,0x10
    41a2:	4107d713          	srai	a4,a5,0x10
    41a6:	8e91                	sub	a3,a3,a2
    41a8:	96ba                	add	a3,a3,a4
    41aa:	4106df13          	srai	t5,a3,0x10
    41ae:	0117f7b3          	and	a5,a5,a7
    41b2:	06c2                	slli	a3,a3,0x10
    41b4:	8fd5                	or	a5,a5,a3
    41b6:	fefe2e23          	sw	a5,-4(t3)
    41ba:	fa6a77e3          	bgeu	s4,t1,4168 <quorem+0x4a>
    41be:	00082783          	lw	a5,0(a6)
    41c2:	cbbd                	beqz	a5,4238 <quorem+0x11a>
    41c4:	8aaa                	mv	s5,a0
    41c6:	7a9010ef          	jal	ra,616e <__mcmp>
    41ca:	04054963          	bltz	a0,421c <quorem+0xfe>
    41ce:	6641                	lui	a2,0x10
    41d0:	0485                	addi	s1,s1,1
    41d2:	85ca                	mv	a1,s2
    41d4:	4501                	li	a0,0
    41d6:	167d                	addi	a2,a2,-1
    41d8:	0991                	addi	s3,s3,4
    41da:	ffc9a803          	lw	a6,-4(s3)
    41de:	4198                	lw	a4,0(a1)
    41e0:	0591                	addi	a1,a1,4
    41e2:	00c876b3          	and	a3,a6,a2
    41e6:	8d15                	sub	a0,a0,a3
    41e8:	00c776b3          	and	a3,a4,a2
    41ec:	96aa                	add	a3,a3,a0
    41ee:	01075793          	srli	a5,a4,0x10
    41f2:	01085813          	srli	a6,a6,0x10
    41f6:	4106d713          	srai	a4,a3,0x10
    41fa:	410787b3          	sub	a5,a5,a6
    41fe:	97ba                	add	a5,a5,a4
    4200:	4107d513          	srai	a0,a5,0x10
    4204:	8ef1                	and	a3,a3,a2
    4206:	07c2                	slli	a5,a5,0x10
    4208:	8fd5                	or	a5,a5,a3
    420a:	fef5ae23          	sw	a5,-4(a1)
    420e:	fd3a75e3          	bgeu	s4,s3,41d8 <quorem+0xba>
    4212:	00241793          	slli	a5,s0,0x2
    4216:	97ca                	add	a5,a5,s2
    4218:	4398                	lw	a4,0(a5)
    421a:	c71d                	beqz	a4,4248 <quorem+0x12a>
    421c:	8526                	mv	a0,s1
    421e:	40f2                	lw	ra,28(sp)
    4220:	4462                	lw	s0,24(sp)
    4222:	44d2                	lw	s1,20(sp)
    4224:	4942                	lw	s2,16(sp)
    4226:	49b2                	lw	s3,12(sp)
    4228:	4a22                	lw	s4,8(sp)
    422a:	4a92                	lw	s5,4(sp)
    422c:	6105                	addi	sp,sp,32
    422e:	8082                	ret
    4230:	00082783          	lw	a5,0(a6)
    4234:	e789                	bnez	a5,423e <quorem+0x120>
    4236:	147d                	addi	s0,s0,-1
    4238:	1871                	addi	a6,a6,-4
    423a:	ff096be3          	bltu	s2,a6,4230 <quorem+0x112>
    423e:	c900                	sw	s0,16(a0)
    4240:	b751                	j	41c4 <quorem+0xa6>
    4242:	4398                	lw	a4,0(a5)
    4244:	e709                	bnez	a4,424e <quorem+0x130>
    4246:	147d                	addi	s0,s0,-1
    4248:	17f1                	addi	a5,a5,-4
    424a:	fef96ce3          	bltu	s2,a5,4242 <quorem+0x124>
    424e:	008aa823          	sw	s0,16(s5)
    4252:	b7e9                	j	421c <quorem+0xfe>
    4254:	4501                	li	a0,0
    4256:	b7e1                	j	421e <quorem+0x100>

00004258 <_dtoa_r>:
    4258:	7175                	addi	sp,sp,-144
    425a:	d83e                	sw	a5,48(sp)
    425c:	515c                	lw	a5,36(a0)
    425e:	c522                	sw	s0,136(sp)
    4260:	c326                	sw	s1,132(sp)
    4262:	c14a                	sw	s2,128(sp)
    4264:	dece                	sw	s3,124(sp)
    4266:	dcd2                	sw	s4,120(sp)
    4268:	d4e2                	sw	s8,104(sp)
    426a:	c706                	sw	ra,140(sp)
    426c:	dad6                	sw	s5,116(sp)
    426e:	d8da                	sw	s6,112(sp)
    4270:	d6de                	sw	s7,108(sp)
    4272:	d2e6                	sw	s9,100(sp)
    4274:	d0ea                	sw	s10,96(sp)
    4276:	ceee                	sw	s11,92(sp)
    4278:	c236                	sw	a3,4(sp)
    427a:	c63a                	sw	a4,12(sp)
    427c:	ca46                	sw	a7,20(sp)
    427e:	84aa                	mv	s1,a0
    4280:	842e                	mv	s0,a1
    4282:	8932                	mv	s2,a2
    4284:	89c2                	mv	s3,a6
    4286:	8a2e                	mv	s4,a1
    4288:	8c32                	mv	s8,a2
    428a:	ef89                	bnez	a5,42a4 <_dtoa_r+0x4c>
    428c:	4541                	li	a0,16
    428e:	021010ef          	jal	ra,5aae <malloc>
    4292:	d0c8                	sw	a0,36(s1)
    4294:	00052223          	sw	zero,4(a0)
    4298:	00052423          	sw	zero,8(a0)
    429c:	00052023          	sw	zero,0(a0)
    42a0:	00052623          	sw	zero,12(a0)
    42a4:	50dc                	lw	a5,36(s1)
    42a6:	438c                	lw	a1,0(a5)
    42a8:	cd89                	beqz	a1,42c2 <_dtoa_r+0x6a>
    42aa:	43d8                	lw	a4,4(a5)
    42ac:	4785                	li	a5,1
    42ae:	8526                	mv	a0,s1
    42b0:	00e797b3          	sll	a5,a5,a4
    42b4:	c59c                	sw	a5,8(a1)
    42b6:	c1d8                	sw	a4,4(a1)
    42b8:	199010ef          	jal	ra,5c50 <_Bfree>
    42bc:	50dc                	lw	a5,36(s1)
    42be:	0007a023          	sw	zero,0(a5)
    42c2:	04095363          	bgez	s2,4308 <_dtoa_r+0xb0>
    42c6:	4785                	li	a5,1
    42c8:	00191c13          	slli	s8,s2,0x1
    42cc:	00f9a023          	sw	a5,0(s3)
    42d0:	001c5c13          	srli	s8,s8,0x1
    42d4:	7ff007b7          	lui	a5,0x7ff00
    42d8:	00fc7733          	and	a4,s8,a5
    42dc:	06f71463          	bne	a4,a5,4344 <_dtoa_r+0xec>
    42e0:	5742                	lw	a4,48(sp)
    42e2:	6789                	lui	a5,0x2
    42e4:	0c32                	slli	s8,s8,0xc
    42e6:	70f78793          	addi	a5,a5,1807 # 270f <_printf_float+0x481>
    42ea:	00cc5c13          	srli	s8,s8,0xc
    42ee:	c31c                	sw	a5,0(a4)
    42f0:	008c6c33          	or	s8,s8,s0
    42f4:	320c05e3          	beqz	s8,4e1e <_dtoa_r+0xbc6>
    42f8:	47d2                	lw	a5,20(sp)
    42fa:	eb91                	bnez	a5,430e <_dtoa_r+0xb6>
    42fc:	00006797          	auipc	a5,0x6
    4300:	2b078793          	addi	a5,a5,688 # a5ac <tinytens+0x6c>
    4304:	c03e                	sw	a5,0(sp)
    4306:	a839                	j	4324 <_dtoa_r+0xcc>
    4308:	0009a023          	sw	zero,0(s3)
    430c:	b7e1                	j	42d4 <_dtoa_r+0x7c>
    430e:	00006797          	auipc	a5,0x6
    4312:	29e78793          	addi	a5,a5,670 # a5ac <tinytens+0x6c>
    4316:	c03e                	sw	a5,0(sp)
    4318:	00006797          	auipc	a5,0x6
    431c:	29778793          	addi	a5,a5,663 # a5af <tinytens+0x6f>
    4320:	4752                	lw	a4,20(sp)
    4322:	c31c                	sw	a5,0(a4)
    4324:	40ba                	lw	ra,140(sp)
    4326:	442a                	lw	s0,136(sp)
    4328:	4502                	lw	a0,0(sp)
    432a:	449a                	lw	s1,132(sp)
    432c:	490a                	lw	s2,128(sp)
    432e:	59f6                	lw	s3,124(sp)
    4330:	5a66                	lw	s4,120(sp)
    4332:	5ad6                	lw	s5,116(sp)
    4334:	5b46                	lw	s6,112(sp)
    4336:	5bb6                	lw	s7,108(sp)
    4338:	5c26                	lw	s8,104(sp)
    433a:	5c96                	lw	s9,100(sp)
    433c:	5d06                	lw	s10,96(sp)
    433e:	4df6                	lw	s11,92(sp)
    4340:	6149                	addi	sp,sp,144
    4342:	8082                	ret
    4344:	4601                	li	a2,0
    4346:	4681                	li	a3,0
    4348:	8522                	mv	a0,s0
    434a:	85e2                	mv	a1,s8
    434c:	ce22                	sw	s0,28(sp)
    434e:	d462                	sw	s8,40(sp)
    4350:	1f5030ef          	jal	ra,7d44 <__eqdf2>
    4354:	e105                	bnez	a0,4374 <_dtoa_r+0x11c>
    4356:	5742                	lw	a4,48(sp)
    4358:	4785                	li	a5,1
    435a:	c31c                	sw	a5,0(a4)
    435c:	00006797          	auipc	a5,0x6
    4360:	12478793          	addi	a5,a5,292 # a480 <__clz_tab+0x118>
    4364:	c03e                	sw	a5,0(sp)
    4366:	47d2                	lw	a5,20(sp)
    4368:	dfd5                	beqz	a5,4324 <_dtoa_r+0xcc>
    436a:	00006797          	auipc	a5,0x6
    436e:	11778793          	addi	a5,a5,279 # a481 <__clz_tab+0x119>
    4372:	b77d                	j	4320 <_dtoa_r+0xc8>
    4374:	00b8                	addi	a4,sp,72
    4376:	00f4                	addi	a3,sp,76
    4378:	8662                	mv	a2,s8
    437a:	85a2                	mv	a1,s0
    437c:	8526                	mv	a0,s1
    437e:	014c5913          	srli	s2,s8,0x14
    4382:	00a020ef          	jal	ra,638c <__d2b>
    4386:	7ff97913          	andi	s2,s2,2047
    438a:	89aa                	mv	s3,a0
    438c:	4aa6                	lw	s5,72(sp)
    438e:	10090d63          	beqz	s2,44a8 <_dtoa_r+0x250>
    4392:	57a2                	lw	a5,40(sp)
    4394:	4572                	lw	a0,28(sp)
    4396:	c0190913          	addi	s2,s2,-1023
    439a:	00c79593          	slli	a1,a5,0xc
    439e:	81b1                	srli	a1,a1,0xc
    43a0:	3ff007b7          	lui	a5,0x3ff00
    43a4:	8ddd                	or	a1,a1,a5
    43a6:	dc02                	sw	zero,56(sp)
    43a8:	00006797          	auipc	a5,0x6
    43ac:	1c078793          	addi	a5,a5,448 # a568 <tinytens+0x28>
    43b0:	4390                	lw	a2,0(a5)
    43b2:	43d4                	lw	a3,4(a5)
    43b4:	016040ef          	jal	ra,83ca <__subdf3>
    43b8:	00006797          	auipc	a5,0x6
    43bc:	1b878793          	addi	a5,a5,440 # a570 <tinytens+0x30>
    43c0:	4390                	lw	a2,0(a5)
    43c2:	43d4                	lw	a3,4(a5)
    43c4:	34f030ef          	jal	ra,7f12 <__muldf3>
    43c8:	00006797          	auipc	a5,0x6
    43cc:	1b078793          	addi	a5,a5,432 # a578 <tinytens+0x38>
    43d0:	4390                	lw	a2,0(a5)
    43d2:	43d4                	lw	a3,4(a5)
    43d4:	48d020ef          	jal	ra,7060 <__adddf3>
    43d8:	8b2a                	mv	s6,a0
    43da:	854a                	mv	a0,s2
    43dc:	8bae                	mv	s7,a1
    43de:	02b040ef          	jal	ra,8c08 <__floatsidf>
    43e2:	00006797          	auipc	a5,0x6
    43e6:	19e78793          	addi	a5,a5,414 # a580 <tinytens+0x40>
    43ea:	4390                	lw	a2,0(a5)
    43ec:	43d4                	lw	a3,4(a5)
    43ee:	325030ef          	jal	ra,7f12 <__muldf3>
    43f2:	862a                	mv	a2,a0
    43f4:	86ae                	mv	a3,a1
    43f6:	855a                	mv	a0,s6
    43f8:	85de                	mv	a1,s7
    43fa:	467020ef          	jal	ra,7060 <__adddf3>
    43fe:	8b2a                	mv	s6,a0
    4400:	8bae                	mv	s7,a1
    4402:	742040ef          	jal	ra,8b44 <__fixdfsi>
    4406:	842a                	mv	s0,a0
    4408:	4601                	li	a2,0
    440a:	4681                	li	a3,0
    440c:	855a                	mv	a0,s6
    440e:	85de                	mv	a1,s7
    4410:	24d030ef          	jal	ra,7e5c <__ledf2>
    4414:	00055b63          	bgez	a0,442a <_dtoa_r+0x1d2>
    4418:	8522                	mv	a0,s0
    441a:	7ee040ef          	jal	ra,8c08 <__floatsidf>
    441e:	865a                	mv	a2,s6
    4420:	86de                	mv	a3,s7
    4422:	123030ef          	jal	ra,7d44 <__eqdf2>
    4426:	c111                	beqz	a0,442a <_dtoa_r+0x1d2>
    4428:	147d                	addi	s0,s0,-1
    442a:	4705                	li	a4,1
    442c:	47d9                	li	a5,22
    442e:	d63a                	sw	a4,44(sp)
    4430:	0287e363          	bltu	a5,s0,4456 <_dtoa_r+0x1fe>
    4434:	00341713          	slli	a4,s0,0x3
    4438:	00006797          	auipc	a5,0x6
    443c:	21078793          	addi	a5,a5,528 # a648 <__mprec_tens>
    4440:	97ba                	add	a5,a5,a4
    4442:	4390                	lw	a2,0(a5)
    4444:	43d4                	lw	a3,4(a5)
    4446:	4572                	lw	a0,28(sp)
    4448:	55a2                	lw	a1,40(sp)
    444a:	213030ef          	jal	ra,7e5c <__ledf2>
    444e:	00055363          	bgez	a0,4454 <_dtoa_r+0x1fc>
    4452:	147d                	addi	s0,s0,-1
    4454:	d602                	sw	zero,44(sp)
    4456:	412a8933          	sub	s2,s5,s2
    445a:	fff90b93          	addi	s7,s2,-1
    445e:	4b01                	li	s6,0
    4460:	000bd663          	bgez	s7,446c <_dtoa_r+0x214>
    4464:	4b05                	li	s6,1
    4466:	412b0b33          	sub	s6,s6,s2
    446a:	4b81                	li	s7,0
    446c:	06044e63          	bltz	s0,44e8 <_dtoa_r+0x290>
    4470:	9ba2                	add	s7,s7,s0
    4472:	cc22                	sw	s0,24(sp)
    4474:	4a81                	li	s5,0
    4476:	4712                	lw	a4,4(sp)
    4478:	47a5                	li	a5,9
    447a:	14e7e563          	bltu	a5,a4,45c4 <_dtoa_r+0x36c>
    447e:	4795                	li	a5,5
    4480:	4c85                	li	s9,1
    4482:	00e7d663          	bge	a5,a4,448e <_dtoa_r+0x236>
    4486:	ffc70793          	addi	a5,a4,-4
    448a:	c23e                	sw	a5,4(sp)
    448c:	4c81                	li	s9,0
    448e:	4712                	lw	a4,4(sp)
    4490:	478d                	li	a5,3
    4492:	10f70e63          	beq	a4,a5,45ae <_dtoa_r+0x356>
    4496:	04e7cf63          	blt	a5,a4,44f4 <_dtoa_r+0x29c>
    449a:	4789                	li	a5,2
    449c:	c802                	sw	zero,16(sp)
    449e:	06f70d63          	beq	a4,a5,4518 <_dtoa_r+0x2c0>
    44a2:	4785                	li	a5,1
    44a4:	c83e                	sw	a5,16(sp)
    44a6:	a08d                	j	4508 <_dtoa_r+0x2b0>
    44a8:	4936                	lw	s2,76(sp)
    44aa:	02000793          	li	a5,32
    44ae:	9956                	add	s2,s2,s5
    44b0:	43290713          	addi	a4,s2,1074
    44b4:	02e7d563          	bge	a5,a4,44de <_dtoa_r+0x286>
    44b8:	04000513          	li	a0,64
    44bc:	8d19                	sub	a0,a0,a4
    44be:	41290793          	addi	a5,s2,1042
    44c2:	00ac1533          	sll	a0,s8,a0
    44c6:	00f45433          	srl	s0,s0,a5
    44ca:	8d41                	or	a0,a0,s0
    44cc:	7ae040ef          	jal	ra,8c7a <__floatunsidf>
    44d0:	fe1007b7          	lui	a5,0xfe100
    44d4:	95be                	add	a1,a1,a5
    44d6:	4785                	li	a5,1
    44d8:	197d                	addi	s2,s2,-1
    44da:	dc3e                	sw	a5,56(sp)
    44dc:	b5f1                	j	43a8 <_dtoa_r+0x150>
    44de:	40e78533          	sub	a0,a5,a4
    44e2:	00a41533          	sll	a0,s0,a0
    44e6:	b7dd                	j	44cc <_dtoa_r+0x274>
    44e8:	408b0b33          	sub	s6,s6,s0
    44ec:	40800ab3          	neg	s5,s0
    44f0:	cc02                	sw	zero,24(sp)
    44f2:	b751                	j	4476 <_dtoa_r+0x21e>
    44f4:	4712                	lw	a4,4(sp)
    44f6:	4791                	li	a5,4
    44f8:	00f70e63          	beq	a4,a5,4514 <_dtoa_r+0x2bc>
    44fc:	4705                	li	a4,1
    44fe:	c83a                	sw	a4,16(sp)
    4500:	4712                	lw	a4,4(sp)
    4502:	4795                	li	a5,5
    4504:	0af70663          	beq	a4,a5,45b0 <_dtoa_r+0x358>
    4508:	57fd                	li	a5,-1
    450a:	c43e                	sw	a5,8(sp)
    450c:	5dfd                	li	s11,-1
    450e:	47c9                	li	a5,18
    4510:	c602                	sw	zero,12(sp)
    4512:	a819                	j	4528 <_dtoa_r+0x2d0>
    4514:	4785                	li	a5,1
    4516:	c83e                	sw	a5,16(sp)
    4518:	47b2                	lw	a5,12(sp)
    451a:	0af04863          	bgtz	a5,45ca <_dtoa_r+0x372>
    451e:	4785                	li	a5,1
    4520:	4705                	li	a4,1
    4522:	c43e                	sw	a5,8(sp)
    4524:	4d85                	li	s11,1
    4526:	c63a                	sw	a4,12(sp)
    4528:	0244a903          	lw	s2,36(s1)
    452c:	4711                	li	a4,4
    452e:	00092223          	sw	zero,4(s2)
    4532:	01470693          	addi	a3,a4,20
    4536:	00492583          	lw	a1,4(s2)
    453a:	08d7fc63          	bgeu	a5,a3,45d2 <_dtoa_r+0x37a>
    453e:	8526                	mv	a0,s1
    4540:	684010ef          	jal	ra,5bc4 <_Balloc>
    4544:	50dc                	lw	a5,36(s1)
    4546:	00a92023          	sw	a0,0(s2)
    454a:	439c                	lw	a5,0(a5)
    454c:	c03e                	sw	a5,0(sp)
    454e:	47b9                	li	a5,14
    4550:	1db7e663          	bltu	a5,s11,471c <_dtoa_r+0x4c4>
    4554:	1c0c8463          	beqz	s9,471c <_dtoa_r+0x4c4>
    4558:	0a805e63          	blez	s0,4614 <_dtoa_r+0x3bc>
    455c:	00f47793          	andi	a5,s0,15
    4560:	00379713          	slli	a4,a5,0x3
    4564:	40445c93          	srai	s9,s0,0x4
    4568:	00006797          	auipc	a5,0x6
    456c:	0e078793          	addi	a5,a5,224 # a648 <__mprec_tens>
    4570:	97ba                	add	a5,a5,a4
    4572:	010cf693          	andi	a3,s9,16
    4576:	4398                	lw	a4,0(a5)
    4578:	4909                	li	s2,2
    457a:	43dc                	lw	a5,4(a5)
    457c:	c685                	beqz	a3,45a4 <_dtoa_r+0x34c>
    457e:	00006697          	auipc	a3,0x6
    4582:	0a268693          	addi	a3,a3,162 # a620 <__mprec_bigtens>
    4586:	5290                	lw	a2,32(a3)
    4588:	4572                	lw	a0,28(sp)
    458a:	52d4                	lw	a3,36(a3)
    458c:	55a2                	lw	a1,40(sp)
    458e:	d03a                	sw	a4,32(sp)
    4590:	d23e                	sw	a5,36(sp)
    4592:	1fe030ef          	jal	ra,7790 <__divdf3>
    4596:	5702                	lw	a4,32(sp)
    4598:	5792                	lw	a5,36(sp)
    459a:	00fcfc93          	andi	s9,s9,15
    459e:	8a2a                	mv	s4,a0
    45a0:	8c2e                	mv	s8,a1
    45a2:	490d                	li	s2,3
    45a4:	00006d17          	auipc	s10,0x6
    45a8:	07cd0d13          	addi	s10,s10,124 # a620 <__mprec_bigtens>
    45ac:	a889                	j	45fe <_dtoa_r+0x3a6>
    45ae:	c802                	sw	zero,16(sp)
    45b0:	47b2                	lw	a5,12(sp)
    45b2:	97a2                	add	a5,a5,s0
    45b4:	c43e                	sw	a5,8(sp)
    45b6:	00178d93          	addi	s11,a5,1
    45ba:	87ee                	mv	a5,s11
    45bc:	f7b046e3          	bgtz	s11,4528 <_dtoa_r+0x2d0>
    45c0:	4785                	li	a5,1
    45c2:	b79d                	j	4528 <_dtoa_r+0x2d0>
    45c4:	4c85                	li	s9,1
    45c6:	c202                	sw	zero,4(sp)
    45c8:	bde9                	j	44a2 <_dtoa_r+0x24a>
    45ca:	47b2                	lw	a5,12(sp)
    45cc:	c43e                	sw	a5,8(sp)
    45ce:	8dbe                	mv	s11,a5
    45d0:	bfa1                	j	4528 <_dtoa_r+0x2d0>
    45d2:	0585                	addi	a1,a1,1
    45d4:	00b92223          	sw	a1,4(s2)
    45d8:	0706                	slli	a4,a4,0x1
    45da:	bfa1                	j	4532 <_dtoa_r+0x2da>
    45dc:	001cf693          	andi	a3,s9,1
    45e0:	ce81                	beqz	a3,45f8 <_dtoa_r+0x3a0>
    45e2:	000d2603          	lw	a2,0(s10)
    45e6:	004d2683          	lw	a3,4(s10)
    45ea:	853a                	mv	a0,a4
    45ec:	85be                	mv	a1,a5
    45ee:	125030ef          	jal	ra,7f12 <__muldf3>
    45f2:	0905                	addi	s2,s2,1
    45f4:	872a                	mv	a4,a0
    45f6:	87ae                	mv	a5,a1
    45f8:	401cdc93          	srai	s9,s9,0x1
    45fc:	0d21                	addi	s10,s10,8
    45fe:	fc0c9fe3          	bnez	s9,45dc <_dtoa_r+0x384>
    4602:	863a                	mv	a2,a4
    4604:	86be                	mv	a3,a5
    4606:	8552                	mv	a0,s4
    4608:	85e2                	mv	a1,s8
    460a:	186030ef          	jal	ra,7790 <__divdf3>
    460e:	8a2a                	mv	s4,a0
    4610:	8c2e                	mv	s8,a1
    4612:	a081                	j	4652 <_dtoa_r+0x3fa>
    4614:	4909                	li	s2,2
    4616:	cc15                	beqz	s0,4652 <_dtoa_r+0x3fa>
    4618:	40800cb3          	neg	s9,s0
    461c:	00fcf793          	andi	a5,s9,15
    4620:	00379713          	slli	a4,a5,0x3
    4624:	00006797          	auipc	a5,0x6
    4628:	02478793          	addi	a5,a5,36 # a648 <__mprec_tens>
    462c:	97ba                	add	a5,a5,a4
    462e:	4390                	lw	a2,0(a5)
    4630:	43d4                	lw	a3,4(a5)
    4632:	4572                	lw	a0,28(sp)
    4634:	55a2                	lw	a1,40(sp)
    4636:	404cdc93          	srai	s9,s9,0x4
    463a:	00006d17          	auipc	s10,0x6
    463e:	fe6d0d13          	addi	s10,s10,-26 # a620 <__mprec_bigtens>
    4642:	0d1030ef          	jal	ra,7f12 <__muldf3>
    4646:	8a2a                	mv	s4,a0
    4648:	8c2e                	mv	s8,a1
    464a:	4781                	li	a5,0
    464c:	120c9c63          	bnez	s9,4784 <_dtoa_r+0x52c>
    4650:	ffdd                	bnez	a5,460e <_dtoa_r+0x3b6>
    4652:	57b2                	lw	a5,44(sp)
    4654:	14078763          	beqz	a5,47a2 <_dtoa_r+0x54a>
    4658:	00006717          	auipc	a4,0x6
    465c:	e8070713          	addi	a4,a4,-384 # a4d8 <__clz_tab+0x170>
    4660:	4310                	lw	a2,0(a4)
    4662:	4354                	lw	a3,4(a4)
    4664:	8552                	mv	a0,s4
    4666:	85e2                	mv	a1,s8
    4668:	d052                	sw	s4,32(sp)
    466a:	7f2030ef          	jal	ra,7e5c <__ledf2>
    466e:	12055a63          	bgez	a0,47a2 <_dtoa_r+0x54a>
    4672:	120d8b63          	beqz	s11,47a8 <_dtoa_r+0x550>
    4676:	47a2                	lw	a5,8(sp)
    4678:	0af05063          	blez	a5,4718 <_dtoa_r+0x4c0>
    467c:	00006717          	auipc	a4,0x6
    4680:	f0c70713          	addi	a4,a4,-244 # a588 <tinytens+0x48>
    4684:	5782                	lw	a5,32(sp)
    4686:	4310                	lw	a2,0(a4)
    4688:	4354                	lw	a3,4(a4)
    468a:	853e                	mv	a0,a5
    468c:	85e2                	mv	a1,s8
    468e:	085030ef          	jal	ra,7f12 <__muldf3>
    4692:	47a2                	lw	a5,8(sp)
    4694:	fff40d13          	addi	s10,s0,-1
    4698:	8a2a                	mv	s4,a0
    469a:	8c2e                	mv	s8,a1
    469c:	0905                	addi	s2,s2,1
    469e:	8762                	mv	a4,s8
    46a0:	854a                	mv	a0,s2
    46a2:	de3e                	sw	a5,60(sp)
    46a4:	da52                	sw	s4,52(sp)
    46a6:	8cba                	mv	s9,a4
    46a8:	d03a                	sw	a4,32(sp)
    46aa:	55e040ef          	jal	ra,8c08 <__floatsidf>
    46ae:	5852                	lw	a6,52(sp)
    46b0:	5702                	lw	a4,32(sp)
    46b2:	fcc00937          	lui	s2,0xfcc00
    46b6:	8642                	mv	a2,a6
    46b8:	86ba                	mv	a3,a4
    46ba:	059030ef          	jal	ra,7f12 <__muldf3>
    46be:	00006697          	auipc	a3,0x6
    46c2:	ed268693          	addi	a3,a3,-302 # a590 <tinytens+0x50>
    46c6:	4290                	lw	a2,0(a3)
    46c8:	42d4                	lw	a3,4(a3)
    46ca:	8c52                	mv	s8,s4
    46cc:	195020ef          	jal	ra,7060 <__adddf3>
    46d0:	57f2                	lw	a5,60(sp)
    46d2:	8a2a                	mv	s4,a0
    46d4:	992e                	add	s2,s2,a1
    46d6:	efe1                	bnez	a5,47ae <_dtoa_r+0x556>
    46d8:	00006797          	auipc	a5,0x6
    46dc:	ec078793          	addi	a5,a5,-320 # a598 <tinytens+0x58>
    46e0:	5852                	lw	a6,52(sp)
    46e2:	5702                	lw	a4,32(sp)
    46e4:	4390                	lw	a2,0(a5)
    46e6:	43d4                	lw	a3,4(a5)
    46e8:	8542                	mv	a0,a6
    46ea:	85ba                	mv	a1,a4
    46ec:	4df030ef          	jal	ra,83ca <__subdf3>
    46f0:	8652                	mv	a2,s4
    46f2:	86ca                	mv	a3,s2
    46f4:	8c2a                	mv	s8,a0
    46f6:	8cae                	mv	s9,a1
    46f8:	6b6030ef          	jal	ra,7dae <__gedf2>
    46fc:	54a04a63          	bgtz	a0,4c50 <_dtoa_r+0x9f8>
    4700:	800007b7          	lui	a5,0x80000
    4704:	0127c7b3          	xor	a5,a5,s2
    4708:	8652                	mv	a2,s4
    470a:	86be                	mv	a3,a5
    470c:	8562                	mv	a0,s8
    470e:	85e6                	mv	a1,s9
    4710:	74c030ef          	jal	ra,7e5c <__ledf2>
    4714:	52054b63          	bltz	a0,4c4a <_dtoa_r+0x9f2>
    4718:	4a72                	lw	s4,28(sp)
    471a:	5c22                	lw	s8,40(sp)
    471c:	47b6                	lw	a5,76(sp)
    471e:	3007c763          	bltz	a5,4a2c <_dtoa_r+0x7d4>
    4722:	4739                	li	a4,14
    4724:	30874463          	blt	a4,s0,4a2c <_dtoa_r+0x7d4>
    4728:	00341713          	slli	a4,s0,0x3
    472c:	00006797          	auipc	a5,0x6
    4730:	f1c78793          	addi	a5,a5,-228 # a648 <__mprec_tens>
    4734:	97ba                	add	a5,a5,a4
    4736:	0007ab03          	lw	s6,0(a5)
    473a:	0047ab83          	lw	s7,4(a5)
    473e:	47b2                	lw	a5,12(sp)
    4740:	2007d263          	bgez	a5,4944 <_dtoa_r+0x6ec>
    4744:	21b04063          	bgtz	s11,4944 <_dtoa_r+0x6ec>
    4748:	500d9163          	bnez	s11,4c4a <_dtoa_r+0x9f2>
    474c:	00006797          	auipc	a5,0x6
    4750:	e4c78793          	addi	a5,a5,-436 # a598 <tinytens+0x58>
    4754:	4390                	lw	a2,0(a5)
    4756:	43d4                	lw	a3,4(a5)
    4758:	855a                	mv	a0,s6
    475a:	85de                	mv	a1,s7
    475c:	7b6030ef          	jal	ra,7f12 <__muldf3>
    4760:	8652                	mv	a2,s4
    4762:	86e2                	mv	a3,s8
    4764:	64a030ef          	jal	ra,7dae <__gedf2>
    4768:	4a81                	li	s5,0
    476a:	4901                	li	s2,0
    476c:	4a055763          	bgez	a0,4c1a <_dtoa_r+0x9c2>
    4770:	4782                	lw	a5,0(sp)
    4772:	4702                	lw	a4,0(sp)
    4774:	0405                	addi	s0,s0,1
    4776:	00178a13          	addi	s4,a5,1
    477a:	03100793          	li	a5,49
    477e:	00f70023          	sb	a5,0(a4)
    4782:	a145                	j	4c22 <_dtoa_r+0x9ca>
    4784:	001cf713          	andi	a4,s9,1
    4788:	cb09                	beqz	a4,479a <_dtoa_r+0x542>
    478a:	000d2603          	lw	a2,0(s10)
    478e:	004d2683          	lw	a3,4(s10)
    4792:	0905                	addi	s2,s2,1
    4794:	77e030ef          	jal	ra,7f12 <__muldf3>
    4798:	4785                	li	a5,1
    479a:	401cdc93          	srai	s9,s9,0x1
    479e:	0d21                	addi	s10,s10,8
    47a0:	b575                	j	464c <_dtoa_r+0x3f4>
    47a2:	8d22                	mv	s10,s0
    47a4:	87ee                	mv	a5,s11
    47a6:	bde5                	j	469e <_dtoa_r+0x446>
    47a8:	8d22                	mv	s10,s0
    47aa:	4781                	li	a5,0
    47ac:	bdcd                	j	469e <_dtoa_r+0x446>
    47ae:	fff78693          	addi	a3,a5,-1
    47b2:	00369613          	slli	a2,a3,0x3
    47b6:	00006697          	auipc	a3,0x6
    47ba:	e9268693          	addi	a3,a3,-366 # a648 <__mprec_tens>
    47be:	96b2                	add	a3,a3,a2
    47c0:	4288                	lw	a0,0(a3)
    47c2:	42cc                	lw	a1,4(a3)
    47c4:	4682                	lw	a3,0(sp)
    47c6:	97b6                	add	a5,a5,a3
    47c8:	da3e                	sw	a5,52(sp)
    47ca:	47c2                	lw	a5,16(sp)
    47cc:	c3e9                	beqz	a5,488e <_dtoa_r+0x636>
    47ce:	00006797          	auipc	a5,0x6
    47d2:	d0278793          	addi	a5,a5,-766 # a4d0 <__clz_tab+0x168>
    47d6:	862a                	mv	a2,a0
    47d8:	86ae                	mv	a3,a1
    47da:	4388                	lw	a0,0(a5)
    47dc:	43cc                	lw	a1,4(a5)
    47de:	de4a                	sw	s2,60(sp)
    47e0:	d052                	sw	s4,32(sp)
    47e2:	7af020ef          	jal	ra,7790 <__divdf3>
    47e6:	5802                	lw	a6,32(sp)
    47e8:	5772                	lw	a4,60(sp)
    47ea:	00006917          	auipc	s2,0x6
    47ee:	d9e90913          	addi	s2,s2,-610 # a588 <tinytens+0x48>
    47f2:	8642                	mv	a2,a6
    47f4:	86ba                	mv	a3,a4
    47f6:	3d5030ef          	jal	ra,83ca <__subdf3>
    47fa:	4a02                	lw	s4,0(sp)
    47fc:	d02a                	sw	a0,32(sp)
    47fe:	d22e                	sw	a1,36(sp)
    4800:	85e6                	mv	a1,s9
    4802:	8562                	mv	a0,s8
    4804:	340040ef          	jal	ra,8b44 <__fixdfsi>
    4808:	de2a                	sw	a0,60(sp)
    480a:	3fe040ef          	jal	ra,8c08 <__floatsidf>
    480e:	862a                	mv	a2,a0
    4810:	86ae                	mv	a3,a1
    4812:	8562                	mv	a0,s8
    4814:	85e6                	mv	a1,s9
    4816:	3b5030ef          	jal	ra,83ca <__subdf3>
    481a:	57f2                	lw	a5,60(sp)
    481c:	8c2a                	mv	s8,a0
    481e:	8cae                	mv	s9,a1
    4820:	862a                	mv	a2,a0
    4822:	86ae                	mv	a3,a1
    4824:	5502                	lw	a0,32(sp)
    4826:	5592                	lw	a1,36(sp)
    4828:	0a05                	addi	s4,s4,1
    482a:	03078793          	addi	a5,a5,48
    482e:	fefa0fa3          	sb	a5,-1(s4)
    4832:	57c030ef          	jal	ra,7dae <__gedf2>
    4836:	0ea04863          	bgtz	a0,4926 <_dtoa_r+0x6ce>
    483a:	00006797          	auipc	a5,0x6
    483e:	c9e78793          	addi	a5,a5,-866 # a4d8 <__clz_tab+0x170>
    4842:	4388                	lw	a0,0(a5)
    4844:	43cc                	lw	a1,4(a5)
    4846:	8662                	mv	a2,s8
    4848:	86e6                	mv	a3,s9
    484a:	381030ef          	jal	ra,83ca <__subdf3>
    484e:	862a                	mv	a2,a0
    4850:	86ae                	mv	a3,a1
    4852:	5502                	lw	a0,32(sp)
    4854:	5592                	lw	a1,36(sp)
    4856:	558030ef          	jal	ra,7dae <__gedf2>
    485a:	18a04263          	bgtz	a0,49de <_dtoa_r+0x786>
    485e:	57d2                	lw	a5,52(sp)
    4860:	eafa0ce3          	beq	s4,a5,4718 <_dtoa_r+0x4c0>
    4864:	00092603          	lw	a2,0(s2)
    4868:	00492683          	lw	a3,4(s2)
    486c:	5502                	lw	a0,32(sp)
    486e:	5592                	lw	a1,36(sp)
    4870:	6a2030ef          	jal	ra,7f12 <__muldf3>
    4874:	00092603          	lw	a2,0(s2)
    4878:	00492683          	lw	a3,4(s2)
    487c:	d02a                	sw	a0,32(sp)
    487e:	d22e                	sw	a1,36(sp)
    4880:	8562                	mv	a0,s8
    4882:	85e6                	mv	a1,s9
    4884:	68e030ef          	jal	ra,7f12 <__muldf3>
    4888:	8c2a                	mv	s8,a0
    488a:	8cae                	mv	s9,a1
    488c:	bf95                	j	4800 <_dtoa_r+0x5a8>
    488e:	8652                	mv	a2,s4
    4890:	86ca                	mv	a3,s2
    4892:	680030ef          	jal	ra,7f12 <__muldf3>
    4896:	5a52                	lw	s4,52(sp)
    4898:	4902                	lw	s2,0(sp)
    489a:	d02a                	sw	a0,32(sp)
    489c:	d22e                	sw	a1,36(sp)
    489e:	85e6                	mv	a1,s9
    48a0:	8562                	mv	a0,s8
    48a2:	2a2040ef          	jal	ra,8b44 <__fixdfsi>
    48a6:	de2a                	sw	a0,60(sp)
    48a8:	360040ef          	jal	ra,8c08 <__floatsidf>
    48ac:	862a                	mv	a2,a0
    48ae:	86ae                	mv	a3,a1
    48b0:	8562                	mv	a0,s8
    48b2:	85e6                	mv	a1,s9
    48b4:	317030ef          	jal	ra,83ca <__subdf3>
    48b8:	5772                	lw	a4,60(sp)
    48ba:	57d2                	lw	a5,52(sp)
    48bc:	0905                	addi	s2,s2,1
    48be:	03070713          	addi	a4,a4,48
    48c2:	fee90fa3          	sb	a4,-1(s2)
    48c6:	8c2a                	mv	s8,a0
    48c8:	8cae                	mv	s9,a1
    48ca:	06f91263          	bne	s2,a5,492e <_dtoa_r+0x6d6>
    48ce:	00006917          	auipc	s2,0x6
    48d2:	c0290913          	addi	s2,s2,-1022 # a4d0 <__clz_tab+0x168>
    48d6:	00092603          	lw	a2,0(s2)
    48da:	00492683          	lw	a3,4(s2)
    48de:	5502                	lw	a0,32(sp)
    48e0:	5592                	lw	a1,36(sp)
    48e2:	77e020ef          	jal	ra,7060 <__adddf3>
    48e6:	862a                	mv	a2,a0
    48e8:	86ae                	mv	a3,a1
    48ea:	8562                	mv	a0,s8
    48ec:	85e6                	mv	a1,s9
    48ee:	4c0030ef          	jal	ra,7dae <__gedf2>
    48f2:	0ea04663          	bgtz	a0,49de <_dtoa_r+0x786>
    48f6:	5602                	lw	a2,32(sp)
    48f8:	5692                	lw	a3,36(sp)
    48fa:	00092503          	lw	a0,0(s2)
    48fe:	00492583          	lw	a1,4(s2)
    4902:	2c9030ef          	jal	ra,83ca <__subdf3>
    4906:	862a                	mv	a2,a0
    4908:	86ae                	mv	a3,a1
    490a:	8562                	mv	a0,s8
    490c:	85e6                	mv	a1,s9
    490e:	54e030ef          	jal	ra,7e5c <__ledf2>
    4912:	03000793          	li	a5,48
    4916:	e00551e3          	bgez	a0,4718 <_dtoa_r+0x4c0>
    491a:	fffa4703          	lbu	a4,-1(s4)
    491e:	fffa0693          	addi	a3,s4,-1
    4922:	00f70463          	beq	a4,a5,492a <_dtoa_r+0x6d2>
    4926:	846a                	mv	s0,s10
    4928:	a859                	j	49be <_dtoa_r+0x766>
    492a:	8a36                	mv	s4,a3
    492c:	b7fd                	j	491a <_dtoa_r+0x6c2>
    492e:	00006797          	auipc	a5,0x6
    4932:	c5a78793          	addi	a5,a5,-934 # a588 <tinytens+0x48>
    4936:	4390                	lw	a2,0(a5)
    4938:	43d4                	lw	a3,4(a5)
    493a:	5d8030ef          	jal	ra,7f12 <__muldf3>
    493e:	8c2a                	mv	s8,a0
    4940:	8cae                	mv	s9,a1
    4942:	bfb1                	j	489e <_dtoa_r+0x646>
    4944:	87e2                	mv	a5,s8
    4946:	8cbe                	mv	s9,a5
    4948:	4782                	lw	a5,0(sp)
    494a:	8c52                	mv	s8,s4
    494c:	00006a97          	auipc	s5,0x6
    4950:	c3ca8a93          	addi	s5,s5,-964 # a588 <tinytens+0x48>
    4954:	00178913          	addi	s2,a5,1
    4958:	9dbe                	add	s11,s11,a5
    495a:	865a                	mv	a2,s6
    495c:	86de                	mv	a3,s7
    495e:	8562                	mv	a0,s8
    4960:	85e6                	mv	a1,s9
    4962:	62f020ef          	jal	ra,7790 <__divdf3>
    4966:	1de040ef          	jal	ra,8b44 <__fixdfsi>
    496a:	8d2a                	mv	s10,a0
    496c:	29c040ef          	jal	ra,8c08 <__floatsidf>
    4970:	865a                	mv	a2,s6
    4972:	86de                	mv	a3,s7
    4974:	59e030ef          	jal	ra,7f12 <__muldf3>
    4978:	862a                	mv	a2,a0
    497a:	86ae                	mv	a3,a1
    497c:	8562                	mv	a0,s8
    497e:	85e6                	mv	a1,s9
    4980:	24b030ef          	jal	ra,83ca <__subdf3>
    4984:	030d0793          	addi	a5,s10,48
    4988:	fef90fa3          	sb	a5,-1(s2)
    498c:	862a                	mv	a2,a0
    498e:	86ae                	mv	a3,a1
    4990:	8a4a                	mv	s4,s2
    4992:	072d9e63          	bne	s11,s2,4a0e <_dtoa_r+0x7b6>
    4996:	6ca020ef          	jal	ra,7060 <__adddf3>
    499a:	865a                	mv	a2,s6
    499c:	86de                	mv	a3,s7
    499e:	8c2a                	mv	s8,a0
    49a0:	8cae                	mv	s9,a1
    49a2:	40c030ef          	jal	ra,7dae <__gedf2>
    49a6:	02a04b63          	bgtz	a0,49dc <_dtoa_r+0x784>
    49aa:	865a                	mv	a2,s6
    49ac:	86de                	mv	a3,s7
    49ae:	8562                	mv	a0,s8
    49b0:	85e6                	mv	a1,s9
    49b2:	392030ef          	jal	ra,7d44 <__eqdf2>
    49b6:	e501                	bnez	a0,49be <_dtoa_r+0x766>
    49b8:	001d7793          	andi	a5,s10,1
    49bc:	e385                	bnez	a5,49dc <_dtoa_r+0x784>
    49be:	85ce                	mv	a1,s3
    49c0:	8526                	mv	a0,s1
    49c2:	28e010ef          	jal	ra,5c50 <_Bfree>
    49c6:	57c2                	lw	a5,48(sp)
    49c8:	000a0023          	sb	zero,0(s4)
    49cc:	0405                	addi	s0,s0,1
    49ce:	c380                	sw	s0,0(a5)
    49d0:	47d2                	lw	a5,20(sp)
    49d2:	940789e3          	beqz	a5,4324 <_dtoa_r+0xcc>
    49d6:	0147a023          	sw	s4,0(a5)
    49da:	b2a9                	j	4324 <_dtoa_r+0xcc>
    49dc:	8d22                	mv	s10,s0
    49de:	03900713          	li	a4,57
    49e2:	fffa4683          	lbu	a3,-1(s4)
    49e6:	fffa0793          	addi	a5,s4,-1
    49ea:	00e69a63          	bne	a3,a4,49fe <_dtoa_r+0x7a6>
    49ee:	4682                	lw	a3,0(sp)
    49f0:	00f69d63          	bne	a3,a5,4a0a <_dtoa_r+0x7b2>
    49f4:	03000713          	li	a4,48
    49f8:	0d05                	addi	s10,s10,1
    49fa:	00e68023          	sb	a4,0(a3)
    49fe:	0007c703          	lbu	a4,0(a5)
    4a02:	0705                	addi	a4,a4,1
    4a04:	00e78023          	sb	a4,0(a5)
    4a08:	bf39                	j	4926 <_dtoa_r+0x6ce>
    4a0a:	8a3e                	mv	s4,a5
    4a0c:	bfd9                	j	49e2 <_dtoa_r+0x78a>
    4a0e:	000aa603          	lw	a2,0(s5)
    4a12:	004aa683          	lw	a3,4(s5)
    4a16:	0905                	addi	s2,s2,1
    4a18:	4fa030ef          	jal	ra,7f12 <__muldf3>
    4a1c:	4601                	li	a2,0
    4a1e:	4681                	li	a3,0
    4a20:	8c2a                	mv	s8,a0
    4a22:	8cae                	mv	s9,a1
    4a24:	320030ef          	jal	ra,7d44 <__eqdf2>
    4a28:	f90d                	bnez	a0,495a <_dtoa_r+0x702>
    4a2a:	bf51                	j	49be <_dtoa_r+0x766>
    4a2c:	4742                	lw	a4,16(sp)
    4a2e:	10070063          	beqz	a4,4b2e <_dtoa_r+0x8d6>
    4a32:	4692                	lw	a3,4(sp)
    4a34:	4705                	li	a4,1
    4a36:	0cd74563          	blt	a4,a3,4b00 <_dtoa_r+0x8a8>
    4a3a:	5762                	lw	a4,56(sp)
    4a3c:	43378793          	addi	a5,a5,1075
    4a40:	e709                	bnez	a4,4a4a <_dtoa_r+0x7f2>
    4a42:	4726                	lw	a4,72(sp)
    4a44:	03600793          	li	a5,54
    4a48:	8f99                	sub	a5,a5,a4
    4a4a:	8d56                	mv	s10,s5
    4a4c:	8cda                	mv	s9,s6
    4a4e:	4585                	li	a1,1
    4a50:	8526                	mv	a0,s1
    4a52:	9b3e                	add	s6,s6,a5
    4a54:	9bbe                	add	s7,s7,a5
    4a56:	42c010ef          	jal	ra,5e82 <__i2b>
    4a5a:	892a                	mv	s2,a0
    4a5c:	01905e63          	blez	s9,4a78 <_dtoa_r+0x820>
    4a60:	01705c63          	blez	s7,4a78 <_dtoa_r+0x820>
    4a64:	87e6                	mv	a5,s9
    4a66:	019bd363          	bge	s7,s9,4a6c <_dtoa_r+0x814>
    4a6a:	87de                	mv	a5,s7
    4a6c:	40fb0b33          	sub	s6,s6,a5
    4a70:	40fc8cb3          	sub	s9,s9,a5
    4a74:	40fb8bb3          	sub	s7,s7,a5
    4a78:	040a8063          	beqz	s5,4ab8 <_dtoa_r+0x860>
    4a7c:	47c2                	lw	a5,16(sp)
    4a7e:	cfc5                	beqz	a5,4b36 <_dtoa_r+0x8de>
    4a80:	03a05463          	blez	s10,4aa8 <_dtoa_r+0x850>
    4a84:	85ca                	mv	a1,s2
    4a86:	866a                	mv	a2,s10
    4a88:	8526                	mv	a0,s1
    4a8a:	558010ef          	jal	ra,5fe2 <__pow5mult>
    4a8e:	864e                	mv	a2,s3
    4a90:	85aa                	mv	a1,a0
    4a92:	892a                	mv	s2,a0
    4a94:	8526                	mv	a0,s1
    4a96:	408010ef          	jal	ra,5e9e <__multiply>
    4a9a:	ce2a                	sw	a0,28(sp)
    4a9c:	85ce                	mv	a1,s3
    4a9e:	8526                	mv	a0,s1
    4aa0:	1b0010ef          	jal	ra,5c50 <_Bfree>
    4aa4:	47f2                	lw	a5,28(sp)
    4aa6:	89be                	mv	s3,a5
    4aa8:	41aa8633          	sub	a2,s5,s10
    4aac:	c611                	beqz	a2,4ab8 <_dtoa_r+0x860>
    4aae:	85ce                	mv	a1,s3
    4ab0:	8526                	mv	a0,s1
    4ab2:	530010ef          	jal	ra,5fe2 <__pow5mult>
    4ab6:	89aa                	mv	s3,a0
    4ab8:	4585                	li	a1,1
    4aba:	8526                	mv	a0,s1
    4abc:	3c6010ef          	jal	ra,5e82 <__i2b>
    4ac0:	47e2                	lw	a5,24(sp)
    4ac2:	8aaa                	mv	s5,a0
    4ac4:	06f05b63          	blez	a5,4b3a <_dtoa_r+0x8e2>
    4ac8:	863e                	mv	a2,a5
    4aca:	85aa                	mv	a1,a0
    4acc:	8526                	mv	a0,s1
    4ace:	514010ef          	jal	ra,5fe2 <__pow5mult>
    4ad2:	4712                	lw	a4,4(sp)
    4ad4:	4785                	li	a5,1
    4ad6:	8aaa                	mv	s5,a0
    4ad8:	4d01                	li	s10,0
    4ada:	06e7c863          	blt	a5,a4,4b4a <_dtoa_r+0x8f2>
    4ade:	4d01                	li	s10,0
    4ae0:	060a1263          	bnez	s4,4b44 <_dtoa_r+0x8ec>
    4ae4:	00cc1793          	slli	a5,s8,0xc
    4ae8:	8d52                	mv	s10,s4
    4aea:	efa9                	bnez	a5,4b44 <_dtoa_r+0x8ec>
    4aec:	7ff005b7          	lui	a1,0x7ff00
    4af0:	00bc7c33          	and	s8,s8,a1
    4af4:	040c0863          	beqz	s8,4b44 <_dtoa_r+0x8ec>
    4af8:	0b05                	addi	s6,s6,1
    4afa:	0b85                	addi	s7,s7,1
    4afc:	4d05                	li	s10,1
    4afe:	a099                	j	4b44 <_dtoa_r+0x8ec>
    4b00:	fffd8d13          	addi	s10,s11,-1
    4b04:	01aaca63          	blt	s5,s10,4b18 <_dtoa_r+0x8c0>
    4b08:	41aa8d33          	sub	s10,s5,s10
    4b0c:	000dde63          	bgez	s11,4b28 <_dtoa_r+0x8d0>
    4b10:	41bb0cb3          	sub	s9,s6,s11
    4b14:	4781                	li	a5,0
    4b16:	bf25                	j	4a4e <_dtoa_r+0x7f6>
    4b18:	47e2                	lw	a5,24(sp)
    4b1a:	415d0ab3          	sub	s5,s10,s5
    4b1e:	97d6                	add	a5,a5,s5
    4b20:	cc3e                	sw	a5,24(sp)
    4b22:	8aea                	mv	s5,s10
    4b24:	4d01                	li	s10,0
    4b26:	b7dd                	j	4b0c <_dtoa_r+0x8b4>
    4b28:	8cda                	mv	s9,s6
    4b2a:	87ee                	mv	a5,s11
    4b2c:	b70d                	j	4a4e <_dtoa_r+0x7f6>
    4b2e:	8d56                	mv	s10,s5
    4b30:	8cda                	mv	s9,s6
    4b32:	4901                	li	s2,0
    4b34:	b725                	j	4a5c <_dtoa_r+0x804>
    4b36:	8656                	mv	a2,s5
    4b38:	bf9d                	j	4aae <_dtoa_r+0x856>
    4b3a:	4712                	lw	a4,4(sp)
    4b3c:	4785                	li	a5,1
    4b3e:	4d01                	li	s10,0
    4b40:	f8e7dfe3          	bge	a5,a4,4ade <_dtoa_r+0x886>
    4b44:	47e2                	lw	a5,24(sp)
    4b46:	4505                	li	a0,1
    4b48:	cf89                	beqz	a5,4b62 <_dtoa_r+0x90a>
    4b4a:	010aa783          	lw	a5,16(s5)
    4b4e:	078d                	addi	a5,a5,3
    4b50:	078a                	slli	a5,a5,0x2
    4b52:	97d6                	add	a5,a5,s5
    4b54:	43c8                	lw	a0,4(a5)
    4b56:	27c010ef          	jal	ra,5dd2 <__hi0bits>
    4b5a:	02000793          	li	a5,32
    4b5e:	40a78533          	sub	a0,a5,a0
    4b62:	955e                	add	a0,a0,s7
    4b64:	897d                	andi	a0,a0,31
    4b66:	c151                	beqz	a0,4bea <_dtoa_r+0x992>
    4b68:	02000793          	li	a5,32
    4b6c:	8f89                	sub	a5,a5,a0
    4b6e:	4711                	li	a4,4
    4b70:	06f75a63          	bge	a4,a5,4be4 <_dtoa_r+0x98c>
    4b74:	47f1                	li	a5,28
    4b76:	40a78533          	sub	a0,a5,a0
    4b7a:	9b2a                	add	s6,s6,a0
    4b7c:	9caa                	add	s9,s9,a0
    4b7e:	9baa                	add	s7,s7,a0
    4b80:	01605863          	blez	s6,4b90 <_dtoa_r+0x938>
    4b84:	85ce                	mv	a1,s3
    4b86:	865a                	mv	a2,s6
    4b88:	8526                	mv	a0,s1
    4b8a:	516010ef          	jal	ra,60a0 <__lshift>
    4b8e:	89aa                	mv	s3,a0
    4b90:	01705863          	blez	s7,4ba0 <_dtoa_r+0x948>
    4b94:	85d6                	mv	a1,s5
    4b96:	865e                	mv	a2,s7
    4b98:	8526                	mv	a0,s1
    4b9a:	506010ef          	jal	ra,60a0 <__lshift>
    4b9e:	8aaa                	mv	s5,a0
    4ba0:	57b2                	lw	a5,44(sp)
    4ba2:	c7b1                	beqz	a5,4bee <_dtoa_r+0x996>
    4ba4:	85d6                	mv	a1,s5
    4ba6:	854e                	mv	a0,s3
    4ba8:	5c6010ef          	jal	ra,616e <__mcmp>
    4bac:	04055163          	bgez	a0,4bee <_dtoa_r+0x996>
    4bb0:	85ce                	mv	a1,s3
    4bb2:	4681                	li	a3,0
    4bb4:	4629                	li	a2,10
    4bb6:	8526                	mv	a0,s1
    4bb8:	0dc010ef          	jal	ra,5c94 <__multadd>
    4bbc:	47c2                	lw	a5,16(sp)
    4bbe:	147d                	addi	s0,s0,-1
    4bc0:	89aa                	mv	s3,a0
    4bc2:	26078c63          	beqz	a5,4e3a <_dtoa_r+0xbe2>
    4bc6:	85ca                	mv	a1,s2
    4bc8:	4681                	li	a3,0
    4bca:	4629                	li	a2,10
    4bcc:	8526                	mv	a0,s1
    4bce:	0c6010ef          	jal	ra,5c94 <__multadd>
    4bd2:	47a2                	lw	a5,8(sp)
    4bd4:	892a                	mv	s2,a0
    4bd6:	08f04563          	bgtz	a5,4c60 <_dtoa_r+0xa08>
    4bda:	4712                	lw	a4,4(sp)
    4bdc:	4789                	li	a5,2
    4bde:	08e7d163          	bge	a5,a4,4c60 <_dtoa_r+0xa08>
    4be2:	a829                	j	4bfc <_dtoa_r+0x9a4>
    4be4:	f8e78ee3          	beq	a5,a4,4b80 <_dtoa_r+0x928>
    4be8:	853e                	mv	a0,a5
    4bea:	0571                	addi	a0,a0,28
    4bec:	b779                	j	4b7a <_dtoa_r+0x922>
    4bee:	07b04563          	bgtz	s11,4c58 <_dtoa_r+0xa00>
    4bf2:	4712                	lw	a4,4(sp)
    4bf4:	4789                	li	a5,2
    4bf6:	06e7d163          	bge	a5,a4,4c58 <_dtoa_r+0xa00>
    4bfa:	c46e                	sw	s11,8(sp)
    4bfc:	47a2                	lw	a5,8(sp)
    4bfe:	ef91                	bnez	a5,4c1a <_dtoa_r+0x9c2>
    4c00:	85d6                	mv	a1,s5
    4c02:	4681                	li	a3,0
    4c04:	4615                	li	a2,5
    4c06:	8526                	mv	a0,s1
    4c08:	08c010ef          	jal	ra,5c94 <__multadd>
    4c0c:	8aaa                	mv	s5,a0
    4c0e:	85aa                	mv	a1,a0
    4c10:	854e                	mv	a0,s3
    4c12:	55c010ef          	jal	ra,616e <__mcmp>
    4c16:	b4a04de3          	bgtz	a0,4770 <_dtoa_r+0x518>
    4c1a:	47b2                	lw	a5,12(sp)
    4c1c:	4a02                	lw	s4,0(sp)
    4c1e:	fff7c413          	not	s0,a5
    4c22:	4b01                	li	s6,0
    4c24:	85d6                	mv	a1,s5
    4c26:	8526                	mv	a0,s1
    4c28:	028010ef          	jal	ra,5c50 <_Bfree>
    4c2c:	d80909e3          	beqz	s2,49be <_dtoa_r+0x766>
    4c30:	000b0863          	beqz	s6,4c40 <_dtoa_r+0x9e8>
    4c34:	012b0663          	beq	s6,s2,4c40 <_dtoa_r+0x9e8>
    4c38:	85da                	mv	a1,s6
    4c3a:	8526                	mv	a0,s1
    4c3c:	014010ef          	jal	ra,5c50 <_Bfree>
    4c40:	85ca                	mv	a1,s2
    4c42:	8526                	mv	a0,s1
    4c44:	00c010ef          	jal	ra,5c50 <_Bfree>
    4c48:	bb9d                	j	49be <_dtoa_r+0x766>
    4c4a:	4a81                	li	s5,0
    4c4c:	4901                	li	s2,0
    4c4e:	b7f1                	j	4c1a <_dtoa_r+0x9c2>
    4c50:	846a                	mv	s0,s10
    4c52:	4a81                	li	s5,0
    4c54:	4901                	li	s2,0
    4c56:	be29                	j	4770 <_dtoa_r+0x518>
    4c58:	47c2                	lw	a5,16(sp)
    4c5a:	c46e                	sw	s11,8(sp)
    4c5c:	1e078663          	beqz	a5,4e48 <_dtoa_r+0xbf0>
    4c60:	01905863          	blez	s9,4c70 <_dtoa_r+0xa18>
    4c64:	85ca                	mv	a1,s2
    4c66:	8666                	mv	a2,s9
    4c68:	8526                	mv	a0,s1
    4c6a:	436010ef          	jal	ra,60a0 <__lshift>
    4c6e:	892a                	mv	s2,a0
    4c70:	854a                	mv	a0,s2
    4c72:	020d0663          	beqz	s10,4c9e <_dtoa_r+0xa46>
    4c76:	00492583          	lw	a1,4(s2)
    4c7a:	8526                	mv	a0,s1
    4c7c:	749000ef          	jal	ra,5bc4 <_Balloc>
    4c80:	01092603          	lw	a2,16(s2)
    4c84:	8b2a                	mv	s6,a0
    4c86:	00c90593          	addi	a1,s2,12
    4c8a:	0609                	addi	a2,a2,2
    4c8c:	060a                	slli	a2,a2,0x2
    4c8e:	0531                	addi	a0,a0,12
    4c90:	67f000ef          	jal	ra,5b0e <memcpy>
    4c94:	4605                	li	a2,1
    4c96:	85da                	mv	a1,s6
    4c98:	8526                	mv	a0,s1
    4c9a:	406010ef          	jal	ra,60a0 <__lshift>
    4c9e:	4782                	lw	a5,0(sp)
    4ca0:	4722                	lw	a4,8(sp)
    4ca2:	8b4a                	mv	s6,s2
    4ca4:	00178c13          	addi	s8,a5,1
    4ca8:	97ba                	add	a5,a5,a4
    4caa:	c63e                	sw	a5,12(sp)
    4cac:	001a7793          	andi	a5,s4,1
    4cb0:	892a                	mv	s2,a0
    4cb2:	c43e                	sw	a5,8(sp)
    4cb4:	85d6                	mv	a1,s5
    4cb6:	854e                	mv	a0,s3
    4cb8:	c66ff0ef          	jal	ra,411e <quorem>
    4cbc:	85da                	mv	a1,s6
    4cbe:	8d2a                	mv	s10,a0
    4cc0:	03050d93          	addi	s11,a0,48
    4cc4:	854e                	mv	a0,s3
    4cc6:	4a8010ef          	jal	ra,616e <__mcmp>
    4cca:	864a                	mv	a2,s2
    4ccc:	8baa                	mv	s7,a0
    4cce:	85d6                	mv	a1,s5
    4cd0:	8526                	mv	a0,s1
    4cd2:	4ce010ef          	jal	ra,61a0 <__mdiff>
    4cd6:	4550                	lw	a2,12(a0)
    4cd8:	fffc0c93          	addi	s9,s8,-1
    4cdc:	8a2a                	mv	s4,a0
    4cde:	4705                	li	a4,1
    4ce0:	e611                	bnez	a2,4cec <_dtoa_r+0xa94>
    4ce2:	85aa                	mv	a1,a0
    4ce4:	854e                	mv	a0,s3
    4ce6:	488010ef          	jal	ra,616e <__mcmp>
    4cea:	872a                	mv	a4,a0
    4cec:	85d2                	mv	a1,s4
    4cee:	8526                	mv	a0,s1
    4cf0:	c83a                	sw	a4,16(sp)
    4cf2:	75f000ef          	jal	ra,5c50 <_Bfree>
    4cf6:	4792                	lw	a5,4(sp)
    4cf8:	4742                	lw	a4,16(sp)
    4cfa:	8a62                	mv	s4,s8
    4cfc:	00e7e6b3          	or	a3,a5,a4
    4d00:	47a2                	lw	a5,8(sp)
    4d02:	8edd                	or	a3,a3,a5
    4d04:	ee81                	bnez	a3,4d1c <_dtoa_r+0xac4>
    4d06:	03900713          	li	a4,57
    4d0a:	04ed8863          	beq	s11,a4,4d5a <_dtoa_r+0xb02>
    4d0e:	01705463          	blez	s7,4d16 <_dtoa_r+0xabe>
    4d12:	031d0d93          	addi	s11,s10,49
    4d16:	01bc8023          	sb	s11,0(s9)
    4d1a:	b729                	j	4c24 <_dtoa_r+0x9cc>
    4d1c:	000bca63          	bltz	s7,4d30 <_dtoa_r+0xad8>
    4d20:	4792                	lw	a5,4(sp)
    4d22:	0177ebb3          	or	s7,a5,s7
    4d26:	47a2                	lw	a5,8(sp)
    4d28:	00fbebb3          	or	s7,s7,a5
    4d2c:	040b9563          	bnez	s7,4d76 <_dtoa_r+0xb1e>
    4d30:	fee053e3          	blez	a4,4d16 <_dtoa_r+0xabe>
    4d34:	85ce                	mv	a1,s3
    4d36:	4605                	li	a2,1
    4d38:	8526                	mv	a0,s1
    4d3a:	366010ef          	jal	ra,60a0 <__lshift>
    4d3e:	85d6                	mv	a1,s5
    4d40:	89aa                	mv	s3,a0
    4d42:	42c010ef          	jal	ra,616e <__mcmp>
    4d46:	00a04663          	bgtz	a0,4d52 <_dtoa_r+0xafa>
    4d4a:	f571                	bnez	a0,4d16 <_dtoa_r+0xabe>
    4d4c:	001df713          	andi	a4,s11,1
    4d50:	d379                	beqz	a4,4d16 <_dtoa_r+0xabe>
    4d52:	03900713          	li	a4,57
    4d56:	faed9ee3          	bne	s11,a4,4d12 <_dtoa_r+0xaba>
    4d5a:	03900793          	li	a5,57
    4d5e:	00fc8023          	sb	a5,0(s9)
    4d62:	03900693          	li	a3,57
    4d66:	fffa4783          	lbu	a5,-1(s4)
    4d6a:	fffa0713          	addi	a4,s4,-1
    4d6e:	08d78c63          	beq	a5,a3,4e06 <_dtoa_r+0xbae>
    4d72:	0785                	addi	a5,a5,1
    4d74:	a045                	j	4e14 <_dtoa_r+0xbbc>
    4d76:	00e05b63          	blez	a4,4d8c <_dtoa_r+0xb34>
    4d7a:	03900713          	li	a4,57
    4d7e:	fced8ee3          	beq	s11,a4,4d5a <_dtoa_r+0xb02>
    4d82:	001d8793          	addi	a5,s11,1
    4d86:	00fc8023          	sb	a5,0(s9)
    4d8a:	bd69                	j	4c24 <_dtoa_r+0x9cc>
    4d8c:	47b2                	lw	a5,12(sp)
    4d8e:	ffbc0fa3          	sb	s11,-1(s8)
    4d92:	05878163          	beq	a5,s8,4dd4 <_dtoa_r+0xb7c>
    4d96:	85ce                	mv	a1,s3
    4d98:	4681                	li	a3,0
    4d9a:	4629                	li	a2,10
    4d9c:	8526                	mv	a0,s1
    4d9e:	6f7000ef          	jal	ra,5c94 <__multadd>
    4da2:	89aa                	mv	s3,a0
    4da4:	4681                	li	a3,0
    4da6:	4629                	li	a2,10
    4da8:	85da                	mv	a1,s6
    4daa:	8526                	mv	a0,s1
    4dac:	012b1863          	bne	s6,s2,4dbc <_dtoa_r+0xb64>
    4db0:	6e5000ef          	jal	ra,5c94 <__multadd>
    4db4:	8b2a                	mv	s6,a0
    4db6:	892a                	mv	s2,a0
    4db8:	0c05                	addi	s8,s8,1
    4dba:	bded                	j	4cb4 <_dtoa_r+0xa5c>
    4dbc:	6d9000ef          	jal	ra,5c94 <__multadd>
    4dc0:	85ca                	mv	a1,s2
    4dc2:	8b2a                	mv	s6,a0
    4dc4:	4681                	li	a3,0
    4dc6:	4629                	li	a2,10
    4dc8:	8526                	mv	a0,s1
    4dca:	6cb000ef          	jal	ra,5c94 <__multadd>
    4dce:	892a                	mv	s2,a0
    4dd0:	b7e5                	j	4db8 <_dtoa_r+0xb60>
    4dd2:	4b01                	li	s6,0
    4dd4:	85ce                	mv	a1,s3
    4dd6:	4605                	li	a2,1
    4dd8:	8526                	mv	a0,s1
    4dda:	2c6010ef          	jal	ra,60a0 <__lshift>
    4dde:	85d6                	mv	a1,s5
    4de0:	89aa                	mv	s3,a0
    4de2:	38c010ef          	jal	ra,616e <__mcmp>
    4de6:	f6a04ee3          	bgtz	a0,4d62 <_dtoa_r+0xb0a>
    4dea:	e501                	bnez	a0,4df2 <_dtoa_r+0xb9a>
    4dec:	001df793          	andi	a5,s11,1
    4df0:	fbad                	bnez	a5,4d62 <_dtoa_r+0xb0a>
    4df2:	03000793          	li	a5,48
    4df6:	fffa4703          	lbu	a4,-1(s4)
    4dfa:	fffa0693          	addi	a3,s4,-1
    4dfe:	e2f713e3          	bne	a4,a5,4c24 <_dtoa_r+0x9cc>
    4e02:	8a36                	mv	s4,a3
    4e04:	bfcd                	j	4df6 <_dtoa_r+0xb9e>
    4e06:	4782                	lw	a5,0(sp)
    4e08:	00e79963          	bne	a5,a4,4e1a <_dtoa_r+0xbc2>
    4e0c:	4702                	lw	a4,0(sp)
    4e0e:	0405                	addi	s0,s0,1
    4e10:	03100793          	li	a5,49
    4e14:	00f70023          	sb	a5,0(a4)
    4e18:	b531                	j	4c24 <_dtoa_r+0x9cc>
    4e1a:	8a3a                	mv	s4,a4
    4e1c:	b7a9                	j	4d66 <_dtoa_r+0xb0e>
    4e1e:	4752                	lw	a4,20(sp)
    4e20:	00005797          	auipc	a5,0x5
    4e24:	78078793          	addi	a5,a5,1920 # a5a0 <tinytens+0x60>
    4e28:	c03e                	sw	a5,0(sp)
    4e2a:	00005797          	auipc	a5,0x5
    4e2e:	77e78793          	addi	a5,a5,1918 # a5a8 <tinytens+0x68>
    4e32:	ce071763          	bnez	a4,4320 <_dtoa_r+0xc8>
    4e36:	ceeff06f          	j	4324 <_dtoa_r+0xcc>
    4e3a:	47a2                	lw	a5,8(sp)
    4e3c:	00f04663          	bgtz	a5,4e48 <_dtoa_r+0xbf0>
    4e40:	4712                	lw	a4,4(sp)
    4e42:	4789                	li	a5,2
    4e44:	dae7cce3          	blt	a5,a4,4bfc <_dtoa_r+0x9a4>
    4e48:	4a02                	lw	s4,0(sp)
    4e4a:	85d6                	mv	a1,s5
    4e4c:	854e                	mv	a0,s3
    4e4e:	ad0ff0ef          	jal	ra,411e <quorem>
    4e52:	4782                	lw	a5,0(sp)
    4e54:	0a05                	addi	s4,s4,1
    4e56:	03050d93          	addi	s11,a0,48
    4e5a:	40fa0733          	sub	a4,s4,a5
    4e5e:	47a2                	lw	a5,8(sp)
    4e60:	ffba0fa3          	sb	s11,-1(s4)
    4e64:	f6f757e3          	bge	a4,a5,4dd2 <_dtoa_r+0xb7a>
    4e68:	85ce                	mv	a1,s3
    4e6a:	4681                	li	a3,0
    4e6c:	4629                	li	a2,10
    4e6e:	8526                	mv	a0,s1
    4e70:	625000ef          	jal	ra,5c94 <__multadd>
    4e74:	89aa                	mv	s3,a0
    4e76:	bfd1                	j	4e4a <_dtoa_r+0xbf2>

00004e78 <__sflush_r>:
    4e78:	00c5d783          	lhu	a5,12(a1) # 7ff0000c <_eusrstack+0x5fef800c>
    4e7c:	1101                	addi	sp,sp,-32
    4e7e:	cc22                	sw	s0,24(sp)
    4e80:	ca26                	sw	s1,20(sp)
    4e82:	ce06                	sw	ra,28(sp)
    4e84:	c84a                	sw	s2,16(sp)
    4e86:	c64e                	sw	s3,12(sp)
    4e88:	0087f713          	andi	a4,a5,8
    4e8c:	84aa                	mv	s1,a0
    4e8e:	842e                	mv	s0,a1
    4e90:	ef79                	bnez	a4,4f6e <__sflush_r+0xf6>
    4e92:	41d8                	lw	a4,4(a1)
    4e94:	00e04d63          	bgtz	a4,4eae <__sflush_r+0x36>
    4e98:	41b8                	lw	a4,64(a1)
    4e9a:	00e04a63          	bgtz	a4,4eae <__sflush_r+0x36>
    4e9e:	4501                	li	a0,0
    4ea0:	40f2                	lw	ra,28(sp)
    4ea2:	4462                	lw	s0,24(sp)
    4ea4:	44d2                	lw	s1,20(sp)
    4ea6:	4942                	lw	s2,16(sp)
    4ea8:	49b2                	lw	s3,12(sp)
    4eaa:	6105                	addi	sp,sp,32
    4eac:	8082                	ret
    4eae:	5458                	lw	a4,44(s0)
    4eb0:	d77d                	beqz	a4,4e9e <__sflush_r+0x26>
    4eb2:	0004a903          	lw	s2,0(s1)
    4eb6:	01379693          	slli	a3,a5,0x13
    4eba:	0004a023          	sw	zero,0(s1)
    4ebe:	0606de63          	bgez	a3,4f3a <__sflush_r+0xc2>
    4ec2:	4870                	lw	a2,84(s0)
    4ec4:	00c45783          	lhu	a5,12(s0)
    4ec8:	8b91                	andi	a5,a5,4
    4eca:	c799                	beqz	a5,4ed8 <__sflush_r+0x60>
    4ecc:	405c                	lw	a5,4(s0)
    4ece:	8e1d                	sub	a2,a2,a5
    4ed0:	585c                	lw	a5,52(s0)
    4ed2:	c399                	beqz	a5,4ed8 <__sflush_r+0x60>
    4ed4:	403c                	lw	a5,64(s0)
    4ed6:	8e1d                	sub	a2,a2,a5
    4ed8:	545c                	lw	a5,44(s0)
    4eda:	500c                	lw	a1,32(s0)
    4edc:	4681                	li	a3,0
    4ede:	8526                	mv	a0,s1
    4ee0:	9782                	jalr	a5
    4ee2:	57fd                	li	a5,-1
    4ee4:	00c45703          	lhu	a4,12(s0)
    4ee8:	00f51d63          	bne	a0,a5,4f02 <__sflush_r+0x8a>
    4eec:	4094                	lw	a3,0(s1)
    4eee:	47f5                	li	a5,29
    4ef0:	06d7e963          	bltu	a5,a3,4f62 <__sflush_r+0xea>
    4ef4:	204007b7          	lui	a5,0x20400
    4ef8:	0785                	addi	a5,a5,1
    4efa:	00d7d7b3          	srl	a5,a5,a3
    4efe:	8b85                	andi	a5,a5,1
    4f00:	c3ad                	beqz	a5,4f62 <__sflush_r+0xea>
    4f02:	481c                	lw	a5,16(s0)
    4f04:	00042223          	sw	zero,4(s0)
    4f08:	c01c                	sw	a5,0(s0)
    4f0a:	01371793          	slli	a5,a4,0x13
    4f0e:	0007d863          	bgez	a5,4f1e <__sflush_r+0xa6>
    4f12:	57fd                	li	a5,-1
    4f14:	00f51463          	bne	a0,a5,4f1c <__sflush_r+0xa4>
    4f18:	409c                	lw	a5,0(s1)
    4f1a:	e391                	bnez	a5,4f1e <__sflush_r+0xa6>
    4f1c:	c868                	sw	a0,84(s0)
    4f1e:	584c                	lw	a1,52(s0)
    4f20:	0124a023          	sw	s2,0(s1)
    4f24:	ddad                	beqz	a1,4e9e <__sflush_r+0x26>
    4f26:	04440793          	addi	a5,s0,68
    4f2a:	00f58563          	beq	a1,a5,4f34 <__sflush_r+0xbc>
    4f2e:	8526                	mv	a0,s1
    4f30:	646010ef          	jal	ra,6576 <_free_r>
    4f34:	02042a23          	sw	zero,52(s0)
    4f38:	b79d                	j	4e9e <__sflush_r+0x26>
    4f3a:	500c                	lw	a1,32(s0)
    4f3c:	4601                	li	a2,0
    4f3e:	4685                	li	a3,1
    4f40:	8526                	mv	a0,s1
    4f42:	9702                	jalr	a4
    4f44:	57fd                	li	a5,-1
    4f46:	862a                	mv	a2,a0
    4f48:	f6f51ee3          	bne	a0,a5,4ec4 <__sflush_r+0x4c>
    4f4c:	409c                	lw	a5,0(s1)
    4f4e:	dbbd                	beqz	a5,4ec4 <__sflush_r+0x4c>
    4f50:	4775                	li	a4,29
    4f52:	00e78563          	beq	a5,a4,4f5c <__sflush_r+0xe4>
    4f56:	4759                	li	a4,22
    4f58:	04e79463          	bne	a5,a4,4fa0 <__sflush_r+0x128>
    4f5c:	0124a023          	sw	s2,0(s1)
    4f60:	bf3d                	j	4e9e <__sflush_r+0x26>
    4f62:	04076713          	ori	a4,a4,64
    4f66:	00e41623          	sh	a4,12(s0)
    4f6a:	557d                	li	a0,-1
    4f6c:	bf15                	j	4ea0 <__sflush_r+0x28>
    4f6e:	0105a983          	lw	s3,16(a1)
    4f72:	f20986e3          	beqz	s3,4e9e <__sflush_r+0x26>
    4f76:	0005a903          	lw	s2,0(a1)
    4f7a:	8b8d                	andi	a5,a5,3
    4f7c:	0135a023          	sw	s3,0(a1)
    4f80:	41390933          	sub	s2,s2,s3
    4f84:	4701                	li	a4,0
    4f86:	e391                	bnez	a5,4f8a <__sflush_r+0x112>
    4f88:	49d8                	lw	a4,20(a1)
    4f8a:	c418                	sw	a4,8(s0)
    4f8c:	f12059e3          	blez	s2,4e9e <__sflush_r+0x26>
    4f90:	541c                	lw	a5,40(s0)
    4f92:	500c                	lw	a1,32(s0)
    4f94:	86ca                	mv	a3,s2
    4f96:	864e                	mv	a2,s3
    4f98:	8526                	mv	a0,s1
    4f9a:	9782                	jalr	a5
    4f9c:	00a04963          	bgtz	a0,4fae <__sflush_r+0x136>
    4fa0:	00c45783          	lhu	a5,12(s0)
    4fa4:	0407e793          	ori	a5,a5,64
    4fa8:	00f41623          	sh	a5,12(s0)
    4fac:	bf7d                	j	4f6a <__sflush_r+0xf2>
    4fae:	99aa                	add	s3,s3,a0
    4fb0:	40a90933          	sub	s2,s2,a0
    4fb4:	bfe1                	j	4f8c <__sflush_r+0x114>

00004fb6 <_fflush_r>:
    4fb6:	499c                	lw	a5,16(a1)
    4fb8:	c3a5                	beqz	a5,5018 <_fflush_r+0x62>
    4fba:	1101                	addi	sp,sp,-32
    4fbc:	cc22                	sw	s0,24(sp)
    4fbe:	ce06                	sw	ra,28(sp)
    4fc0:	842a                	mv	s0,a0
    4fc2:	c511                	beqz	a0,4fce <_fflush_r+0x18>
    4fc4:	4d1c                	lw	a5,24(a0)
    4fc6:	e781                	bnez	a5,4fce <_fflush_r+0x18>
    4fc8:	c62e                	sw	a1,12(sp)
    4fca:	2239                	jal	50d8 <__sinit>
    4fcc:	45b2                	lw	a1,12(sp)
    4fce:	00005797          	auipc	a5,0x5
    4fd2:	60278793          	addi	a5,a5,1538 # a5d0 <__sf_fake_stdin>
    4fd6:	00f59c63          	bne	a1,a5,4fee <_fflush_r+0x38>
    4fda:	404c                	lw	a1,4(s0)
    4fdc:	00c59783          	lh	a5,12(a1)
    4fe0:	c79d                	beqz	a5,500e <_fflush_r+0x58>
    4fe2:	8522                	mv	a0,s0
    4fe4:	4462                	lw	s0,24(sp)
    4fe6:	40f2                	lw	ra,28(sp)
    4fe8:	6105                	addi	sp,sp,32
    4fea:	e8fff06f          	j	4e78 <__sflush_r>
    4fee:	00005797          	auipc	a5,0x5
    4ff2:	60278793          	addi	a5,a5,1538 # a5f0 <__sf_fake_stdout>
    4ff6:	00f59463          	bne	a1,a5,4ffe <_fflush_r+0x48>
    4ffa:	440c                	lw	a1,8(s0)
    4ffc:	b7c5                	j	4fdc <_fflush_r+0x26>
    4ffe:	00005797          	auipc	a5,0x5
    5002:	5b278793          	addi	a5,a5,1458 # a5b0 <__sf_fake_stderr>
    5006:	fcf59be3          	bne	a1,a5,4fdc <_fflush_r+0x26>
    500a:	444c                	lw	a1,12(s0)
    500c:	bfc1                	j	4fdc <_fflush_r+0x26>
    500e:	40f2                	lw	ra,28(sp)
    5010:	4462                	lw	s0,24(sp)
    5012:	4501                	li	a0,0
    5014:	6105                	addi	sp,sp,32
    5016:	8082                	ret
    5018:	4501                	li	a0,0
    501a:	8082                	ret

0000501c <std>:
    501c:	1141                	addi	sp,sp,-16
    501e:	c422                	sw	s0,8(sp)
    5020:	c606                	sw	ra,12(sp)
    5022:	842a                	mv	s0,a0
    5024:	00b51623          	sh	a1,12(a0)
    5028:	00c51723          	sh	a2,14(a0)
    502c:	00052023          	sw	zero,0(a0)
    5030:	00052223          	sw	zero,4(a0)
    5034:	00052423          	sw	zero,8(a0)
    5038:	06052223          	sw	zero,100(a0)
    503c:	00052823          	sw	zero,16(a0)
    5040:	00052a23          	sw	zero,20(a0)
    5044:	00052c23          	sw	zero,24(a0)
    5048:	4621                	li	a2,8
    504a:	4581                	li	a1,0
    504c:	05c50513          	addi	a0,a0,92
    5050:	9b0fb0ef          	jal	ra,200 <memset>
    5054:	00002797          	auipc	a5,0x2
    5058:	d4278793          	addi	a5,a5,-702 # 6d96 <__sread>
    505c:	d05c                	sw	a5,36(s0)
    505e:	00002797          	auipc	a5,0x2
    5062:	d6878793          	addi	a5,a5,-664 # 6dc6 <__swrite>
    5066:	d41c                	sw	a5,40(s0)
    5068:	00002797          	auipc	a5,0x2
    506c:	dac78793          	addi	a5,a5,-596 # 6e14 <__sseek>
    5070:	d45c                	sw	a5,44(s0)
    5072:	00002797          	auipc	a5,0x2
    5076:	dd878793          	addi	a5,a5,-552 # 6e4a <__sclose>
    507a:	d000                	sw	s0,32(s0)
    507c:	d81c                	sw	a5,48(s0)
    507e:	40b2                	lw	ra,12(sp)
    5080:	4422                	lw	s0,8(sp)
    5082:	0141                	addi	sp,sp,16
    5084:	8082                	ret

00005086 <_cleanup_r>:
    5086:	00000597          	auipc	a1,0x0
    508a:	f3058593          	addi	a1,a1,-208 # 4fb6 <_fflush_r>
    508e:	aa99                	j	51e4 <_fwalk_reent>

00005090 <__sfmoreglue>:
    5090:	1141                	addi	sp,sp,-16
    5092:	c226                	sw	s1,4(sp)
    5094:	06800613          	li	a2,104
    5098:	fff58493          	addi	s1,a1,-1
    509c:	02c484b3          	mul	s1,s1,a2
    50a0:	c04a                	sw	s2,0(sp)
    50a2:	892e                	mv	s2,a1
    50a4:	c422                	sw	s0,8(sp)
    50a6:	c606                	sw	ra,12(sp)
    50a8:	07448593          	addi	a1,s1,116
    50ac:	572010ef          	jal	ra,661e <_malloc_r>
    50b0:	842a                	mv	s0,a0
    50b2:	cd01                	beqz	a0,50ca <__sfmoreglue+0x3a>
    50b4:	00052023          	sw	zero,0(a0)
    50b8:	01252223          	sw	s2,4(a0)
    50bc:	0531                	addi	a0,a0,12
    50be:	c408                	sw	a0,8(s0)
    50c0:	06848613          	addi	a2,s1,104
    50c4:	4581                	li	a1,0
    50c6:	93afb0ef          	jal	ra,200 <memset>
    50ca:	8522                	mv	a0,s0
    50cc:	40b2                	lw	ra,12(sp)
    50ce:	4422                	lw	s0,8(sp)
    50d0:	4492                	lw	s1,4(sp)
    50d2:	4902                	lw	s2,0(sp)
    50d4:	0141                	addi	sp,sp,16
    50d6:	8082                	ret

000050d8 <__sinit>:
    50d8:	4d1c                	lw	a5,24(a0)
    50da:	e7a5                	bnez	a5,5142 <__sinit+0x6a>
    50dc:	1141                	addi	sp,sp,-16
    50de:	c606                	sw	ra,12(sp)
    50e0:	c422                	sw	s0,8(sp)
    50e2:	00000797          	auipc	a5,0x0
    50e6:	fa478793          	addi	a5,a5,-92 # 5086 <_cleanup_r>
    50ea:	d51c                	sw	a5,40(a0)
    50ec:	84418793          	addi	a5,gp,-1980 # 20000224 <_global_impure_ptr>
    50f0:	439c                	lw	a5,0(a5)
    50f2:	04052423          	sw	zero,72(a0)
    50f6:	04052623          	sw	zero,76(a0)
    50fa:	04052823          	sw	zero,80(a0)
    50fe:	00f51463          	bne	a0,a5,5106 <__sinit+0x2e>
    5102:	4785                	li	a5,1
    5104:	cd1c                	sw	a5,24(a0)
    5106:	842a                	mv	s0,a0
    5108:	2835                	jal	5144 <__sfp>
    510a:	c048                	sw	a0,4(s0)
    510c:	8522                	mv	a0,s0
    510e:	281d                	jal	5144 <__sfp>
    5110:	c408                	sw	a0,8(s0)
    5112:	8522                	mv	a0,s0
    5114:	2805                	jal	5144 <__sfp>
    5116:	c448                	sw	a0,12(s0)
    5118:	4048                	lw	a0,4(s0)
    511a:	4601                	li	a2,0
    511c:	4591                	li	a1,4
    511e:	effff0ef          	jal	ra,501c <std>
    5122:	4408                	lw	a0,8(s0)
    5124:	4605                	li	a2,1
    5126:	45a5                	li	a1,9
    5128:	ef5ff0ef          	jal	ra,501c <std>
    512c:	4448                	lw	a0,12(s0)
    512e:	4609                	li	a2,2
    5130:	45c9                	li	a1,18
    5132:	eebff0ef          	jal	ra,501c <std>
    5136:	4785                	li	a5,1
    5138:	cc1c                	sw	a5,24(s0)
    513a:	40b2                	lw	ra,12(sp)
    513c:	4422                	lw	s0,8(sp)
    513e:	0141                	addi	sp,sp,16
    5140:	8082                	ret
    5142:	8082                	ret

00005144 <__sfp>:
    5144:	1141                	addi	sp,sp,-16
    5146:	84418793          	addi	a5,gp,-1980 # 20000224 <_global_impure_ptr>
    514a:	c226                	sw	s1,4(sp)
    514c:	4384                	lw	s1,0(a5)
    514e:	c04a                	sw	s2,0(sp)
    5150:	c606                	sw	ra,12(sp)
    5152:	4c9c                	lw	a5,24(s1)
    5154:	c422                	sw	s0,8(sp)
    5156:	892a                	mv	s2,a0
    5158:	e781                	bnez	a5,5160 <__sfp+0x1c>
    515a:	8526                	mv	a0,s1
    515c:	f7dff0ef          	jal	ra,50d8 <__sinit>
    5160:	04848493          	addi	s1,s1,72
    5164:	4480                	lw	s0,8(s1)
    5166:	40dc                	lw	a5,4(s1)
    5168:	17fd                	addi	a5,a5,-1
    516a:	0007d663          	bgez	a5,5176 <__sfp+0x32>
    516e:	409c                	lw	a5,0(s1)
    5170:	cfb9                	beqz	a5,51ce <__sfp+0x8a>
    5172:	4084                	lw	s1,0(s1)
    5174:	bfc5                	j	5164 <__sfp+0x20>
    5176:	00c41703          	lh	a4,12(s0)
    517a:	e739                	bnez	a4,51c8 <__sfp+0x84>
    517c:	77c1                	lui	a5,0xffff0
    517e:	0785                	addi	a5,a5,1
    5180:	06042223          	sw	zero,100(s0)
    5184:	00042023          	sw	zero,0(s0)
    5188:	00042223          	sw	zero,4(s0)
    518c:	00042423          	sw	zero,8(s0)
    5190:	c45c                	sw	a5,12(s0)
    5192:	00042823          	sw	zero,16(s0)
    5196:	00042a23          	sw	zero,20(s0)
    519a:	00042c23          	sw	zero,24(s0)
    519e:	4621                	li	a2,8
    51a0:	4581                	li	a1,0
    51a2:	05c40513          	addi	a0,s0,92
    51a6:	85afb0ef          	jal	ra,200 <memset>
    51aa:	02042a23          	sw	zero,52(s0)
    51ae:	02042c23          	sw	zero,56(s0)
    51b2:	04042423          	sw	zero,72(s0)
    51b6:	04042623          	sw	zero,76(s0)
    51ba:	8522                	mv	a0,s0
    51bc:	40b2                	lw	ra,12(sp)
    51be:	4422                	lw	s0,8(sp)
    51c0:	4492                	lw	s1,4(sp)
    51c2:	4902                	lw	s2,0(sp)
    51c4:	0141                	addi	sp,sp,16
    51c6:	8082                	ret
    51c8:	06840413          	addi	s0,s0,104
    51cc:	bf71                	j	5168 <__sfp+0x24>
    51ce:	4591                	li	a1,4
    51d0:	854a                	mv	a0,s2
    51d2:	ebfff0ef          	jal	ra,5090 <__sfmoreglue>
    51d6:	c088                	sw	a0,0(s1)
    51d8:	fd49                	bnez	a0,5172 <__sfp+0x2e>
    51da:	47b1                	li	a5,12
    51dc:	00f92023          	sw	a5,0(s2)
    51e0:	4401                	li	s0,0
    51e2:	bfe1                	j	51ba <__sfp+0x76>

000051e4 <_fwalk_reent>:
    51e4:	7179                	addi	sp,sp,-48
    51e6:	d422                	sw	s0,40(sp)
    51e8:	d04a                	sw	s2,32(sp)
    51ea:	cc52                	sw	s4,24(sp)
    51ec:	ca56                	sw	s5,20(sp)
    51ee:	c85a                	sw	s6,16(sp)
    51f0:	c65e                	sw	s7,12(sp)
    51f2:	d606                	sw	ra,44(sp)
    51f4:	d226                	sw	s1,36(sp)
    51f6:	ce4e                	sw	s3,28(sp)
    51f8:	8a2a                	mv	s4,a0
    51fa:	8aae                	mv	s5,a1
    51fc:	04850413          	addi	s0,a0,72
    5200:	4901                	li	s2,0
    5202:	4b05                	li	s6,1
    5204:	5bfd                	li	s7,-1
    5206:	ec09                	bnez	s0,5220 <_fwalk_reent+0x3c>
    5208:	50b2                	lw	ra,44(sp)
    520a:	5422                	lw	s0,40(sp)
    520c:	854a                	mv	a0,s2
    520e:	5492                	lw	s1,36(sp)
    5210:	5902                	lw	s2,32(sp)
    5212:	49f2                	lw	s3,28(sp)
    5214:	4a62                	lw	s4,24(sp)
    5216:	4ad2                	lw	s5,20(sp)
    5218:	4b42                	lw	s6,16(sp)
    521a:	4bb2                	lw	s7,12(sp)
    521c:	6145                	addi	sp,sp,48
    521e:	8082                	ret
    5220:	4404                	lw	s1,8(s0)
    5222:	00442983          	lw	s3,4(s0)
    5226:	19fd                	addi	s3,s3,-1
    5228:	0009d463          	bgez	s3,5230 <_fwalk_reent+0x4c>
    522c:	4000                	lw	s0,0(s0)
    522e:	bfe1                	j	5206 <_fwalk_reent+0x22>
    5230:	00c4d783          	lhu	a5,12(s1)
    5234:	00fb7b63          	bgeu	s6,a5,524a <_fwalk_reent+0x66>
    5238:	00e49783          	lh	a5,14(s1)
    523c:	01778763          	beq	a5,s7,524a <_fwalk_reent+0x66>
    5240:	85a6                	mv	a1,s1
    5242:	8552                	mv	a0,s4
    5244:	9a82                	jalr	s5
    5246:	00a96933          	or	s2,s2,a0
    524a:	06848493          	addi	s1,s1,104
    524e:	bfe1                	j	5226 <_fwalk_reent+0x42>

00005250 <rshift>:
    5250:	4910                	lw	a2,16(a0)
    5252:	01450693          	addi	a3,a0,20
    5256:	4055d713          	srai	a4,a1,0x5
    525a:	87b6                	mv	a5,a3
    525c:	02c75663          	bge	a4,a2,5288 <rshift+0x38>
    5260:	060a                	slli	a2,a2,0x2
    5262:	070a                	slli	a4,a4,0x2
    5264:	89fd                	andi	a1,a1,31
    5266:	9636                	add	a2,a2,a3
    5268:	9736                	add	a4,a4,a3
    526a:	c9b9                	beqz	a1,52c0 <rshift+0x70>
    526c:	00470813          	addi	a6,a4,4
    5270:	4318                	lw	a4,0(a4)
    5272:	02000313          	li	t1,32
    5276:	40b30333          	sub	t1,t1,a1
    527a:	00b75733          	srl	a4,a4,a1
    527e:	00c86e63          	bltu	a6,a2,529a <rshift+0x4a>
    5282:	c398                	sw	a4,0(a5)
    5284:	c311                	beqz	a4,5288 <rshift+0x38>
    5286:	0791                	addi	a5,a5,4
    5288:	40d78733          	sub	a4,a5,a3
    528c:	8709                	srai	a4,a4,0x2
    528e:	c918                	sw	a4,16(a0)
    5290:	00d79463          	bne	a5,a3,5298 <rshift+0x48>
    5294:	00052a23          	sw	zero,20(a0)
    5298:	8082                	ret
    529a:	00082883          	lw	a7,0(a6)
    529e:	0791                	addi	a5,a5,4
    52a0:	0811                	addi	a6,a6,4
    52a2:	006898b3          	sll	a7,a7,t1
    52a6:	00e8e733          	or	a4,a7,a4
    52aa:	fee7ae23          	sw	a4,-4(a5) # fffefffc <_eusrstack+0xdffe7ffc>
    52ae:	ffc82703          	lw	a4,-4(a6)
    52b2:	b7e1                	j	527a <rshift+0x2a>
    52b4:	0711                	addi	a4,a4,4
    52b6:	ffc72583          	lw	a1,-4(a4)
    52ba:	0791                	addi	a5,a5,4
    52bc:	feb7ae23          	sw	a1,-4(a5)
    52c0:	fec76ae3          	bltu	a4,a2,52b4 <rshift+0x64>
    52c4:	b7d1                	j	5288 <rshift+0x38>

000052c6 <__hexdig_fun>:
    52c6:	fd050793          	addi	a5,a0,-48
    52ca:	0ff7f793          	andi	a5,a5,255
    52ce:	4725                	li	a4,9
    52d0:	00f76763          	bltu	a4,a5,52de <__hexdig_fun+0x18>
    52d4:	1501                	addi	a0,a0,-32
    52d6:	0ff57793          	andi	a5,a0,255
    52da:	853e                	mv	a0,a5
    52dc:	8082                	ret
    52de:	f9f50793          	addi	a5,a0,-97
    52e2:	0ff7f793          	andi	a5,a5,255
    52e6:	4695                	li	a3,5
    52e8:	00f6e563          	bltu	a3,a5,52f2 <__hexdig_fun+0x2c>
    52ec:	fb950513          	addi	a0,a0,-71
    52f0:	b7dd                	j	52d6 <__hexdig_fun+0x10>
    52f2:	fbf50713          	addi	a4,a0,-65
    52f6:	0ff77713          	andi	a4,a4,255
    52fa:	4781                	li	a5,0
    52fc:	fce6efe3          	bltu	a3,a4,52da <__hexdig_fun+0x14>
    5300:	fd950513          	addi	a0,a0,-39
    5304:	bfc9                	j	52d6 <__hexdig_fun+0x10>

00005306 <__gethex>:
    5306:	711d                	addi	sp,sp,-96
    5308:	c2d6                	sw	s5,68(sp)
    530a:	8aaa                	mv	s5,a0
    530c:	8542                	mv	a0,a6
    530e:	c636                	sw	a3,12(sp)
    5310:	c23a                	sw	a4,4(sp)
    5312:	ce86                	sw	ra,92(sp)
    5314:	c8ca                	sw	s2,80(sp)
    5316:	c4d2                	sw	s4,72(sp)
    5318:	c0da                	sw	s6,64(sp)
    531a:	de5e                	sw	s7,60(sp)
    531c:	8b3e                	mv	s6,a5
    531e:	d66e                	sw	s11,44(sp)
    5320:	8932                	mv	s2,a2
    5322:	8dae                	mv	s11,a1
    5324:	cca2                	sw	s0,88(sp)
    5326:	caa6                	sw	s1,84(sp)
    5328:	c6ce                	sw	s3,76(sp)
    532a:	dc62                	sw	s8,56(sp)
    532c:	da66                	sw	s9,52(sp)
    532e:	d86a                	sw	s10,48(sp)
    5330:	2595                	jal	5994 <__localeconv_l>
    5332:	00052b83          	lw	s7,0(a0)
    5336:	855e                	mv	a0,s7
    5338:	dc5fd0ef          	jal	ra,30fc <strlen>
    533c:	00ab87b3          	add	a5,s7,a0
    5340:	000da683          	lw	a3,0(s11)
    5344:	fff7c783          	lbu	a5,-1(a5)
    5348:	5779                	li	a4,-2
    534a:	8f15                	sub	a4,a4,a3
    534c:	c83e                	sw	a5,16(sp)
    534e:	8a2a                	mv	s4,a0
    5350:	00268793          	addi	a5,a3,2
    5354:	03000693          	li	a3,48
    5358:	00f70633          	add	a2,a4,a5
    535c:	84be                	mv	s1,a5
    535e:	0785                	addi	a5,a5,1
    5360:	fff7c503          	lbu	a0,-1(a5)
    5364:	c432                	sw	a2,8(sp)
    5366:	fed509e3          	beq	a0,a3,5358 <__gethex+0x52>
    536a:	f5dff0ef          	jal	ra,52c6 <__hexdig_fun>
    536e:	10051f63          	bnez	a0,548c <__gethex+0x186>
    5372:	8652                	mv	a2,s4
    5374:	85de                	mv	a1,s7
    5376:	8526                	mv	a0,s1
    5378:	2d9010ef          	jal	ra,6e50 <strncmp>
    537c:	10051d63          	bnez	a0,5496 <__gethex+0x190>
    5380:	01448c33          	add	s8,s1,s4
    5384:	000c4503          	lbu	a0,0(s8)
    5388:	f3fff0ef          	jal	ra,52c6 <__hexdig_fun>
    538c:	10050663          	beqz	a0,5498 <__gethex+0x192>
    5390:	84e2                	mv	s1,s8
    5392:	03000793          	li	a5,48
    5396:	0004c503          	lbu	a0,0(s1)
    539a:	00f50b63          	beq	a0,a5,53b0 <__gethex+0xaa>
    539e:	f29ff0ef          	jal	ra,52c6 <__hexdig_fun>
    53a2:	4785                	li	a5,1
    53a4:	00153993          	seqz	s3,a0
    53a8:	8ce2                	mv	s9,s8
    53aa:	c43e                	sw	a5,8(sp)
    53ac:	8c26                	mv	s8,s1
    53ae:	a021                	j	53b6 <__gethex+0xb0>
    53b0:	0485                	addi	s1,s1,1
    53b2:	b7d5                	j	5396 <__gethex+0x90>
    53b4:	0c05                	addi	s8,s8,1
    53b6:	000c4503          	lbu	a0,0(s8)
    53ba:	f0dff0ef          	jal	ra,52c6 <__hexdig_fun>
    53be:	f97d                	bnez	a0,53b4 <__gethex+0xae>
    53c0:	8652                	mv	a2,s4
    53c2:	85de                	mv	a1,s7
    53c4:	8562                	mv	a0,s8
    53c6:	28b010ef          	jal	ra,6e50 <strncmp>
    53ca:	e911                	bnez	a0,53de <__gethex+0xd8>
    53cc:	000c9c63          	bnez	s9,53e4 <__gethex+0xde>
    53d0:	9c52                	add	s8,s8,s4
    53d2:	8ce2                	mv	s9,s8
    53d4:	000c4503          	lbu	a0,0(s8)
    53d8:	eefff0ef          	jal	ra,52c6 <__hexdig_fun>
    53dc:	e95d                	bnez	a0,5492 <__gethex+0x18c>
    53de:	4401                	li	s0,0
    53e0:	000c8563          	beqz	s9,53ea <__gethex+0xe4>
    53e4:	418c8433          	sub	s0,s9,s8
    53e8:	040a                	slli	s0,s0,0x2
    53ea:	000c4783          	lbu	a5,0(s8)
    53ee:	05000713          	li	a4,80
    53f2:	00e78763          	beq	a5,a4,5400 <__gethex+0xfa>
    53f6:	07000613          	li	a2,112
    53fa:	8ce2                	mv	s9,s8
    53fc:	06c79063          	bne	a5,a2,545c <__gethex+0x156>
    5400:	001c4783          	lbu	a5,1(s8)
    5404:	02b00713          	li	a4,43
    5408:	08e78b63          	beq	a5,a4,549e <__gethex+0x198>
    540c:	02d00713          	li	a4,45
    5410:	08e78b63          	beq	a5,a4,54a6 <__gethex+0x1a0>
    5414:	001c0c93          	addi	s9,s8,1
    5418:	4d01                	li	s10,0
    541a:	000cc503          	lbu	a0,0(s9)
    541e:	ea9ff0ef          	jal	ra,52c6 <__hexdig_fun>
    5422:	fff50793          	addi	a5,a0,-1
    5426:	0ff7f793          	andi	a5,a5,255
    542a:	45e1                	li	a1,24
    542c:	08f5e463          	bltu	a1,a5,54b4 <__gethex+0x1ae>
    5430:	ff050793          	addi	a5,a0,-16
    5434:	0c85                	addi	s9,s9,1
    5436:	000cc503          	lbu	a0,0(s9)
    543a:	ca3e                	sw	a5,20(sp)
    543c:	e8bff0ef          	jal	ra,52c6 <__hexdig_fun>
    5440:	fff50593          	addi	a1,a0,-1
    5444:	0ff5f593          	andi	a1,a1,255
    5448:	4861                	li	a6,24
    544a:	47d2                	lw	a5,20(sp)
    544c:	48a9                	li	a7,10
    544e:	04b87e63          	bgeu	a6,a1,54aa <__gethex+0x1a4>
    5452:	000d0463          	beqz	s10,545a <__gethex+0x154>
    5456:	40f007b3          	neg	a5,a5
    545a:	943e                	add	s0,s0,a5
    545c:	019da023          	sw	s9,0(s11)
    5460:	04098c63          	beqz	s3,54b8 <__gethex+0x1b2>
    5464:	47a2                	lw	a5,8(sp)
    5466:	4481                	li	s1,0
    5468:	e391                	bnez	a5,546c <__gethex+0x166>
    546a:	4499                	li	s1,6
    546c:	40f6                	lw	ra,92(sp)
    546e:	4466                	lw	s0,88(sp)
    5470:	8526                	mv	a0,s1
    5472:	4946                	lw	s2,80(sp)
    5474:	44d6                	lw	s1,84(sp)
    5476:	49b6                	lw	s3,76(sp)
    5478:	4a26                	lw	s4,72(sp)
    547a:	4a96                	lw	s5,68(sp)
    547c:	4b06                	lw	s6,64(sp)
    547e:	5bf2                	lw	s7,60(sp)
    5480:	5c62                	lw	s8,56(sp)
    5482:	5cd2                	lw	s9,52(sp)
    5484:	5d42                	lw	s10,48(sp)
    5486:	5db2                	lw	s11,44(sp)
    5488:	6125                	addi	sp,sp,96
    548a:	8082                	ret
    548c:	4981                	li	s3,0
    548e:	4c81                	li	s9,0
    5490:	bf31                	j	53ac <__gethex+0xa6>
    5492:	0c05                	addi	s8,s8,1
    5494:	b781                	j	53d4 <__gethex+0xce>
    5496:	8c26                	mv	s8,s1
    5498:	4401                	li	s0,0
    549a:	4985                	li	s3,1
    549c:	b7b9                	j	53ea <__gethex+0xe4>
    549e:	4d01                	li	s10,0
    54a0:	002c0c93          	addi	s9,s8,2
    54a4:	bf9d                	j	541a <__gethex+0x114>
    54a6:	4d05                	li	s10,1
    54a8:	bfe5                	j	54a0 <__gethex+0x19a>
    54aa:	031787b3          	mul	a5,a5,a7
    54ae:	97aa                	add	a5,a5,a0
    54b0:	17c1                	addi	a5,a5,-16
    54b2:	b749                	j	5434 <__gethex+0x12e>
    54b4:	8ce2                	mv	s9,s8
    54b6:	b75d                	j	545c <__gethex+0x156>
    54b8:	409c07b3          	sub	a5,s8,s1
    54bc:	17fd                	addi	a5,a5,-1
    54be:	4581                	li	a1,0
    54c0:	471d                	li	a4,7
    54c2:	0af74463          	blt	a4,a5,556a <__gethex+0x264>
    54c6:	8556                	mv	a0,s5
    54c8:	2df5                	jal	5bc4 <_Balloc>
    54ca:	4605                	li	a2,1
    54cc:	01450993          	addi	s3,a0,20
    54d0:	414607b3          	sub	a5,a2,s4
    54d4:	8daa                	mv	s11,a0
    54d6:	8d4e                	mv	s10,s3
    54d8:	4881                	li	a7,0
    54da:	4c81                	li	s9,0
    54dc:	ca3e                	sw	a5,20(sp)
    54de:	0984e963          	bltu	s1,s8,5570 <__gethex+0x26a>
    54e2:	004d0513          	addi	a0,s10,4
    54e6:	41350533          	sub	a0,a0,s3
    54ea:	8509                	srai	a0,a0,0x2
    54ec:	019d2023          	sw	s9,0(s10)
    54f0:	00ada823          	sw	a0,16(s11)
    54f4:	00551493          	slli	s1,a0,0x5
    54f8:	8566                	mv	a0,s9
    54fa:	0d9000ef          	jal	ra,5dd2 <__hi0bits>
    54fe:	00092b83          	lw	s7,0(s2)
    5502:	8c89                	sub	s1,s1,a0
    5504:	0c9bd863          	bge	s7,s1,55d4 <__gethex+0x2ce>
    5508:	417484b3          	sub	s1,s1,s7
    550c:	85a6                	mv	a1,s1
    550e:	856e                	mv	a0,s11
    5510:	7fb000ef          	jal	ra,650a <__any_on>
    5514:	8a2a                	mv	s4,a0
    5516:	c905                	beqz	a0,5546 <__gethex+0x240>
    5518:	fff48613          	addi	a2,s1,-1
    551c:	40565693          	srai	a3,a2,0x5
    5520:	068a                	slli	a3,a3,0x2
    5522:	96ce                	add	a3,a3,s3
    5524:	4294                	lw	a3,0(a3)
    5526:	4705                	li	a4,1
    5528:	00c71733          	sll	a4,a4,a2
    552c:	8f75                	and	a4,a4,a3
    552e:	4a05                	li	s4,1
    5530:	cb19                	beqz	a4,5546 <__gethex+0x240>
    5532:	00ca5963          	bge	s4,a2,5544 <__gethex+0x23e>
    5536:	ffe48593          	addi	a1,s1,-2
    553a:	856e                	mv	a0,s11
    553c:	7cf000ef          	jal	ra,650a <__any_on>
    5540:	4a0d                	li	s4,3
    5542:	e111                	bnez	a0,5546 <__gethex+0x240>
    5544:	4a09                	li	s4,2
    5546:	85a6                	mv	a1,s1
    5548:	856e                	mv	a0,s11
    554a:	d07ff0ef          	jal	ra,5250 <rshift>
    554e:	9426                	add	s0,s0,s1
    5550:	00892703          	lw	a4,8(s2)
    5554:	08875f63          	bge	a4,s0,55f2 <__gethex+0x2ec>
    5558:	85ee                	mv	a1,s11
    555a:	8556                	mv	a0,s5
    555c:	2dd5                	jal	5c50 <_Bfree>
    555e:	4792                	lw	a5,4(sp)
    5560:	0a300493          	li	s1,163
    5564:	0007a023          	sw	zero,0(a5)
    5568:	b711                	j	546c <__gethex+0x166>
    556a:	0585                	addi	a1,a1,1
    556c:	8785                	srai	a5,a5,0x1
    556e:	bf91                	j	54c2 <__gethex+0x1bc>
    5570:	fffc0793          	addi	a5,s8,-1
    5574:	c43e                	sw	a5,8(sp)
    5576:	fffc4603          	lbu	a2,-1(s8)
    557a:	47c2                	lw	a5,16(sp)
    557c:	02f60963          	beq	a2,a5,55ae <__gethex+0x2a8>
    5580:	02000793          	li	a5,32
    5584:	00f89763          	bne	a7,a5,5592 <__gethex+0x28c>
    5588:	019d2023          	sw	s9,0(s10)
    558c:	4881                	li	a7,0
    558e:	0d11                	addi	s10,s10,4
    5590:	4c81                	li	s9,0
    5592:	fffc4503          	lbu	a0,-1(s8)
    5596:	cc46                	sw	a7,24(sp)
    5598:	d2fff0ef          	jal	ra,52c6 <__hexdig_fun>
    559c:	48e2                	lw	a7,24(sp)
    559e:	893d                	andi	a0,a0,15
    55a0:	4322                	lw	t1,8(sp)
    55a2:	01151533          	sll	a0,a0,a7
    55a6:	00acecb3          	or	s9,s9,a0
    55aa:	0891                	addi	a7,a7,4
    55ac:	a015                	j	55d0 <__gethex+0x2ca>
    55ae:	4752                	lw	a4,20(sp)
    55b0:	fffc0793          	addi	a5,s8,-1
    55b4:	00e78333          	add	t1,a5,a4
    55b8:	fc9364e3          	bltu	t1,s1,5580 <__gethex+0x27a>
    55bc:	851a                	mv	a0,t1
    55be:	8652                	mv	a2,s4
    55c0:	85de                	mv	a1,s7
    55c2:	ce46                	sw	a7,28(sp)
    55c4:	cc1a                	sw	t1,24(sp)
    55c6:	08b010ef          	jal	ra,6e50 <strncmp>
    55ca:	4362                	lw	t1,24(sp)
    55cc:	48f2                	lw	a7,28(sp)
    55ce:	f94d                	bnez	a0,5580 <__gethex+0x27a>
    55d0:	8c1a                	mv	s8,t1
    55d2:	b731                	j	54de <__gethex+0x1d8>
    55d4:	4a01                	li	s4,0
    55d6:	f774dde3          	bge	s1,s7,5550 <__gethex+0x24a>
    55da:	409b84b3          	sub	s1,s7,s1
    55de:	85ee                	mv	a1,s11
    55e0:	8626                	mv	a2,s1
    55e2:	8556                	mv	a0,s5
    55e4:	2bd000ef          	jal	ra,60a0 <__lshift>
    55e8:	8daa                	mv	s11,a0
    55ea:	8c05                	sub	s0,s0,s1
    55ec:	01450993          	addi	s3,a0,20
    55f0:	b785                	j	5550 <__gethex+0x24a>
    55f2:	00492703          	lw	a4,4(s2)
    55f6:	0ee45563          	bge	s0,a4,56e0 <__gethex+0x3da>
    55fa:	40870433          	sub	s0,a4,s0
    55fe:	07744563          	blt	s0,s7,5668 <__gethex+0x362>
    5602:	00c92703          	lw	a4,12(s2)
    5606:	4689                	li	a3,2
    5608:	04d70a63          	beq	a4,a3,565c <__gethex+0x356>
    560c:	468d                	li	a3,3
    560e:	04d70a63          	beq	a4,a3,5662 <__gethex+0x35c>
    5612:	4685                	li	a3,1
    5614:	02d71b63          	bne	a4,a3,564a <__gethex+0x344>
    5618:	028b9963          	bne	s7,s0,564a <__gethex+0x344>
    561c:	02eb9163          	bne	s7,a4,563e <__gethex+0x338>
    5620:	00492703          	lw	a4,4(s2)
    5624:	47b2                	lw	a5,12(sp)
    5626:	06200493          	li	s1,98
    562a:	c398                	sw	a4,0(a5)
    562c:	4705                	li	a4,1
    562e:	4792                	lw	a5,4(sp)
    5630:	00eda823          	sw	a4,16(s11)
    5634:	00e9a023          	sw	a4,0(s3)
    5638:	01b7a023          	sw	s11,0(a5)
    563c:	bd05                	j	546c <__gethex+0x166>
    563e:	fffb8593          	addi	a1,s7,-1
    5642:	856e                	mv	a0,s11
    5644:	6c7000ef          	jal	ra,650a <__any_on>
    5648:	fd61                	bnez	a0,5620 <__gethex+0x31a>
    564a:	85ee                	mv	a1,s11
    564c:	8556                	mv	a0,s5
    564e:	2509                	jal	5c50 <_Bfree>
    5650:	4792                	lw	a5,4(sp)
    5652:	05000493          	li	s1,80
    5656:	0007a023          	sw	zero,0(a5)
    565a:	bd09                	j	546c <__gethex+0x166>
    565c:	fe0b17e3          	bnez	s6,564a <__gethex+0x344>
    5660:	b7c1                	j	5620 <__gethex+0x31a>
    5662:	fa0b1fe3          	bnez	s6,5620 <__gethex+0x31a>
    5666:	b7d5                	j	564a <__gethex+0x344>
    5668:	fff40493          	addi	s1,s0,-1
    566c:	060a1863          	bnez	s4,56dc <__gethex+0x3d6>
    5670:	c491                	beqz	s1,567c <__gethex+0x376>
    5672:	85a6                	mv	a1,s1
    5674:	856e                	mv	a0,s11
    5676:	695000ef          	jal	ra,650a <__any_on>
    567a:	8a2a                	mv	s4,a0
    567c:	4054d713          	srai	a4,s1,0x5
    5680:	070a                	slli	a4,a4,0x2
    5682:	974e                	add	a4,a4,s3
    5684:	4318                	lw	a4,0(a4)
    5686:	4585                	li	a1,1
    5688:	009595b3          	sll	a1,a1,s1
    568c:	8df9                	and	a1,a1,a4
    568e:	c199                	beqz	a1,5694 <__gethex+0x38e>
    5690:	002a6a13          	ori	s4,s4,2
    5694:	85a2                	mv	a1,s0
    5696:	856e                	mv	a0,s11
    5698:	408b8bb3          	sub	s7,s7,s0
    569c:	bb5ff0ef          	jal	ra,5250 <rshift>
    56a0:	00492403          	lw	s0,4(s2)
    56a4:	4489                	li	s1,2
    56a6:	080a0b63          	beqz	s4,573c <__gethex+0x436>
    56aa:	00c92703          	lw	a4,12(s2)
    56ae:	4689                	li	a3,2
    56b0:	02d70a63          	beq	a4,a3,56e4 <__gethex+0x3de>
    56b4:	468d                	li	a3,3
    56b6:	02d70a63          	beq	a4,a3,56ea <__gethex+0x3e4>
    56ba:	4685                	li	a3,1
    56bc:	00d71d63          	bne	a4,a3,56d6 <__gethex+0x3d0>
    56c0:	002a7713          	andi	a4,s4,2
    56c4:	cb09                	beqz	a4,56d6 <__gethex+0x3d0>
    56c6:	0009a703          	lw	a4,0(s3)
    56ca:	00ea6a33          	or	s4,s4,a4
    56ce:	001a7a13          	andi	s4,s4,1
    56d2:	000a1e63          	bnez	s4,56ee <__gethex+0x3e8>
    56d6:	0104e493          	ori	s1,s1,16
    56da:	a08d                	j	573c <__gethex+0x436>
    56dc:	4a05                	li	s4,1
    56de:	bf79                	j	567c <__gethex+0x376>
    56e0:	4485                	li	s1,1
    56e2:	b7d1                	j	56a6 <__gethex+0x3a0>
    56e4:	4705                	li	a4,1
    56e6:	41670b33          	sub	s6,a4,s6
    56ea:	fe0b06e3          	beqz	s6,56d6 <__gethex+0x3d0>
    56ee:	010da983          	lw	s3,16(s11)
    56f2:	014d8713          	addi	a4,s11,20
    56f6:	55fd                	li	a1,-1
    56f8:	00299a13          	slli	s4,s3,0x2
    56fc:	01470633          	add	a2,a4,s4
    5700:	4314                	lw	a3,0(a4)
    5702:	04b68363          	beq	a3,a1,5748 <__gethex+0x442>
    5706:	0685                	addi	a3,a3,1
    5708:	c314                	sw	a3,0(a4)
    570a:	4689                	li	a3,2
    570c:	014d8713          	addi	a4,s11,20
    5710:	08d49363          	bne	s1,a3,5796 <__gethex+0x490>
    5714:	00092683          	lw	a3,0(s2)
    5718:	16fd                	addi	a3,a3,-1
    571a:	01769f63          	bne	a3,s7,5738 <__gethex+0x432>
    571e:	405bd693          	srai	a3,s7,0x5
    5722:	068a                	slli	a3,a3,0x2
    5724:	9736                	add	a4,a4,a3
    5726:	4318                	lw	a4,0(a4)
    5728:	4685                	li	a3,1
    572a:	01769bb3          	sll	s7,a3,s7
    572e:	00ebfbb3          	and	s7,s7,a4
    5732:	000b8363          	beqz	s7,5738 <__gethex+0x432>
    5736:	4485                	li	s1,1
    5738:	0204e493          	ori	s1,s1,32
    573c:	4792                	lw	a5,4(sp)
    573e:	01b7a023          	sw	s11,0(a5)
    5742:	47b2                	lw	a5,12(sp)
    5744:	c380                	sw	s0,0(a5)
    5746:	b31d                	j	546c <__gethex+0x166>
    5748:	0711                	addi	a4,a4,4
    574a:	fe072e23          	sw	zero,-4(a4)
    574e:	fac769e3          	bltu	a4,a2,5700 <__gethex+0x3fa>
    5752:	008da703          	lw	a4,8(s11)
    5756:	02e9c463          	blt	s3,a4,577e <__gethex+0x478>
    575a:	004da583          	lw	a1,4(s11)
    575e:	8556                	mv	a0,s5
    5760:	0585                	addi	a1,a1,1
    5762:	218d                	jal	5bc4 <_Balloc>
    5764:	010da603          	lw	a2,16(s11)
    5768:	00cd8593          	addi	a1,s11,12
    576c:	8b2a                	mv	s6,a0
    576e:	0609                	addi	a2,a2,2
    5770:	060a                	slli	a2,a2,0x2
    5772:	0531                	addi	a0,a0,12
    5774:	2e69                	jal	5b0e <memcpy>
    5776:	85ee                	mv	a1,s11
    5778:	8556                	mv	a0,s5
    577a:	29d9                	jal	5c50 <_Bfree>
    577c:	8dda                	mv	s11,s6
    577e:	010da703          	lw	a4,16(s11)
    5782:	00170693          	addi	a3,a4,1
    5786:	0711                	addi	a4,a4,4
    5788:	070a                	slli	a4,a4,0x2
    578a:	00dda823          	sw	a3,16(s11)
    578e:	976e                	add	a4,a4,s11
    5790:	4685                	li	a3,1
    5792:	c354                	sw	a3,4(a4)
    5794:	bf9d                	j	570a <__gethex+0x404>
    5796:	010da683          	lw	a3,16(s11)
    579a:	00d9dc63          	bge	s3,a3,57b2 <__gethex+0x4ac>
    579e:	4585                	li	a1,1
    57a0:	856e                	mv	a0,s11
    57a2:	aafff0ef          	jal	ra,5250 <rshift>
    57a6:	00892703          	lw	a4,8(s2)
    57aa:	0405                	addi	s0,s0,1
    57ac:	f88755e3          	bge	a4,s0,5736 <__gethex+0x430>
    57b0:	b365                	j	5558 <__gethex+0x252>
    57b2:	01fbfb93          	andi	s7,s7,31
    57b6:	4485                	li	s1,1
    57b8:	f80b80e3          	beqz	s7,5738 <__gethex+0x432>
    57bc:	9752                	add	a4,a4,s4
    57be:	ffc72503          	lw	a0,-4(a4)
    57c2:	2d01                	jal	5dd2 <__hi0bits>
    57c4:	02000713          	li	a4,32
    57c8:	41770bb3          	sub	s7,a4,s7
    57cc:	fd7549e3          	blt	a0,s7,579e <__gethex+0x498>
    57d0:	b7a5                	j	5738 <__gethex+0x432>

000057d2 <L_shift>:
    57d2:	47a1                	li	a5,8
    57d4:	40c78633          	sub	a2,a5,a2
    57d8:	060a                	slli	a2,a2,0x2
    57da:	02000693          	li	a3,32
    57de:	8e91                	sub	a3,a3,a2
    57e0:	415c                	lw	a5,4(a0)
    57e2:	4118                	lw	a4,0(a0)
    57e4:	0511                	addi	a0,a0,4
    57e6:	00d79833          	sll	a6,a5,a3
    57ea:	01076733          	or	a4,a4,a6
    57ee:	00c7d7b3          	srl	a5,a5,a2
    57f2:	fee52e23          	sw	a4,-4(a0)
    57f6:	c11c                	sw	a5,0(a0)
    57f8:	feb564e3          	bltu	a0,a1,57e0 <L_shift+0xe>
    57fc:	8082                	ret

000057fe <__match>:
    57fe:	411c                	lw	a5,0(a0)
    5800:	4865                	li	a6,25
    5802:	0585                	addi	a1,a1,1
    5804:	fff5c603          	lbu	a2,-1(a1)
    5808:	0785                	addi	a5,a5,1
    580a:	e601                	bnez	a2,5812 <__match+0x14>
    580c:	c11c                	sw	a5,0(a0)
    580e:	4505                	li	a0,1
    5810:	8082                	ret
    5812:	0007c703          	lbu	a4,0(a5)
    5816:	fbf70693          	addi	a3,a4,-65
    581a:	0ff6f693          	andi	a3,a3,255
    581e:	00d86463          	bltu	a6,a3,5826 <__match+0x28>
    5822:	02070713          	addi	a4,a4,32
    5826:	fcc70ee3          	beq	a4,a2,5802 <__match+0x4>
    582a:	4501                	li	a0,0
    582c:	8082                	ret

0000582e <__hexnan>:
    582e:	715d                	addi	sp,sp,-80
    5830:	dc52                	sw	s4,56(sp)
    5832:	0005aa03          	lw	s4,0(a1)
    5836:	c2a6                	sw	s1,68(sp)
    5838:	de4e                	sw	s3,60(sp)
    583a:	405a5493          	srai	s1,s4,0x5
    583e:	d85a                	sw	s6,48(sp)
    5840:	048a                	slli	s1,s1,0x2
    5842:	c686                	sw	ra,76(sp)
    5844:	c4a2                	sw	s0,72(sp)
    5846:	c0ca                	sw	s2,64(sp)
    5848:	da56                	sw	s5,52(sp)
    584a:	d65e                	sw	s7,44(sp)
    584c:	d462                	sw	s8,40(sp)
    584e:	d266                	sw	s9,36(sp)
    5850:	d06a                	sw	s10,32(sp)
    5852:	ce6e                	sw	s11,28(sp)
    5854:	01fa7a13          	andi	s4,s4,31
    5858:	8b2a                	mv	s6,a0
    585a:	89b2                	mv	s3,a2
    585c:	94b2                	add	s1,s1,a2
    585e:	000a0363          	beqz	s4,5864 <__hexnan+0x36>
    5862:	0491                	addi	s1,s1,4
    5864:	000b2783          	lw	a5,0(s6)
    5868:	ffc48913          	addi	s2,s1,-4
    586c:	fe04ae23          	sw	zero,-4(s1)
    5870:	8dca                	mv	s11,s2
    5872:	844a                	mv	s0,s2
    5874:	4601                	li	a2,0
    5876:	4a81                	li	s5,0
    5878:	4b81                	li	s7,0
    587a:	4c21                	li	s8,8
    587c:	02000c93          	li	s9,32
    5880:	4d1d                	li	s10,7
    5882:	0017c683          	lbu	a3,1(a5)
    5886:	00178713          	addi	a4,a5,1
    588a:	c03a                	sw	a4,0(sp)
    588c:	cab1                	beqz	a3,58e0 <__hexnan+0xb2>
    588e:	8536                	mv	a0,a3
    5890:	c632                	sw	a2,12(sp)
    5892:	c43e                	sw	a5,8(sp)
    5894:	c236                	sw	a3,4(sp)
    5896:	a31ff0ef          	jal	ra,52c6 <__hexdig_fun>
    589a:	4632                	lw	a2,12(sp)
    589c:	e559                	bnez	a0,592a <__hexnan+0xfc>
    589e:	4692                	lw	a3,4(sp)
    58a0:	47a2                	lw	a5,8(sp)
    58a2:	02dce863          	bltu	s9,a3,58d2 <__hexnan+0xa4>
    58a6:	037ad463          	bge	s5,s7,58ce <__hexnan+0xa0>
    58aa:	01b47863          	bgeu	s0,s11,58ba <__hexnan+0x8c>
    58ae:	00cd4663          	blt	s10,a2,58ba <__hexnan+0x8c>
    58b2:	85ee                	mv	a1,s11
    58b4:	8522                	mv	a0,s0
    58b6:	f1dff0ef          	jal	ra,57d2 <L_shift>
    58ba:	4621                	li	a2,8
    58bc:	0089f963          	bgeu	s3,s0,58ce <__hexnan+0xa0>
    58c0:	ffc40d93          	addi	s11,s0,-4
    58c4:	fe042e23          	sw	zero,-4(s0)
    58c8:	8ade                	mv	s5,s7
    58ca:	846e                	mv	s0,s11
    58cc:	4601                	li	a2,0
    58ce:	4782                	lw	a5,0(sp)
    58d0:	bf4d                	j	5882 <__hexnan+0x54>
    58d2:	02900593          	li	a1,41
    58d6:	08b69c63          	bne	a3,a1,596e <__hexnan+0x140>
    58da:	0789                	addi	a5,a5,2
    58dc:	00fb2023          	sw	a5,0(s6)
    58e0:	080b8763          	beqz	s7,596e <__hexnan+0x140>
    58e4:	01b47963          	bgeu	s0,s11,58f6 <__hexnan+0xc8>
    58e8:	479d                	li	a5,7
    58ea:	00c7c663          	blt	a5,a2,58f6 <__hexnan+0xc8>
    58ee:	85ee                	mv	a1,s11
    58f0:	8522                	mv	a0,s0
    58f2:	ee1ff0ef          	jal	ra,57d2 <L_shift>
    58f6:	0489fa63          	bgeu	s3,s0,594a <__hexnan+0x11c>
    58fa:	87ce                	mv	a5,s3
    58fc:	0411                	addi	s0,s0,4
    58fe:	ffc42703          	lw	a4,-4(s0)
    5902:	0791                	addi	a5,a5,4
    5904:	fee7ae23          	sw	a4,-4(a5)
    5908:	fe897ae3          	bgeu	s2,s0,58fc <__hexnan+0xce>
    590c:	0791                	addi	a5,a5,4
    590e:	fe07ae23          	sw	zero,-4(a5)
    5912:	fef97de3          	bgeu	s2,a5,590c <__hexnan+0xde>
    5916:	00092783          	lw	a5,0(s2)
    591a:	e791                	bnez	a5,5926 <__hexnan+0xf8>
    591c:	05391763          	bne	s2,s3,596a <__hexnan+0x13c>
    5920:	4785                	li	a5,1
    5922:	00f92023          	sw	a5,0(s2)
    5926:	4515                	li	a0,5
    5928:	a0a1                	j	5970 <__hexnan+0x142>
    592a:	0605                	addi	a2,a2,1
    592c:	0b85                	addi	s7,s7,1
    592e:	00cc5863          	bge	s8,a2,593e <__hexnan+0x110>
    5932:	f889fee3          	bgeu	s3,s0,58ce <__hexnan+0xa0>
    5936:	fe042e23          	sw	zero,-4(s0)
    593a:	4605                	li	a2,1
    593c:	1471                	addi	s0,s0,-4
    593e:	401c                	lw	a5,0(s0)
    5940:	893d                	andi	a0,a0,15
    5942:	0792                	slli	a5,a5,0x4
    5944:	8fc9                	or	a5,a5,a0
    5946:	c01c                	sw	a5,0(s0)
    5948:	b759                	j	58ce <__hexnan+0xa0>
    594a:	fc0a06e3          	beqz	s4,5916 <__hexnan+0xe8>
    594e:	02000793          	li	a5,32
    5952:	414787b3          	sub	a5,a5,s4
    5956:	5a7d                	li	s4,-1
    5958:	00fa57b3          	srl	a5,s4,a5
    595c:	ffc4aa03          	lw	s4,-4(s1)
    5960:	00fa7a33          	and	s4,s4,a5
    5964:	ff44ae23          	sw	s4,-4(s1)
    5968:	b77d                	j	5916 <__hexnan+0xe8>
    596a:	1971                	addi	s2,s2,-4
    596c:	b76d                	j	5916 <__hexnan+0xe8>
    596e:	4511                	li	a0,4
    5970:	40b6                	lw	ra,76(sp)
    5972:	4426                	lw	s0,72(sp)
    5974:	4496                	lw	s1,68(sp)
    5976:	4906                	lw	s2,64(sp)
    5978:	59f2                	lw	s3,60(sp)
    597a:	5a62                	lw	s4,56(sp)
    597c:	5ad2                	lw	s5,52(sp)
    597e:	5b42                	lw	s6,48(sp)
    5980:	5bb2                	lw	s7,44(sp)
    5982:	5c22                	lw	s8,40(sp)
    5984:	5c92                	lw	s9,36(sp)
    5986:	5d02                	lw	s10,32(sp)
    5988:	4df2                	lw	s11,28(sp)
    598a:	6161                	addi	sp,sp,80
    598c:	8082                	ret

0000598e <__locale_ctype_ptr_l>:
    598e:	0ec52503          	lw	a0,236(a0)
    5992:	8082                	ret

00005994 <__localeconv_l>:
    5994:	0f050513          	addi	a0,a0,240
    5998:	8082                	ret

0000599a <_localeconv_r>:
    599a:	82018793          	addi	a5,gp,-2016 # 20000200 <_impure_ptr>
    599e:	439c                	lw	a5,0(a5)
    59a0:	5388                	lw	a0,32(a5)
    59a2:	e509                	bnez	a0,59ac <_localeconv_r+0x12>
    59a4:	1fffa517          	auipc	a0,0x1fffa
    59a8:	6cc50513          	addi	a0,a0,1740 # 20000070 <__global_locale>
    59ac:	0f050513          	addi	a0,a0,240
    59b0:	8082                	ret

000059b2 <__swhatbuf_r>:
    59b2:	7119                	addi	sp,sp,-128
    59b4:	daa6                	sw	s1,116(sp)
    59b6:	84ae                	mv	s1,a1
    59b8:	00e59583          	lh	a1,14(a1)
    59bc:	dca2                	sw	s0,120(sp)
    59be:	de86                	sw	ra,124(sp)
    59c0:	8432                	mv	s0,a2
    59c2:	0005dc63          	bgez	a1,59da <__swhatbuf_r+0x28>
    59c6:	00c4d783          	lhu	a5,12(s1)
    59ca:	0006a023          	sw	zero,0(a3)
    59ce:	0807f793          	andi	a5,a5,128
    59d2:	e785                	bnez	a5,59fa <__swhatbuf_r+0x48>
    59d4:	40000793          	li	a5,1024
    59d8:	a01d                	j	59fe <__swhatbuf_r+0x4c>
    59da:	0830                	addi	a2,sp,24
    59dc:	c636                	sw	a3,12(sp)
    59de:	516010ef          	jal	ra,6ef4 <_fstat_r>
    59e2:	46b2                	lw	a3,12(sp)
    59e4:	fe0541e3          	bltz	a0,59c6 <__swhatbuf_r+0x14>
    59e8:	4772                	lw	a4,28(sp)
    59ea:	67bd                	lui	a5,0xf
    59ec:	8ff9                	and	a5,a5,a4
    59ee:	7779                	lui	a4,0xffffe
    59f0:	97ba                	add	a5,a5,a4
    59f2:	0017b793          	seqz	a5,a5
    59f6:	c29c                	sw	a5,0(a3)
    59f8:	bff1                	j	59d4 <__swhatbuf_r+0x22>
    59fa:	04000793          	li	a5,64
    59fe:	c01c                	sw	a5,0(s0)
    5a00:	50f6                	lw	ra,124(sp)
    5a02:	5466                	lw	s0,120(sp)
    5a04:	54d6                	lw	s1,116(sp)
    5a06:	4501                	li	a0,0
    5a08:	6109                	addi	sp,sp,128
    5a0a:	8082                	ret

00005a0c <__smakebuf_r>:
    5a0c:	00c5d783          	lhu	a5,12(a1)
    5a10:	1101                	addi	sp,sp,-32
    5a12:	cc22                	sw	s0,24(sp)
    5a14:	ce06                	sw	ra,28(sp)
    5a16:	ca26                	sw	s1,20(sp)
    5a18:	c84a                	sw	s2,16(sp)
    5a1a:	8b89                	andi	a5,a5,2
    5a1c:	842e                	mv	s0,a1
    5a1e:	cf89                	beqz	a5,5a38 <__smakebuf_r+0x2c>
    5a20:	04740793          	addi	a5,s0,71
    5a24:	c01c                	sw	a5,0(s0)
    5a26:	c81c                	sw	a5,16(s0)
    5a28:	4785                	li	a5,1
    5a2a:	c85c                	sw	a5,20(s0)
    5a2c:	40f2                	lw	ra,28(sp)
    5a2e:	4462                	lw	s0,24(sp)
    5a30:	44d2                	lw	s1,20(sp)
    5a32:	4942                	lw	s2,16(sp)
    5a34:	6105                	addi	sp,sp,32
    5a36:	8082                	ret
    5a38:	0074                	addi	a3,sp,12
    5a3a:	0030                	addi	a2,sp,8
    5a3c:	84aa                	mv	s1,a0
    5a3e:	f75ff0ef          	jal	ra,59b2 <__swhatbuf_r>
    5a42:	45a2                	lw	a1,8(sp)
    5a44:	892a                	mv	s2,a0
    5a46:	8526                	mv	a0,s1
    5a48:	3d7000ef          	jal	ra,661e <_malloc_r>
    5a4c:	ed01                	bnez	a0,5a64 <__smakebuf_r+0x58>
    5a4e:	00c41783          	lh	a5,12(s0)
    5a52:	2007f713          	andi	a4,a5,512
    5a56:	fb79                	bnez	a4,5a2c <__smakebuf_r+0x20>
    5a58:	9bf1                	andi	a5,a5,-4
    5a5a:	0027e793          	ori	a5,a5,2
    5a5e:	00f41623          	sh	a5,12(s0)
    5a62:	bf7d                	j	5a20 <__smakebuf_r+0x14>
    5a64:	fffff797          	auipc	a5,0xfffff
    5a68:	62278793          	addi	a5,a5,1570 # 5086 <_cleanup_r>
    5a6c:	d49c                	sw	a5,40(s1)
    5a6e:	00c45783          	lhu	a5,12(s0)
    5a72:	c008                	sw	a0,0(s0)
    5a74:	c808                	sw	a0,16(s0)
    5a76:	0807e793          	ori	a5,a5,128
    5a7a:	00f41623          	sh	a5,12(s0)
    5a7e:	47a2                	lw	a5,8(sp)
    5a80:	c85c                	sw	a5,20(s0)
    5a82:	47b2                	lw	a5,12(sp)
    5a84:	cf91                	beqz	a5,5aa0 <__smakebuf_r+0x94>
    5a86:	00e41583          	lh	a1,14(s0)
    5a8a:	8526                	mv	a0,s1
    5a8c:	494010ef          	jal	ra,6f20 <_isatty_r>
    5a90:	c901                	beqz	a0,5aa0 <__smakebuf_r+0x94>
    5a92:	00c45783          	lhu	a5,12(s0)
    5a96:	9bf1                	andi	a5,a5,-4
    5a98:	0017e793          	ori	a5,a5,1
    5a9c:	00f41623          	sh	a5,12(s0)
    5aa0:	00c45783          	lhu	a5,12(s0)
    5aa4:	00f96933          	or	s2,s2,a5
    5aa8:	01241623          	sh	s2,12(s0)
    5aac:	b741                	j	5a2c <__smakebuf_r+0x20>

00005aae <malloc>:
    5aae:	82018793          	addi	a5,gp,-2016 # 20000200 <_impure_ptr>
    5ab2:	85aa                	mv	a1,a0
    5ab4:	4388                	lw	a0,0(a5)
    5ab6:	3690006f          	j	661e <_malloc_r>

00005aba <__ascii_mbtowc>:
    5aba:	e185                	bnez	a1,5ada <__ascii_mbtowc+0x20>
    5abc:	1141                	addi	sp,sp,-16
    5abe:	006c                	addi	a1,sp,12
    5ac0:	4501                	li	a0,0
    5ac2:	ca11                	beqz	a2,5ad6 <__ascii_mbtowc+0x1c>
    5ac4:	5579                	li	a0,-2
    5ac6:	ca81                	beqz	a3,5ad6 <__ascii_mbtowc+0x1c>
    5ac8:	00064783          	lbu	a5,0(a2) # 10000 <_data_lma+0x574c>
    5acc:	c19c                	sw	a5,0(a1)
    5ace:	00064503          	lbu	a0,0(a2)
    5ad2:	00a03533          	snez	a0,a0
    5ad6:	0141                	addi	sp,sp,16
    5ad8:	8082                	ret
    5ada:	4501                	li	a0,0
    5adc:	ca19                	beqz	a2,5af2 <__ascii_mbtowc+0x38>
    5ade:	5579                	li	a0,-2
    5ae0:	ca89                	beqz	a3,5af2 <__ascii_mbtowc+0x38>
    5ae2:	00064783          	lbu	a5,0(a2)
    5ae6:	c19c                	sw	a5,0(a1)
    5ae8:	00064503          	lbu	a0,0(a2)
    5aec:	00a03533          	snez	a0,a0
    5af0:	8082                	ret
    5af2:	8082                	ret

00005af4 <memchr>:
    5af4:	0ff5f593          	andi	a1,a1,255
    5af8:	962a                	add	a2,a2,a0
    5afa:	00c51463          	bne	a0,a2,5b02 <memchr+0xe>
    5afe:	4501                	li	a0,0
    5b00:	8082                	ret
    5b02:	00054783          	lbu	a5,0(a0)
    5b06:	feb78de3          	beq	a5,a1,5b00 <memchr+0xc>
    5b0a:	0505                	addi	a0,a0,1
    5b0c:	b7fd                	j	5afa <memchr+0x6>

00005b0e <memcpy>:
    5b0e:	00a5c7b3          	xor	a5,a1,a0
    5b12:	8b8d                	andi	a5,a5,3
    5b14:	00c50733          	add	a4,a0,a2
    5b18:	e781                	bnez	a5,5b20 <memcpy+0x12>
    5b1a:	478d                	li	a5,3
    5b1c:	00c7ee63          	bltu	a5,a2,5b38 <memcpy+0x2a>
    5b20:	87aa                	mv	a5,a0
    5b22:	0ae57063          	bgeu	a0,a4,5bc2 <memcpy+0xb4>
    5b26:	0005c683          	lbu	a3,0(a1)
    5b2a:	0785                	addi	a5,a5,1
    5b2c:	0585                	addi	a1,a1,1
    5b2e:	fed78fa3          	sb	a3,-1(a5)
    5b32:	fee7eae3          	bltu	a5,a4,5b26 <memcpy+0x18>
    5b36:	8082                	ret
    5b38:	00357693          	andi	a3,a0,3
    5b3c:	87aa                	mv	a5,a0
    5b3e:	ca91                	beqz	a3,5b52 <memcpy+0x44>
    5b40:	0005c683          	lbu	a3,0(a1)
    5b44:	0785                	addi	a5,a5,1
    5b46:	0585                	addi	a1,a1,1
    5b48:	fed78fa3          	sb	a3,-1(a5)
    5b4c:	0037f693          	andi	a3,a5,3
    5b50:	b7fd                	j	5b3e <memcpy+0x30>
    5b52:	ffc77693          	andi	a3,a4,-4
    5b56:	fe068613          	addi	a2,a3,-32
    5b5a:	06c7f063          	bgeu	a5,a2,5bba <memcpy+0xac>
    5b5e:	0005a383          	lw	t2,0(a1)
    5b62:	0045a283          	lw	t0,4(a1)
    5b66:	0085af83          	lw	t6,8(a1)
    5b6a:	00c5af03          	lw	t5,12(a1)
    5b6e:	0105ae83          	lw	t4,16(a1)
    5b72:	0145ae03          	lw	t3,20(a1)
    5b76:	0185a303          	lw	t1,24(a1)
    5b7a:	01c5a883          	lw	a7,28(a1)
    5b7e:	02458593          	addi	a1,a1,36
    5b82:	0077a023          	sw	t2,0(a5)
    5b86:	ffc5a803          	lw	a6,-4(a1)
    5b8a:	0057a223          	sw	t0,4(a5)
    5b8e:	01f7a423          	sw	t6,8(a5)
    5b92:	01e7a623          	sw	t5,12(a5)
    5b96:	01d7a823          	sw	t4,16(a5)
    5b9a:	01c7aa23          	sw	t3,20(a5)
    5b9e:	0067ac23          	sw	t1,24(a5)
    5ba2:	0117ae23          	sw	a7,28(a5)
    5ba6:	02478793          	addi	a5,a5,36
    5baa:	ff07ae23          	sw	a6,-4(a5)
    5bae:	b775                	j	5b5a <memcpy+0x4c>
    5bb0:	4190                	lw	a2,0(a1)
    5bb2:	0791                	addi	a5,a5,4
    5bb4:	0591                	addi	a1,a1,4
    5bb6:	fec7ae23          	sw	a2,-4(a5)
    5bba:	fed7ebe3          	bltu	a5,a3,5bb0 <memcpy+0xa2>
    5bbe:	f6e7e4e3          	bltu	a5,a4,5b26 <memcpy+0x18>
    5bc2:	8082                	ret

00005bc4 <_Balloc>:
    5bc4:	515c                	lw	a5,36(a0)
    5bc6:	1141                	addi	sp,sp,-16
    5bc8:	c422                	sw	s0,8(sp)
    5bca:	c04a                	sw	s2,0(sp)
    5bcc:	c606                	sw	ra,12(sp)
    5bce:	c226                	sw	s1,4(sp)
    5bd0:	842a                	mv	s0,a0
    5bd2:	892e                	mv	s2,a1
    5bd4:	ef89                	bnez	a5,5bee <_Balloc+0x2a>
    5bd6:	4541                	li	a0,16
    5bd8:	ed7ff0ef          	jal	ra,5aae <malloc>
    5bdc:	d048                	sw	a0,36(s0)
    5bde:	00052223          	sw	zero,4(a0)
    5be2:	00052423          	sw	zero,8(a0)
    5be6:	00052023          	sw	zero,0(a0)
    5bea:	00052623          	sw	zero,12(a0)
    5bee:	5044                	lw	s1,36(s0)
    5bf0:	44dc                	lw	a5,12(s1)
    5bf2:	c79d                	beqz	a5,5c20 <_Balloc+0x5c>
    5bf4:	5058                	lw	a4,36(s0)
    5bf6:	00291793          	slli	a5,s2,0x2
    5bfa:	4758                	lw	a4,12(a4)
    5bfc:	97ba                	add	a5,a5,a4
    5bfe:	4388                	lw	a0,0(a5)
    5c00:	e129                	bnez	a0,5c42 <_Balloc+0x7e>
    5c02:	4485                	li	s1,1
    5c04:	012494b3          	sll	s1,s1,s2
    5c08:	00548613          	addi	a2,s1,5
    5c0c:	060a                	slli	a2,a2,0x2
    5c0e:	4585                	li	a1,1
    5c10:	8522                	mv	a0,s0
    5c12:	13f000ef          	jal	ra,6550 <_calloc_r>
    5c16:	cd19                	beqz	a0,5c34 <_Balloc+0x70>
    5c18:	01252223          	sw	s2,4(a0)
    5c1c:	c504                	sw	s1,8(a0)
    5c1e:	a025                	j	5c46 <_Balloc+0x82>
    5c20:	02100613          	li	a2,33
    5c24:	4591                	li	a1,4
    5c26:	8522                	mv	a0,s0
    5c28:	129000ef          	jal	ra,6550 <_calloc_r>
    5c2c:	505c                	lw	a5,36(s0)
    5c2e:	c4c8                	sw	a0,12(s1)
    5c30:	47dc                	lw	a5,12(a5)
    5c32:	f3e9                	bnez	a5,5bf4 <_Balloc+0x30>
    5c34:	4501                	li	a0,0
    5c36:	40b2                	lw	ra,12(sp)
    5c38:	4422                	lw	s0,8(sp)
    5c3a:	4492                	lw	s1,4(sp)
    5c3c:	4902                	lw	s2,0(sp)
    5c3e:	0141                	addi	sp,sp,16
    5c40:	8082                	ret
    5c42:	4118                	lw	a4,0(a0)
    5c44:	c398                	sw	a4,0(a5)
    5c46:	00052823          	sw	zero,16(a0)
    5c4a:	00052623          	sw	zero,12(a0)
    5c4e:	b7e5                	j	5c36 <_Balloc+0x72>

00005c50 <_Bfree>:
    5c50:	515c                	lw	a5,36(a0)
    5c52:	1101                	addi	sp,sp,-32
    5c54:	cc22                	sw	s0,24(sp)
    5c56:	ce06                	sw	ra,28(sp)
    5c58:	842a                	mv	s0,a0
    5c5a:	ef99                	bnez	a5,5c78 <_Bfree+0x28>
    5c5c:	4541                	li	a0,16
    5c5e:	c62e                	sw	a1,12(sp)
    5c60:	e4fff0ef          	jal	ra,5aae <malloc>
    5c64:	45b2                	lw	a1,12(sp)
    5c66:	d048                	sw	a0,36(s0)
    5c68:	00052223          	sw	zero,4(a0)
    5c6c:	00052423          	sw	zero,8(a0)
    5c70:	00052023          	sw	zero,0(a0)
    5c74:	00052623          	sw	zero,12(a0)
    5c78:	c991                	beqz	a1,5c8c <_Bfree+0x3c>
    5c7a:	5054                	lw	a3,36(s0)
    5c7c:	41dc                	lw	a5,4(a1)
    5c7e:	00279713          	slli	a4,a5,0x2
    5c82:	46dc                	lw	a5,12(a3)
    5c84:	97ba                	add	a5,a5,a4
    5c86:	4398                	lw	a4,0(a5)
    5c88:	c198                	sw	a4,0(a1)
    5c8a:	c38c                	sw	a1,0(a5)
    5c8c:	40f2                	lw	ra,28(sp)
    5c8e:	4462                	lw	s0,24(sp)
    5c90:	6105                	addi	sp,sp,32
    5c92:	8082                	ret

00005c94 <__multadd>:
    5c94:	7179                	addi	sp,sp,-48
    5c96:	ce4e                	sw	s3,28(sp)
    5c98:	89aa                	mv	s3,a0
    5c9a:	6541                	lui	a0,0x10
    5c9c:	d422                	sw	s0,40(sp)
    5c9e:	d226                	sw	s1,36(sp)
    5ca0:	842e                	mv	s0,a1
    5ca2:	4984                	lw	s1,16(a1)
    5ca4:	d606                	sw	ra,44(sp)
    5ca6:	d04a                	sw	s2,32(sp)
    5ca8:	05d1                	addi	a1,a1,20
    5caa:	4801                	li	a6,0
    5cac:	157d                	addi	a0,a0,-1
    5cae:	419c                	lw	a5,0(a1)
    5cb0:	0591                	addi	a1,a1,4
    5cb2:	0805                	addi	a6,a6,1
    5cb4:	00a7f733          	and	a4,a5,a0
    5cb8:	02c70733          	mul	a4,a4,a2
    5cbc:	83c1                	srli	a5,a5,0x10
    5cbe:	02c787b3          	mul	a5,a5,a2
    5cc2:	9736                	add	a4,a4,a3
    5cc4:	01075693          	srli	a3,a4,0x10
    5cc8:	8f69                	and	a4,a4,a0
    5cca:	97b6                	add	a5,a5,a3
    5ccc:	0107d693          	srli	a3,a5,0x10
    5cd0:	07c2                	slli	a5,a5,0x10
    5cd2:	97ba                	add	a5,a5,a4
    5cd4:	fef5ae23          	sw	a5,-4(a1)
    5cd8:	fc984be3          	blt	a6,s1,5cae <__multadd+0x1a>
    5cdc:	c2a1                	beqz	a3,5d1c <__multadd+0x88>
    5cde:	441c                	lw	a5,8(s0)
    5ce0:	02f4c763          	blt	s1,a5,5d0e <__multadd+0x7a>
    5ce4:	404c                	lw	a1,4(s0)
    5ce6:	854e                	mv	a0,s3
    5ce8:	c636                	sw	a3,12(sp)
    5cea:	0585                	addi	a1,a1,1
    5cec:	ed9ff0ef          	jal	ra,5bc4 <_Balloc>
    5cf0:	4810                	lw	a2,16(s0)
    5cf2:	00c40593          	addi	a1,s0,12
    5cf6:	892a                	mv	s2,a0
    5cf8:	0609                	addi	a2,a2,2
    5cfa:	060a                	slli	a2,a2,0x2
    5cfc:	0531                	addi	a0,a0,12
    5cfe:	e11ff0ef          	jal	ra,5b0e <memcpy>
    5d02:	85a2                	mv	a1,s0
    5d04:	854e                	mv	a0,s3
    5d06:	f4bff0ef          	jal	ra,5c50 <_Bfree>
    5d0a:	46b2                	lw	a3,12(sp)
    5d0c:	844a                	mv	s0,s2
    5d0e:	00448793          	addi	a5,s1,4
    5d12:	078a                	slli	a5,a5,0x2
    5d14:	97a2                	add	a5,a5,s0
    5d16:	c3d4                	sw	a3,4(a5)
    5d18:	0485                	addi	s1,s1,1
    5d1a:	c804                	sw	s1,16(s0)
    5d1c:	8522                	mv	a0,s0
    5d1e:	50b2                	lw	ra,44(sp)
    5d20:	5422                	lw	s0,40(sp)
    5d22:	5492                	lw	s1,36(sp)
    5d24:	5902                	lw	s2,32(sp)
    5d26:	49f2                	lw	s3,28(sp)
    5d28:	6145                	addi	sp,sp,48
    5d2a:	8082                	ret

00005d2c <__s2b>:
    5d2c:	7179                	addi	sp,sp,-48
    5d2e:	00868793          	addi	a5,a3,8
    5d32:	cc52                	sw	s4,24(sp)
    5d34:	8a36                	mv	s4,a3
    5d36:	46a5                	li	a3,9
    5d38:	d422                	sw	s0,40(sp)
    5d3a:	d226                	sw	s1,36(sp)
    5d3c:	ce4e                	sw	s3,28(sp)
    5d3e:	842e                	mv	s0,a1
    5d40:	02d7c7b3          	div	a5,a5,a3
    5d44:	d606                	sw	ra,44(sp)
    5d46:	d04a                	sw	s2,32(sp)
    5d48:	ca56                	sw	s5,20(sp)
    5d4a:	89aa                	mv	s3,a0
    5d4c:	84b2                	mv	s1,a2
    5d4e:	4685                	li	a3,1
    5d50:	4581                	li	a1,0
    5d52:	04f6cc63          	blt	a3,a5,5daa <__s2b+0x7e>
    5d56:	854e                	mv	a0,s3
    5d58:	c63a                	sw	a4,12(sp)
    5d5a:	e6bff0ef          	jal	ra,5bc4 <_Balloc>
    5d5e:	4732                	lw	a4,12(sp)
    5d60:	4785                	li	a5,1
    5d62:	c91c                	sw	a5,16(a0)
    5d64:	c958                	sw	a4,20(a0)
    5d66:	47a5                	li	a5,9
    5d68:	0497d463          	bge	a5,s1,5db0 <__s2b+0x84>
    5d6c:	00940a93          	addi	s5,s0,9
    5d70:	8956                	mv	s2,s5
    5d72:	9426                	add	s0,s0,s1
    5d74:	0905                	addi	s2,s2,1
    5d76:	fff94683          	lbu	a3,-1(s2)
    5d7a:	85aa                	mv	a1,a0
    5d7c:	4629                	li	a2,10
    5d7e:	fd068693          	addi	a3,a3,-48
    5d82:	854e                	mv	a0,s3
    5d84:	f11ff0ef          	jal	ra,5c94 <__multadd>
    5d88:	fe8916e3          	bne	s2,s0,5d74 <__s2b+0x48>
    5d8c:	ff848413          	addi	s0,s1,-8
    5d90:	9456                	add	s0,s0,s5
    5d92:	8926                	mv	s2,s1
    5d94:	03494163          	blt	s2,s4,5db6 <__s2b+0x8a>
    5d98:	50b2                	lw	ra,44(sp)
    5d9a:	5422                	lw	s0,40(sp)
    5d9c:	5492                	lw	s1,36(sp)
    5d9e:	5902                	lw	s2,32(sp)
    5da0:	49f2                	lw	s3,28(sp)
    5da2:	4a62                	lw	s4,24(sp)
    5da4:	4ad2                	lw	s5,20(sp)
    5da6:	6145                	addi	sp,sp,48
    5da8:	8082                	ret
    5daa:	0686                	slli	a3,a3,0x1
    5dac:	0585                	addi	a1,a1,1
    5dae:	b755                	j	5d52 <__s2b+0x26>
    5db0:	0429                	addi	s0,s0,10
    5db2:	44a5                	li	s1,9
    5db4:	bff9                	j	5d92 <__s2b+0x66>
    5db6:	409907b3          	sub	a5,s2,s1
    5dba:	97a2                	add	a5,a5,s0
    5dbc:	0007c683          	lbu	a3,0(a5)
    5dc0:	85aa                	mv	a1,a0
    5dc2:	4629                	li	a2,10
    5dc4:	fd068693          	addi	a3,a3,-48
    5dc8:	854e                	mv	a0,s3
    5dca:	ecbff0ef          	jal	ra,5c94 <__multadd>
    5dce:	0905                	addi	s2,s2,1
    5dd0:	b7d1                	j	5d94 <__s2b+0x68>

00005dd2 <__hi0bits>:
    5dd2:	7741                	lui	a4,0xffff0
    5dd4:	8f69                	and	a4,a4,a0
    5dd6:	87aa                	mv	a5,a0
    5dd8:	4501                	li	a0,0
    5dda:	e319                	bnez	a4,5de0 <__hi0bits+0xe>
    5ddc:	07c2                	slli	a5,a5,0x10
    5dde:	4541                	li	a0,16
    5de0:	ff000737          	lui	a4,0xff000
    5de4:	8f7d                	and	a4,a4,a5
    5de6:	e319                	bnez	a4,5dec <__hi0bits+0x1a>
    5de8:	0521                	addi	a0,a0,8
    5dea:	07a2                	slli	a5,a5,0x8
    5dec:	f0000737          	lui	a4,0xf0000
    5df0:	8f7d                	and	a4,a4,a5
    5df2:	e319                	bnez	a4,5df8 <__hi0bits+0x26>
    5df4:	0511                	addi	a0,a0,4
    5df6:	0792                	slli	a5,a5,0x4
    5df8:	c0000737          	lui	a4,0xc0000
    5dfc:	8f7d                	and	a4,a4,a5
    5dfe:	e319                	bnez	a4,5e04 <__hi0bits+0x32>
    5e00:	0509                	addi	a0,a0,2
    5e02:	078a                	slli	a5,a5,0x2
    5e04:	0007c963          	bltz	a5,5e16 <__hi0bits+0x44>
    5e08:	00179713          	slli	a4,a5,0x1
    5e0c:	0505                	addi	a0,a0,1
    5e0e:	00074463          	bltz	a4,5e16 <__hi0bits+0x44>
    5e12:	02000513          	li	a0,32
    5e16:	8082                	ret

00005e18 <__lo0bits>:
    5e18:	411c                	lw	a5,0(a0)
    5e1a:	0077f713          	andi	a4,a5,7
    5e1e:	c30d                	beqz	a4,5e40 <__lo0bits+0x28>
    5e20:	0017f693          	andi	a3,a5,1
    5e24:	4701                	li	a4,0
    5e26:	e699                	bnez	a3,5e34 <__lo0bits+0x1c>
    5e28:	0027f713          	andi	a4,a5,2
    5e2c:	c711                	beqz	a4,5e38 <__lo0bits+0x20>
    5e2e:	8385                	srli	a5,a5,0x1
    5e30:	c11c                	sw	a5,0(a0)
    5e32:	4705                	li	a4,1
    5e34:	853a                	mv	a0,a4
    5e36:	8082                	ret
    5e38:	8389                	srli	a5,a5,0x2
    5e3a:	c11c                	sw	a5,0(a0)
    5e3c:	4709                	li	a4,2
    5e3e:	bfdd                	j	5e34 <__lo0bits+0x1c>
    5e40:	01079693          	slli	a3,a5,0x10
    5e44:	82c1                	srli	a3,a3,0x10
    5e46:	4701                	li	a4,0
    5e48:	e299                	bnez	a3,5e4e <__lo0bits+0x36>
    5e4a:	83c1                	srli	a5,a5,0x10
    5e4c:	4741                	li	a4,16
    5e4e:	0ff7f693          	andi	a3,a5,255
    5e52:	e299                	bnez	a3,5e58 <__lo0bits+0x40>
    5e54:	0721                	addi	a4,a4,8
    5e56:	83a1                	srli	a5,a5,0x8
    5e58:	00f7f693          	andi	a3,a5,15
    5e5c:	e299                	bnez	a3,5e62 <__lo0bits+0x4a>
    5e5e:	0711                	addi	a4,a4,4
    5e60:	8391                	srli	a5,a5,0x4
    5e62:	0037f693          	andi	a3,a5,3
    5e66:	e299                	bnez	a3,5e6c <__lo0bits+0x54>
    5e68:	0709                	addi	a4,a4,2
    5e6a:	8389                	srli	a5,a5,0x2
    5e6c:	0017f693          	andi	a3,a5,1
    5e70:	e681                	bnez	a3,5e78 <__lo0bits+0x60>
    5e72:	8385                	srli	a5,a5,0x1
    5e74:	0705                	addi	a4,a4,1
    5e76:	c399                	beqz	a5,5e7c <__lo0bits+0x64>
    5e78:	c11c                	sw	a5,0(a0)
    5e7a:	bf6d                	j	5e34 <__lo0bits+0x1c>
    5e7c:	02000713          	li	a4,32
    5e80:	bf55                	j	5e34 <__lo0bits+0x1c>

00005e82 <__i2b>:
    5e82:	1141                	addi	sp,sp,-16
    5e84:	c422                	sw	s0,8(sp)
    5e86:	842e                	mv	s0,a1
    5e88:	4585                	li	a1,1
    5e8a:	c606                	sw	ra,12(sp)
    5e8c:	d39ff0ef          	jal	ra,5bc4 <_Balloc>
    5e90:	c940                	sw	s0,20(a0)
    5e92:	40b2                	lw	ra,12(sp)
    5e94:	4422                	lw	s0,8(sp)
    5e96:	4705                	li	a4,1
    5e98:	c918                	sw	a4,16(a0)
    5e9a:	0141                	addi	sp,sp,16
    5e9c:	8082                	ret

00005e9e <__multiply>:
    5e9e:	4998                	lw	a4,16(a1)
    5ea0:	4a1c                	lw	a5,16(a2)
    5ea2:	7179                	addi	sp,sp,-48
    5ea4:	d226                	sw	s1,36(sp)
    5ea6:	d606                	sw	ra,44(sp)
    5ea8:	d422                	sw	s0,40(sp)
    5eaa:	d04a                	sw	s2,32(sp)
    5eac:	ce4e                	sw	s3,28(sp)
    5eae:	84ae                	mv	s1,a1
    5eb0:	00f75463          	bge	a4,a5,5eb8 <__multiply+0x1a>
    5eb4:	84b2                	mv	s1,a2
    5eb6:	862e                	mv	a2,a1
    5eb8:	0104a983          	lw	s3,16(s1)
    5ebc:	01062903          	lw	s2,16(a2)
    5ec0:	449c                	lw	a5,8(s1)
    5ec2:	40cc                	lw	a1,4(s1)
    5ec4:	01298433          	add	s0,s3,s2
    5ec8:	0087d363          	bge	a5,s0,5ece <__multiply+0x30>
    5ecc:	0585                	addi	a1,a1,1
    5ece:	c632                	sw	a2,12(sp)
    5ed0:	cf5ff0ef          	jal	ra,5bc4 <_Balloc>
    5ed4:	4632                	lw	a2,12(sp)
    5ed6:	01450813          	addi	a6,a0,20 # 10014 <_data_lma+0x5760>
    5eda:	00241313          	slli	t1,s0,0x2
    5ede:	9342                	add	t1,t1,a6
    5ee0:	87c2                	mv	a5,a6
    5ee2:	0267ed63          	bltu	a5,t1,5f1c <__multiply+0x7e>
    5ee6:	01448593          	addi	a1,s1,20
    5eea:	00299893          	slli	a7,s3,0x2
    5eee:	0651                	addi	a2,a2,20
    5ef0:	00291e13          	slli	t3,s2,0x2
    5ef4:	66c1                	lui	a3,0x10
    5ef6:	98ae                	add	a7,a7,a1
    5ef8:	9e32                	add	t3,t3,a2
    5efa:	16fd                	addi	a3,a3,-1
    5efc:	03c66463          	bltu	a2,t3,5f24 <__multiply+0x86>
    5f00:	00805663          	blez	s0,5f0c <__multiply+0x6e>
    5f04:	1371                	addi	t1,t1,-4
    5f06:	00032783          	lw	a5,0(t1)
    5f0a:	cbf1                	beqz	a5,5fde <__multiply+0x140>
    5f0c:	c900                	sw	s0,16(a0)
    5f0e:	50b2                	lw	ra,44(sp)
    5f10:	5422                	lw	s0,40(sp)
    5f12:	5492                	lw	s1,36(sp)
    5f14:	5902                	lw	s2,32(sp)
    5f16:	49f2                	lw	s3,28(sp)
    5f18:	6145                	addi	sp,sp,48
    5f1a:	8082                	ret
    5f1c:	0007a023          	sw	zero,0(a5)
    5f20:	0791                	addi	a5,a5,4
    5f22:	b7c1                	j	5ee2 <__multiply+0x44>
    5f24:	00062f83          	lw	t6,0(a2)
    5f28:	00dfffb3          	and	t6,t6,a3
    5f2c:	040f8a63          	beqz	t6,5f80 <__multiply+0xe2>
    5f30:	8f42                	mv	t5,a6
    5f32:	82ae                	mv	t0,a1
    5f34:	4481                	li	s1,0
    5f36:	0002a703          	lw	a4,0(t0)
    5f3a:	000f2383          	lw	t2,0(t5)
    5f3e:	0f11                	addi	t5,t5,4
    5f40:	00d77eb3          	and	t4,a4,a3
    5f44:	03fe8eb3          	mul	t4,t4,t6
    5f48:	00d3f7b3          	and	a5,t2,a3
    5f4c:	0103d393          	srli	t2,t2,0x10
    5f50:	0291                	addi	t0,t0,4
    5f52:	9ebe                	add	t4,t4,a5
    5f54:	01075793          	srli	a5,a4,0x10
    5f58:	03f787b3          	mul	a5,a5,t6
    5f5c:	9ea6                	add	t4,t4,s1
    5f5e:	010ed713          	srli	a4,t4,0x10
    5f62:	00defeb3          	and	t4,t4,a3
    5f66:	979e                	add	a5,a5,t2
    5f68:	97ba                	add	a5,a5,a4
    5f6a:	0107d493          	srli	s1,a5,0x10
    5f6e:	07c2                	slli	a5,a5,0x10
    5f70:	01d7e7b3          	or	a5,a5,t4
    5f74:	feff2e23          	sw	a5,-4(t5)
    5f78:	fb12efe3          	bltu	t0,a7,5f36 <__multiply+0x98>
    5f7c:	009f2023          	sw	s1,0(t5)
    5f80:	00265283          	lhu	t0,2(a2)
    5f84:	04028a63          	beqz	t0,5fd8 <__multiply+0x13a>
    5f88:	00082783          	lw	a5,0(a6)
    5f8c:	8ec2                	mv	t4,a6
    5f8e:	8f2e                	mv	t5,a1
    5f90:	4f81                	li	t6,0
    5f92:	000f2703          	lw	a4,0(t5)
    5f96:	002ed383          	lhu	t2,2(t4)
    5f9a:	8ff5                	and	a5,a5,a3
    5f9c:	8f75                	and	a4,a4,a3
    5f9e:	02570733          	mul	a4,a4,t0
    5fa2:	0e91                	addi	t4,t4,4
    5fa4:	0f11                	addi	t5,t5,4
    5fa6:	971e                	add	a4,a4,t2
    5fa8:	977e                	add	a4,a4,t6
    5faa:	01071f93          	slli	t6,a4,0x10
    5fae:	00ffe7b3          	or	a5,t6,a5
    5fb2:	fefeae23          	sw	a5,-4(t4)
    5fb6:	ffef5783          	lhu	a5,-2(t5)
    5fba:	000eaf83          	lw	t6,0(t4)
    5fbe:	8341                	srli	a4,a4,0x10
    5fc0:	025787b3          	mul	a5,a5,t0
    5fc4:	00dfffb3          	and	t6,t6,a3
    5fc8:	97fe                	add	a5,a5,t6
    5fca:	97ba                	add	a5,a5,a4
    5fcc:	0107df93          	srli	t6,a5,0x10
    5fd0:	fd1f61e3          	bltu	t5,a7,5f92 <__multiply+0xf4>
    5fd4:	00fea023          	sw	a5,0(t4)
    5fd8:	0611                	addi	a2,a2,4
    5fda:	0811                	addi	a6,a6,4
    5fdc:	b705                	j	5efc <__multiply+0x5e>
    5fde:	147d                	addi	s0,s0,-1
    5fe0:	b705                	j	5f00 <__multiply+0x62>

00005fe2 <__pow5mult>:
    5fe2:	1101                	addi	sp,sp,-32
    5fe4:	ca26                	sw	s1,20(sp)
    5fe6:	c84a                	sw	s2,16(sp)
    5fe8:	c64e                	sw	s3,12(sp)
    5fea:	ce06                	sw	ra,28(sp)
    5fec:	cc22                	sw	s0,24(sp)
    5fee:	c452                	sw	s4,8(sp)
    5ff0:	00367793          	andi	a5,a2,3
    5ff4:	892a                	mv	s2,a0
    5ff6:	84b2                	mv	s1,a2
    5ff8:	89ae                	mv	s3,a1
    5ffa:	cf89                	beqz	a5,6014 <__pow5mult+0x32>
    5ffc:	17fd                	addi	a5,a5,-1
    5ffe:	00004717          	auipc	a4,0x4
    6002:	71270713          	addi	a4,a4,1810 # a710 <p05.3319>
    6006:	078a                	slli	a5,a5,0x2
    6008:	97ba                	add	a5,a5,a4
    600a:	4390                	lw	a2,0(a5)
    600c:	4681                	li	a3,0
    600e:	c87ff0ef          	jal	ra,5c94 <__multadd>
    6012:	89aa                	mv	s3,a0
    6014:	8489                	srai	s1,s1,0x2
    6016:	cca5                	beqz	s1,608e <__pow5mult+0xac>
    6018:	02492783          	lw	a5,36(s2)
    601c:	ef91                	bnez	a5,6038 <__pow5mult+0x56>
    601e:	4541                	li	a0,16
    6020:	a8fff0ef          	jal	ra,5aae <malloc>
    6024:	02a92223          	sw	a0,36(s2)
    6028:	00052223          	sw	zero,4(a0)
    602c:	00052423          	sw	zero,8(a0)
    6030:	00052023          	sw	zero,0(a0)
    6034:	00052623          	sw	zero,12(a0)
    6038:	02492a03          	lw	s4,36(s2)
    603c:	008a2403          	lw	s0,8(s4)
    6040:	e819                	bnez	s0,6056 <__pow5mult+0x74>
    6042:	27100593          	li	a1,625
    6046:	854a                	mv	a0,s2
    6048:	e3bff0ef          	jal	ra,5e82 <__i2b>
    604c:	00aa2423          	sw	a0,8(s4)
    6050:	842a                	mv	s0,a0
    6052:	00052023          	sw	zero,0(a0)
    6056:	0014f793          	andi	a5,s1,1
    605a:	cf81                	beqz	a5,6072 <__pow5mult+0x90>
    605c:	85ce                	mv	a1,s3
    605e:	8622                	mv	a2,s0
    6060:	854a                	mv	a0,s2
    6062:	e3dff0ef          	jal	ra,5e9e <__multiply>
    6066:	8a2a                	mv	s4,a0
    6068:	85ce                	mv	a1,s3
    606a:	854a                	mv	a0,s2
    606c:	be5ff0ef          	jal	ra,5c50 <_Bfree>
    6070:	89d2                	mv	s3,s4
    6072:	8485                	srai	s1,s1,0x1
    6074:	cc89                	beqz	s1,608e <__pow5mult+0xac>
    6076:	4008                	lw	a0,0(s0)
    6078:	e909                	bnez	a0,608a <__pow5mult+0xa8>
    607a:	8622                	mv	a2,s0
    607c:	85a2                	mv	a1,s0
    607e:	854a                	mv	a0,s2
    6080:	e1fff0ef          	jal	ra,5e9e <__multiply>
    6084:	c008                	sw	a0,0(s0)
    6086:	00052023          	sw	zero,0(a0)
    608a:	842a                	mv	s0,a0
    608c:	b7e9                	j	6056 <__pow5mult+0x74>
    608e:	40f2                	lw	ra,28(sp)
    6090:	4462                	lw	s0,24(sp)
    6092:	854e                	mv	a0,s3
    6094:	44d2                	lw	s1,20(sp)
    6096:	4942                	lw	s2,16(sp)
    6098:	49b2                	lw	s3,12(sp)
    609a:	4a22                	lw	s4,8(sp)
    609c:	6105                	addi	sp,sp,32
    609e:	8082                	ret

000060a0 <__lshift>:
    60a0:	7179                	addi	sp,sp,-48
    60a2:	d226                	sw	s1,36(sp)
    60a4:	84ae                	mv	s1,a1
    60a6:	ce4e                	sw	s3,28(sp)
    60a8:	0104a983          	lw	s3,16(s1)
    60ac:	d422                	sw	s0,40(sp)
    60ae:	41cc                	lw	a1,4(a1)
    60b0:	40565413          	srai	s0,a2,0x5
    60b4:	449c                	lw	a5,8(s1)
    60b6:	99a2                	add	s3,s3,s0
    60b8:	d04a                	sw	s2,32(sp)
    60ba:	ca56                	sw	s5,20(sp)
    60bc:	d606                	sw	ra,44(sp)
    60be:	cc52                	sw	s4,24(sp)
    60c0:	8aaa                	mv	s5,a0
    60c2:	00198913          	addi	s2,s3,1
    60c6:	0927c463          	blt	a5,s2,614e <__lshift+0xae>
    60ca:	8556                	mv	a0,s5
    60cc:	c632                	sw	a2,12(sp)
    60ce:	af7ff0ef          	jal	ra,5bc4 <_Balloc>
    60d2:	4632                	lw	a2,12(sp)
    60d4:	01450793          	addi	a5,a0,20
    60d8:	8a2a                	mv	s4,a0
    60da:	86be                	mv	a3,a5
    60dc:	4701                	li	a4,0
    60de:	0691                	addi	a3,a3,4
    60e0:	06874a63          	blt	a4,s0,6154 <__lshift+0xb4>
    60e4:	00045363          	bgez	s0,60ea <__lshift+0x4a>
    60e8:	4401                	li	s0,0
    60ea:	4894                	lw	a3,16(s1)
    60ec:	040a                	slli	s0,s0,0x2
    60ee:	00878733          	add	a4,a5,s0
    60f2:	068a                	slli	a3,a3,0x2
    60f4:	01448793          	addi	a5,s1,20
    60f8:	8a7d                	andi	a2,a2,31
    60fa:	96be                	add	a3,a3,a5
    60fc:	c225                	beqz	a2,615c <__lshift+0xbc>
    60fe:	02000813          	li	a6,32
    6102:	40c80833          	sub	a6,a6,a2
    6106:	4581                	li	a1,0
    6108:	4388                	lw	a0,0(a5)
    610a:	0711                	addi	a4,a4,4
    610c:	0791                	addi	a5,a5,4
    610e:	00c51533          	sll	a0,a0,a2
    6112:	8dc9                	or	a1,a1,a0
    6114:	feb72e23          	sw	a1,-4(a4)
    6118:	ffc7a583          	lw	a1,-4(a5)
    611c:	0105d5b3          	srl	a1,a1,a6
    6120:	fed7e4e3          	bltu	a5,a3,6108 <__lshift+0x68>
    6124:	c30c                	sw	a1,0(a4)
    6126:	c199                	beqz	a1,612c <__lshift+0x8c>
    6128:	00298913          	addi	s2,s3,2
    612c:	197d                	addi	s2,s2,-1
    612e:	012a2823          	sw	s2,16(s4)
    6132:	8556                	mv	a0,s5
    6134:	85a6                	mv	a1,s1
    6136:	b1bff0ef          	jal	ra,5c50 <_Bfree>
    613a:	50b2                	lw	ra,44(sp)
    613c:	5422                	lw	s0,40(sp)
    613e:	8552                	mv	a0,s4
    6140:	5492                	lw	s1,36(sp)
    6142:	5902                	lw	s2,32(sp)
    6144:	49f2                	lw	s3,28(sp)
    6146:	4a62                	lw	s4,24(sp)
    6148:	4ad2                	lw	s5,20(sp)
    614a:	6145                	addi	sp,sp,48
    614c:	8082                	ret
    614e:	0585                	addi	a1,a1,1
    6150:	0786                	slli	a5,a5,0x1
    6152:	bf95                	j	60c6 <__lshift+0x26>
    6154:	fe06ae23          	sw	zero,-4(a3) # fffc <_data_lma+0x5748>
    6158:	0705                	addi	a4,a4,1
    615a:	b751                	j	60de <__lshift+0x3e>
    615c:	0791                	addi	a5,a5,4
    615e:	ffc7a603          	lw	a2,-4(a5)
    6162:	0711                	addi	a4,a4,4
    6164:	fec72e23          	sw	a2,-4(a4)
    6168:	fed7eae3          	bltu	a5,a3,615c <__lshift+0xbc>
    616c:	b7c1                	j	612c <__lshift+0x8c>

0000616e <__mcmp>:
    616e:	491c                	lw	a5,16(a0)
    6170:	4998                	lw	a4,16(a1)
    6172:	8f99                	sub	a5,a5,a4
    6174:	e38d                	bnez	a5,6196 <__mcmp+0x28>
    6176:	070a                	slli	a4,a4,0x2
    6178:	0551                	addi	a0,a0,20
    617a:	05d1                	addi	a1,a1,20
    617c:	00e506b3          	add	a3,a0,a4
    6180:	95ba                	add	a1,a1,a4
    6182:	16f1                	addi	a3,a3,-4
    6184:	15f1                	addi	a1,a1,-4
    6186:	4290                	lw	a2,0(a3)
    6188:	4198                	lw	a4,0(a1)
    618a:	00e60863          	beq	a2,a4,619a <__mcmp+0x2c>
    618e:	57fd                	li	a5,-1
    6190:	00e66363          	bltu	a2,a4,6196 <__mcmp+0x28>
    6194:	4785                	li	a5,1
    6196:	853e                	mv	a0,a5
    6198:	8082                	ret
    619a:	fed564e3          	bltu	a0,a3,6182 <__mcmp+0x14>
    619e:	bfe5                	j	6196 <__mcmp+0x28>

000061a0 <__mdiff>:
    61a0:	1101                	addi	sp,sp,-32
    61a2:	ca26                	sw	s1,20(sp)
    61a4:	84ae                	mv	s1,a1
    61a6:	c64e                	sw	s3,12(sp)
    61a8:	85b2                	mv	a1,a2
    61aa:	89aa                	mv	s3,a0
    61ac:	8526                	mv	a0,s1
    61ae:	cc22                	sw	s0,24(sp)
    61b0:	ce06                	sw	ra,28(sp)
    61b2:	c84a                	sw	s2,16(sp)
    61b4:	8432                	mv	s0,a2
    61b6:	fb9ff0ef          	jal	ra,616e <__mcmp>
    61ba:	e105                	bnez	a0,61da <__mdiff+0x3a>
    61bc:	4581                	li	a1,0
    61be:	854e                	mv	a0,s3
    61c0:	a05ff0ef          	jal	ra,5bc4 <_Balloc>
    61c4:	4785                	li	a5,1
    61c6:	c91c                	sw	a5,16(a0)
    61c8:	00052a23          	sw	zero,20(a0)
    61cc:	40f2                	lw	ra,28(sp)
    61ce:	4462                	lw	s0,24(sp)
    61d0:	44d2                	lw	s1,20(sp)
    61d2:	4942                	lw	s2,16(sp)
    61d4:	49b2                	lw	s3,12(sp)
    61d6:	6105                	addi	sp,sp,32
    61d8:	8082                	ret
    61da:	4905                	li	s2,1
    61dc:	00054663          	bltz	a0,61e8 <__mdiff+0x48>
    61e0:	87a2                	mv	a5,s0
    61e2:	4901                	li	s2,0
    61e4:	8426                	mv	s0,s1
    61e6:	84be                	mv	s1,a5
    61e8:	404c                	lw	a1,4(s0)
    61ea:	854e                	mv	a0,s3
    61ec:	9d9ff0ef          	jal	ra,5bc4 <_Balloc>
    61f0:	01042303          	lw	t1,16(s0)
    61f4:	0104a883          	lw	a7,16(s1)
    61f8:	01440613          	addi	a2,s0,20
    61fc:	00231e13          	slli	t3,t1,0x2
    6200:	01448813          	addi	a6,s1,20
    6204:	088a                	slli	a7,a7,0x2
    6206:	6ec1                	lui	t4,0x10
    6208:	01252623          	sw	s2,12(a0)
    620c:	9e32                	add	t3,t3,a2
    620e:	98c2                	add	a7,a7,a6
    6210:	01450693          	addi	a3,a0,20
    6214:	4f01                	li	t5,0
    6216:	1efd                	addi	t4,t4,-1
    6218:	4218                	lw	a4,0(a2)
    621a:	00082f83          	lw	t6,0(a6)
    621e:	0691                	addi	a3,a3,4
    6220:	01d775b3          	and	a1,a4,t4
    6224:	01dff7b3          	and	a5,t6,t4
    6228:	95fa                	add	a1,a1,t5
    622a:	8d9d                	sub	a1,a1,a5
    622c:	010fdf93          	srli	t6,t6,0x10
    6230:	01075793          	srli	a5,a4,0x10
    6234:	41f787b3          	sub	a5,a5,t6
    6238:	4105d713          	srai	a4,a1,0x10
    623c:	97ba                	add	a5,a5,a4
    623e:	4107df13          	srai	t5,a5,0x10
    6242:	01d5f5b3          	and	a1,a1,t4
    6246:	07c2                	slli	a5,a5,0x10
    6248:	8fcd                	or	a5,a5,a1
    624a:	0811                	addi	a6,a6,4
    624c:	fef6ae23          	sw	a5,-4(a3)
    6250:	0611                	addi	a2,a2,4
    6252:	fd1863e3          	bltu	a6,a7,6218 <__mdiff+0x78>
    6256:	65c1                	lui	a1,0x10
    6258:	15fd                	addi	a1,a1,-1
    625a:	01c66863          	bltu	a2,t3,626a <__mdiff+0xca>
    625e:	16f1                	addi	a3,a3,-4
    6260:	429c                	lw	a5,0(a3)
    6262:	c795                	beqz	a5,628e <__mdiff+0xee>
    6264:	00652823          	sw	t1,16(a0)
    6268:	b795                	j	61cc <__mdiff+0x2c>
    626a:	421c                	lw	a5,0(a2)
    626c:	0691                	addi	a3,a3,4
    626e:	0611                	addi	a2,a2,4
    6270:	00b7f733          	and	a4,a5,a1
    6274:	977a                	add	a4,a4,t5
    6276:	41075813          	srai	a6,a4,0x10
    627a:	83c1                	srli	a5,a5,0x10
    627c:	97c2                	add	a5,a5,a6
    627e:	4107df13          	srai	t5,a5,0x10
    6282:	8f6d                	and	a4,a4,a1
    6284:	07c2                	slli	a5,a5,0x10
    6286:	8fd9                	or	a5,a5,a4
    6288:	fef6ae23          	sw	a5,-4(a3)
    628c:	b7f9                	j	625a <__mdiff+0xba>
    628e:	137d                	addi	t1,t1,-1
    6290:	b7f9                	j	625e <__mdiff+0xbe>

00006292 <__ulp>:
    6292:	7ff007b7          	lui	a5,0x7ff00
    6296:	8dfd                	and	a1,a1,a5
    6298:	fcc007b7          	lui	a5,0xfcc00
    629c:	95be                	add	a1,a1,a5
    629e:	00b05563          	blez	a1,62a8 <__ulp+0x16>
    62a2:	4781                	li	a5,0
    62a4:	853e                	mv	a0,a5
    62a6:	8082                	ret
    62a8:	40b005b3          	neg	a1,a1
    62ac:	4145d793          	srai	a5,a1,0x14
    62b0:	474d                	li	a4,19
    62b2:	00f74763          	blt	a4,a5,62c0 <__ulp+0x2e>
    62b6:	000805b7          	lui	a1,0x80
    62ba:	40f5d5b3          	sra	a1,a1,a5
    62be:	b7d5                	j	62a2 <__ulp+0x10>
    62c0:	fec78713          	addi	a4,a5,-20 # fcbfffec <_eusrstack+0xdcbf7fec>
    62c4:	46f9                	li	a3,30
    62c6:	4581                	li	a1,0
    62c8:	4785                	li	a5,1
    62ca:	fce6cde3          	blt	a3,a4,62a4 <__ulp+0x12>
    62ce:	800007b7          	lui	a5,0x80000
    62d2:	00e7d7b3          	srl	a5,a5,a4
    62d6:	b7f9                	j	62a4 <__ulp+0x12>

000062d8 <__b2d>:
    62d8:	7179                	addi	sp,sp,-48
    62da:	d226                	sw	s1,36(sp)
    62dc:	4904                	lw	s1,16(a0)
    62de:	ce4e                	sw	s3,28(sp)
    62e0:	01450993          	addi	s3,a0,20
    62e4:	048a                	slli	s1,s1,0x2
    62e6:	94ce                	add	s1,s1,s3
    62e8:	d422                	sw	s0,40(sp)
    62ea:	ffc4a403          	lw	s0,-4(s1)
    62ee:	d04a                	sw	s2,32(sp)
    62f0:	c62e                	sw	a1,12(sp)
    62f2:	8522                	mv	a0,s0
    62f4:	d606                	sw	ra,44(sp)
    62f6:	addff0ef          	jal	ra,5dd2 <__hi0bits>
    62fa:	45b2                	lw	a1,12(sp)
    62fc:	02000793          	li	a5,32
    6300:	8f89                	sub	a5,a5,a0
    6302:	c19c                	sw	a5,0(a1)
    6304:	47a9                	li	a5,10
    6306:	ffc48913          	addi	s2,s1,-4
    630a:	02a7cd63          	blt	a5,a0,6344 <__b2d+0x6c>
    630e:	47ad                	li	a5,11
    6310:	8f89                	sub	a5,a5,a0
    6312:	3ff00737          	lui	a4,0x3ff00
    6316:	00f456b3          	srl	a3,s0,a5
    631a:	8ed9                	or	a3,a3,a4
    631c:	4701                	li	a4,0
    631e:	0129f463          	bgeu	s3,s2,6326 <__b2d+0x4e>
    6322:	ff84a703          	lw	a4,-8(s1)
    6326:	0555                	addi	a0,a0,21
    6328:	00a41533          	sll	a0,s0,a0
    632c:	00f757b3          	srl	a5,a4,a5
    6330:	8fc9                	or	a5,a5,a0
    6332:	50b2                	lw	ra,44(sp)
    6334:	5422                	lw	s0,40(sp)
    6336:	5492                	lw	s1,36(sp)
    6338:	5902                	lw	s2,32(sp)
    633a:	49f2                	lw	s3,28(sp)
    633c:	853e                	mv	a0,a5
    633e:	85b6                	mv	a1,a3
    6340:	6145                	addi	sp,sp,48
    6342:	8082                	ret
    6344:	4781                	li	a5,0
    6346:	0129f663          	bgeu	s3,s2,6352 <__b2d+0x7a>
    634a:	ff84a783          	lw	a5,-8(s1)
    634e:	ff848913          	addi	s2,s1,-8
    6352:	1555                	addi	a0,a0,-11
    6354:	c905                	beqz	a0,6384 <__b2d+0xac>
    6356:	02000713          	li	a4,32
    635a:	40a70633          	sub	a2,a4,a0
    635e:	00c7d733          	srl	a4,a5,a2
    6362:	00a41433          	sll	s0,s0,a0
    6366:	8c59                	or	s0,s0,a4
    6368:	3ff006b7          	lui	a3,0x3ff00
    636c:	8ec1                	or	a3,a3,s0
    636e:	4701                	li	a4,0
    6370:	0129f463          	bgeu	s3,s2,6378 <__b2d+0xa0>
    6374:	ffc92703          	lw	a4,-4(s2)
    6378:	00a797b3          	sll	a5,a5,a0
    637c:	00c75733          	srl	a4,a4,a2
    6380:	8fd9                	or	a5,a5,a4
    6382:	bf45                	j	6332 <__b2d+0x5a>
    6384:	3ff006b7          	lui	a3,0x3ff00
    6388:	8ec1                	or	a3,a3,s0
    638a:	b765                	j	6332 <__b2d+0x5a>

0000638c <__d2b>:
    638c:	7179                	addi	sp,sp,-48
    638e:	d422                	sw	s0,40(sp)
    6390:	842e                	mv	s0,a1
    6392:	4585                	li	a1,1
    6394:	d226                	sw	s1,36(sp)
    6396:	d04a                	sw	s2,32(sp)
    6398:	84b2                	mv	s1,a2
    639a:	ce4e                	sw	s3,28(sp)
    639c:	cc52                	sw	s4,24(sp)
    639e:	893a                	mv	s2,a4
    63a0:	d606                	sw	ra,44(sp)
    63a2:	8a36                	mv	s4,a3
    63a4:	821ff0ef          	jal	ra,5bc4 <_Balloc>
    63a8:	00100737          	lui	a4,0x100
    63ac:	fff70793          	addi	a5,a4,-1 # fffff <_data_lma+0xf574b>
    63b0:	8fe5                	and	a5,a5,s1
    63b2:	80d1                	srli	s1,s1,0x14
    63b4:	7ff4f493          	andi	s1,s1,2047
    63b8:	89aa                	mv	s3,a0
    63ba:	e0b5                	bnez	s1,641e <__d2b+0x92>
    63bc:	c63e                	sw	a5,12(sp)
    63be:	c42d                	beqz	s0,6428 <__d2b+0x9c>
    63c0:	0028                	addi	a0,sp,8
    63c2:	c422                	sw	s0,8(sp)
    63c4:	a55ff0ef          	jal	ra,5e18 <__lo0bits>
    63c8:	46a2                	lw	a3,8(sp)
    63ca:	cd21                	beqz	a0,6422 <__d2b+0x96>
    63cc:	4732                	lw	a4,12(sp)
    63ce:	02000793          	li	a5,32
    63d2:	8f89                	sub	a5,a5,a0
    63d4:	00f717b3          	sll	a5,a4,a5
    63d8:	8fd5                	or	a5,a5,a3
    63da:	00a75733          	srl	a4,a4,a0
    63de:	00f9aa23          	sw	a5,20(s3)
    63e2:	c63a                	sw	a4,12(sp)
    63e4:	4432                	lw	s0,12(sp)
    63e6:	0089ac23          	sw	s0,24(s3)
    63ea:	00803433          	snez	s0,s0
    63ee:	0405                	addi	s0,s0,1
    63f0:	0089a823          	sw	s0,16(s3)
    63f4:	c4b9                	beqz	s1,6442 <__d2b+0xb6>
    63f6:	bcd48493          	addi	s1,s1,-1075
    63fa:	94aa                	add	s1,s1,a0
    63fc:	03500793          	li	a5,53
    6400:	009a2023          	sw	s1,0(s4)
    6404:	40a78533          	sub	a0,a5,a0
    6408:	00a92023          	sw	a0,0(s2)
    640c:	50b2                	lw	ra,44(sp)
    640e:	5422                	lw	s0,40(sp)
    6410:	854e                	mv	a0,s3
    6412:	5492                	lw	s1,36(sp)
    6414:	5902                	lw	s2,32(sp)
    6416:	49f2                	lw	s3,28(sp)
    6418:	4a62                	lw	s4,24(sp)
    641a:	6145                	addi	sp,sp,48
    641c:	8082                	ret
    641e:	8fd9                	or	a5,a5,a4
    6420:	bf71                	j	63bc <__d2b+0x30>
    6422:	00d9aa23          	sw	a3,20(s3)
    6426:	bf7d                	j	63e4 <__d2b+0x58>
    6428:	0068                	addi	a0,sp,12
    642a:	9efff0ef          	jal	ra,5e18 <__lo0bits>
    642e:	47b2                	lw	a5,12(sp)
    6430:	02050513          	addi	a0,a0,32
    6434:	4405                	li	s0,1
    6436:	00f9aa23          	sw	a5,20(s3)
    643a:	4785                	li	a5,1
    643c:	00f9a823          	sw	a5,16(s3)
    6440:	bf55                	j	63f4 <__d2b+0x68>
    6442:	00241793          	slli	a5,s0,0x2
    6446:	bce50513          	addi	a0,a0,-1074
    644a:	97ce                	add	a5,a5,s3
    644c:	00aa2023          	sw	a0,0(s4)
    6450:	4b88                	lw	a0,16(a5)
    6452:	0416                	slli	s0,s0,0x5
    6454:	97fff0ef          	jal	ra,5dd2 <__hi0bits>
    6458:	8c09                	sub	s0,s0,a0
    645a:	00892023          	sw	s0,0(s2)
    645e:	b77d                	j	640c <__d2b+0x80>

00006460 <__ratio>:
    6460:	7179                	addi	sp,sp,-48
    6462:	d04a                	sw	s2,32(sp)
    6464:	892e                	mv	s2,a1
    6466:	002c                	addi	a1,sp,8
    6468:	d606                	sw	ra,44(sp)
    646a:	d422                	sw	s0,40(sp)
    646c:	d226                	sw	s1,36(sp)
    646e:	ce4e                	sw	s3,28(sp)
    6470:	cc52                	sw	s4,24(sp)
    6472:	8a2a                	mv	s4,a0
    6474:	e65ff0ef          	jal	ra,62d8 <__b2d>
    6478:	89aa                	mv	s3,a0
    647a:	84ae                	mv	s1,a1
    647c:	842e                	mv	s0,a1
    647e:	854a                	mv	a0,s2
    6480:	006c                	addi	a1,sp,12
    6482:	e57ff0ef          	jal	ra,62d8 <__b2d>
    6486:	01092783          	lw	a5,16(s2)
    648a:	010a2703          	lw	a4,16(s4)
    648e:	46a2                	lw	a3,8(sp)
    6490:	8f1d                	sub	a4,a4,a5
    6492:	47b2                	lw	a5,12(sp)
    6494:	0716                	slli	a4,a4,0x5
    6496:	8e9d                	sub	a3,a3,a5
    6498:	00d707b3          	add	a5,a4,a3
    649c:	02f05563          	blez	a5,64c6 <__ratio+0x66>
    64a0:	07d2                	slli	a5,a5,0x14
    64a2:	862e                	mv	a2,a1
    64a4:	00978433          	add	s0,a5,s1
    64a8:	8732                	mv	a4,a2
    64aa:	85a2                	mv	a1,s0
    64ac:	862a                	mv	a2,a0
    64ae:	86ba                	mv	a3,a4
    64b0:	854e                	mv	a0,s3
    64b2:	2de010ef          	jal	ra,7790 <__divdf3>
    64b6:	50b2                	lw	ra,44(sp)
    64b8:	5422                	lw	s0,40(sp)
    64ba:	5492                	lw	s1,36(sp)
    64bc:	5902                	lw	s2,32(sp)
    64be:	49f2                	lw	s3,28(sp)
    64c0:	4a62                	lw	s4,24(sp)
    64c2:	6145                	addi	sp,sp,48
    64c4:	8082                	ret
    64c6:	fff00737          	lui	a4,0xfff00
    64ca:	02e787b3          	mul	a5,a5,a4
    64ce:	00b78633          	add	a2,a5,a1
    64d2:	bfd9                	j	64a8 <__ratio+0x48>

000064d4 <__copybits>:
    64d4:	fff58793          	addi	a5,a1,-1 # 7ffff <_data_lma+0x7574b>
    64d8:	4a18                	lw	a4,16(a2)
    64da:	8795                	srai	a5,a5,0x5
    64dc:	0785                	addi	a5,a5,1
    64de:	078a                	slli	a5,a5,0x2
    64e0:	01460693          	addi	a3,a2,20
    64e4:	070a                	slli	a4,a4,0x2
    64e6:	97aa                	add	a5,a5,a0
    64e8:	9736                	add	a4,a4,a3
    64ea:	00e6e563          	bltu	a3,a4,64f4 <__copybits+0x20>
    64ee:	00f56a63          	bltu	a0,a5,6502 <__copybits+0x2e>
    64f2:	8082                	ret
    64f4:	0691                	addi	a3,a3,4
    64f6:	ffc6a603          	lw	a2,-4(a3) # 3feffffc <_eusrstack+0x1fef7ffc>
    64fa:	0511                	addi	a0,a0,4
    64fc:	fec52e23          	sw	a2,-4(a0)
    6500:	b7ed                	j	64ea <__copybits+0x16>
    6502:	0511                	addi	a0,a0,4
    6504:	fe052e23          	sw	zero,-4(a0)
    6508:	b7dd                	j	64ee <__copybits+0x1a>

0000650a <__any_on>:
    650a:	4914                	lw	a3,16(a0)
    650c:	4055d793          	srai	a5,a1,0x5
    6510:	01450713          	addi	a4,a0,20
    6514:	02f6c763          	blt	a3,a5,6542 <__any_on+0x38>
    6518:	00d7df63          	bge	a5,a3,6536 <__any_on+0x2c>
    651c:	89fd                	andi	a1,a1,31
    651e:	cd81                	beqz	a1,6536 <__any_on+0x2c>
    6520:	00279693          	slli	a3,a5,0x2
    6524:	96ba                	add	a3,a3,a4
    6526:	4290                	lw	a2,0(a3)
    6528:	4505                	li	a0,1
    652a:	00b656b3          	srl	a3,a2,a1
    652e:	00b695b3          	sll	a1,a3,a1
    6532:	00b61e63          	bne	a2,a1,654e <__any_on+0x44>
    6536:	078a                	slli	a5,a5,0x2
    6538:	97ba                	add	a5,a5,a4
    653a:	00f76663          	bltu	a4,a5,6546 <__any_on+0x3c>
    653e:	4501                	li	a0,0
    6540:	8082                	ret
    6542:	87b6                	mv	a5,a3
    6544:	bfcd                	j	6536 <__any_on+0x2c>
    6546:	17f1                	addi	a5,a5,-4
    6548:	4394                	lw	a3,0(a5)
    654a:	dae5                	beqz	a3,653a <__any_on+0x30>
    654c:	4505                	li	a0,1
    654e:	8082                	ret

00006550 <_calloc_r>:
    6550:	02c58633          	mul	a2,a1,a2
    6554:	1101                	addi	sp,sp,-32
    6556:	cc22                	sw	s0,24(sp)
    6558:	ce06                	sw	ra,28(sp)
    655a:	85b2                	mv	a1,a2
    655c:	c632                	sw	a2,12(sp)
    655e:	20c1                	jal	661e <_malloc_r>
    6560:	842a                	mv	s0,a0
    6562:	c509                	beqz	a0,656c <_calloc_r+0x1c>
    6564:	4632                	lw	a2,12(sp)
    6566:	4581                	li	a1,0
    6568:	c99f90ef          	jal	ra,200 <memset>
    656c:	8522                	mv	a0,s0
    656e:	40f2                	lw	ra,28(sp)
    6570:	4462                	lw	s0,24(sp)
    6572:	6105                	addi	sp,sp,32
    6574:	8082                	ret

00006576 <_free_r>:
    6576:	c1dd                	beqz	a1,661c <_free_r+0xa6>
    6578:	ffc5a783          	lw	a5,-4(a1)
    657c:	1141                	addi	sp,sp,-16
    657e:	c422                	sw	s0,8(sp)
    6580:	c606                	sw	ra,12(sp)
    6582:	c226                	sw	s1,4(sp)
    6584:	ffc58413          	addi	s0,a1,-4
    6588:	0007d363          	bgez	a5,658e <_free_r+0x18>
    658c:	943e                	add	s0,s0,a5
    658e:	84aa                	mv	s1,a0
    6590:	233000ef          	jal	ra,6fc2 <__malloc_lock>
    6594:	85018793          	addi	a5,gp,-1968 # 20000230 <__malloc_free_list>
    6598:	439c                	lw	a5,0(a5)
    659a:	ef81                	bnez	a5,65b2 <_free_r+0x3c>
    659c:	00042223          	sw	zero,4(s0)
    65a0:	8481a823          	sw	s0,-1968(gp) # 20000230 <__malloc_free_list>
    65a4:	4422                	lw	s0,8(sp)
    65a6:	40b2                	lw	ra,12(sp)
    65a8:	8526                	mv	a0,s1
    65aa:	4492                	lw	s1,4(sp)
    65ac:	0141                	addi	sp,sp,16
    65ae:	2170006f          	j	6fc4 <__malloc_unlock>
    65b2:	00f47e63          	bgeu	s0,a5,65ce <_free_r+0x58>
    65b6:	4014                	lw	a3,0(s0)
    65b8:	00d40733          	add	a4,s0,a3
    65bc:	00e79663          	bne	a5,a4,65c8 <_free_r+0x52>
    65c0:	4398                	lw	a4,0(a5)
    65c2:	43dc                	lw	a5,4(a5)
    65c4:	9736                	add	a4,a4,a3
    65c6:	c018                	sw	a4,0(s0)
    65c8:	c05c                	sw	a5,4(s0)
    65ca:	bfd9                	j	65a0 <_free_r+0x2a>
    65cc:	87ba                	mv	a5,a4
    65ce:	43d8                	lw	a4,4(a5)
    65d0:	c319                	beqz	a4,65d6 <_free_r+0x60>
    65d2:	fee47de3          	bgeu	s0,a4,65cc <_free_r+0x56>
    65d6:	4394                	lw	a3,0(a5)
    65d8:	00d78633          	add	a2,a5,a3
    65dc:	00861f63          	bne	a2,s0,65fa <_free_r+0x84>
    65e0:	4010                	lw	a2,0(s0)
    65e2:	96b2                	add	a3,a3,a2
    65e4:	c394                	sw	a3,0(a5)
    65e6:	00d78633          	add	a2,a5,a3
    65ea:	fac71de3          	bne	a4,a2,65a4 <_free_r+0x2e>
    65ee:	4310                	lw	a2,0(a4)
    65f0:	4358                	lw	a4,4(a4)
    65f2:	96b2                	add	a3,a3,a2
    65f4:	c394                	sw	a3,0(a5)
    65f6:	c3d8                	sw	a4,4(a5)
    65f8:	b775                	j	65a4 <_free_r+0x2e>
    65fa:	00c47563          	bgeu	s0,a2,6604 <_free_r+0x8e>
    65fe:	47b1                	li	a5,12
    6600:	c09c                	sw	a5,0(s1)
    6602:	b74d                	j	65a4 <_free_r+0x2e>
    6604:	4010                	lw	a2,0(s0)
    6606:	00c406b3          	add	a3,s0,a2
    660a:	00d71663          	bne	a4,a3,6616 <_free_r+0xa0>
    660e:	4314                	lw	a3,0(a4)
    6610:	4358                	lw	a4,4(a4)
    6612:	96b2                	add	a3,a3,a2
    6614:	c014                	sw	a3,0(s0)
    6616:	c058                	sw	a4,4(s0)
    6618:	c3c0                	sw	s0,4(a5)
    661a:	b769                	j	65a4 <_free_r+0x2e>
    661c:	8082                	ret

0000661e <_malloc_r>:
    661e:	1101                	addi	sp,sp,-32
    6620:	ca26                	sw	s1,20(sp)
    6622:	00358493          	addi	s1,a1,3
    6626:	98f1                	andi	s1,s1,-4
    6628:	ce06                	sw	ra,28(sp)
    662a:	cc22                	sw	s0,24(sp)
    662c:	c84a                	sw	s2,16(sp)
    662e:	c64e                	sw	s3,12(sp)
    6630:	04a1                	addi	s1,s1,8
    6632:	47b1                	li	a5,12
    6634:	04f4f363          	bgeu	s1,a5,667a <_malloc_r+0x5c>
    6638:	44b1                	li	s1,12
    663a:	04b4e263          	bltu	s1,a1,667e <_malloc_r+0x60>
    663e:	892a                	mv	s2,a0
    6640:	183000ef          	jal	ra,6fc2 <__malloc_lock>
    6644:	85018793          	addi	a5,gp,-1968 # 20000230 <__malloc_free_list>
    6648:	4398                	lw	a4,0(a5)
    664a:	843a                	mv	s0,a4
    664c:	e039                	bnez	s0,6692 <_malloc_r+0x74>
    664e:	85418793          	addi	a5,gp,-1964 # 20000234 <__malloc_sbrk_start>
    6652:	439c                	lw	a5,0(a5)
    6654:	e791                	bnez	a5,6660 <_malloc_r+0x42>
    6656:	4581                	li	a1,0
    6658:	854a                	mv	a0,s2
    665a:	2f09                	jal	6d6c <_sbrk_r>
    665c:	84a1aa23          	sw	a0,-1964(gp) # 20000234 <__malloc_sbrk_start>
    6660:	85a6                	mv	a1,s1
    6662:	854a                	mv	a0,s2
    6664:	2721                	jal	6d6c <_sbrk_r>
    6666:	59fd                	li	s3,-1
    6668:	07351963          	bne	a0,s3,66da <_malloc_r+0xbc>
    666c:	47b1                	li	a5,12
    666e:	00f92023          	sw	a5,0(s2)
    6672:	854a                	mv	a0,s2
    6674:	151000ef          	jal	ra,6fc4 <__malloc_unlock>
    6678:	a029                	j	6682 <_malloc_r+0x64>
    667a:	fc04d0e3          	bgez	s1,663a <_malloc_r+0x1c>
    667e:	47b1                	li	a5,12
    6680:	c11c                	sw	a5,0(a0)
    6682:	4501                	li	a0,0
    6684:	40f2                	lw	ra,28(sp)
    6686:	4462                	lw	s0,24(sp)
    6688:	44d2                	lw	s1,20(sp)
    668a:	4942                	lw	s2,16(sp)
    668c:	49b2                	lw	s3,12(sp)
    668e:	6105                	addi	sp,sp,32
    6690:	8082                	ret
    6692:	401c                	lw	a5,0(s0)
    6694:	8f85                	sub	a5,a5,s1
    6696:	0207cf63          	bltz	a5,66d4 <_malloc_r+0xb6>
    669a:	46ad                	li	a3,11
    669c:	00f6f663          	bgeu	a3,a5,66a8 <_malloc_r+0x8a>
    66a0:	c01c                	sw	a5,0(s0)
    66a2:	943e                	add	s0,s0,a5
    66a4:	c004                	sw	s1,0(s0)
    66a6:	a031                	j	66b2 <_malloc_r+0x94>
    66a8:	405c                	lw	a5,4(s0)
    66aa:	02871363          	bne	a4,s0,66d0 <_malloc_r+0xb2>
    66ae:	84f1a823          	sw	a5,-1968(gp) # 20000230 <__malloc_free_list>
    66b2:	854a                	mv	a0,s2
    66b4:	111000ef          	jal	ra,6fc4 <__malloc_unlock>
    66b8:	00b40513          	addi	a0,s0,11
    66bc:	00440793          	addi	a5,s0,4
    66c0:	9961                	andi	a0,a0,-8
    66c2:	40f50733          	sub	a4,a0,a5
    66c6:	df5d                	beqz	a4,6684 <_malloc_r+0x66>
    66c8:	943a                	add	s0,s0,a4
    66ca:	8f89                	sub	a5,a5,a0
    66cc:	c01c                	sw	a5,0(s0)
    66ce:	bf5d                	j	6684 <_malloc_r+0x66>
    66d0:	c35c                	sw	a5,4(a4)
    66d2:	b7c5                	j	66b2 <_malloc_r+0x94>
    66d4:	8722                	mv	a4,s0
    66d6:	4040                	lw	s0,4(s0)
    66d8:	bf95                	j	664c <_malloc_r+0x2e>
    66da:	00350413          	addi	s0,a0,3
    66de:	9871                	andi	s0,s0,-4
    66e0:	fc8502e3          	beq	a0,s0,66a4 <_malloc_r+0x86>
    66e4:	40a405b3          	sub	a1,s0,a0
    66e8:	854a                	mv	a0,s2
    66ea:	2549                	jal	6d6c <_sbrk_r>
    66ec:	fb351ce3          	bne	a0,s3,66a4 <_malloc_r+0x86>
    66f0:	bfb5                	j	666c <_malloc_r+0x4e>

000066f2 <__ssputs_r>:
    66f2:	1101                	addi	sp,sp,-32
    66f4:	c84a                	sw	s2,16(sp)
    66f6:	0085a903          	lw	s2,8(a1)
    66fa:	cc22                	sw	s0,24(sp)
    66fc:	c452                	sw	s4,8(sp)
    66fe:	c05a                	sw	s6,0(sp)
    6700:	ce06                	sw	ra,28(sp)
    6702:	ca26                	sw	s1,20(sp)
    6704:	c64e                	sw	s3,12(sp)
    6706:	c256                	sw	s5,4(sp)
    6708:	842e                	mv	s0,a1
    670a:	8b32                	mv	s6,a2
    670c:	8a36                	mv	s4,a3
    670e:	0926ee63          	bltu	a3,s2,67aa <__ssputs_r+0xb8>
    6712:	00c5d783          	lhu	a5,12(a1)
    6716:	4807f713          	andi	a4,a5,1152
    671a:	c751                	beqz	a4,67a6 <__ssputs_r+0xb4>
    671c:	4004                	lw	s1,0(s0)
    671e:	498c                	lw	a1,16(a1)
    6720:	4858                	lw	a4,20(s0)
    6722:	8aaa                	mv	s5,a0
    6724:	40b489b3          	sub	s3,s1,a1
    6728:	448d                	li	s1,3
    672a:	02e484b3          	mul	s1,s1,a4
    672e:	4709                	li	a4,2
    6730:	02e4c4b3          	div	s1,s1,a4
    6734:	00168713          	addi	a4,a3,1
    6738:	974e                	add	a4,a4,s3
    673a:	00e4f363          	bgeu	s1,a4,6740 <__ssputs_r+0x4e>
    673e:	84ba                	mv	s1,a4
    6740:	4007f793          	andi	a5,a5,1024
    6744:	c3d9                	beqz	a5,67ca <__ssputs_r+0xd8>
    6746:	85a6                	mv	a1,s1
    6748:	8556                	mv	a0,s5
    674a:	ed5ff0ef          	jal	ra,661e <_malloc_r>
    674e:	892a                	mv	s2,a0
    6750:	e50d                	bnez	a0,677a <__ssputs_r+0x88>
    6752:	47b1                	li	a5,12
    6754:	00faa023          	sw	a5,0(s5)
    6758:	00c45783          	lhu	a5,12(s0)
    675c:	557d                	li	a0,-1
    675e:	0407e793          	ori	a5,a5,64
    6762:	00f41623          	sh	a5,12(s0)
    6766:	40f2                	lw	ra,28(sp)
    6768:	4462                	lw	s0,24(sp)
    676a:	44d2                	lw	s1,20(sp)
    676c:	4942                	lw	s2,16(sp)
    676e:	49b2                	lw	s3,12(sp)
    6770:	4a22                	lw	s4,8(sp)
    6772:	4a92                	lw	s5,4(sp)
    6774:	4b02                	lw	s6,0(sp)
    6776:	6105                	addi	sp,sp,32
    6778:	8082                	ret
    677a:	480c                	lw	a1,16(s0)
    677c:	864e                	mv	a2,s3
    677e:	b90ff0ef          	jal	ra,5b0e <memcpy>
    6782:	00c45783          	lhu	a5,12(s0)
    6786:	b7f7f793          	andi	a5,a5,-1153
    678a:	0807e793          	ori	a5,a5,128
    678e:	00f41623          	sh	a5,12(s0)
    6792:	01242823          	sw	s2,16(s0)
    6796:	c844                	sw	s1,20(s0)
    6798:	994e                	add	s2,s2,s3
    679a:	413484b3          	sub	s1,s1,s3
    679e:	01242023          	sw	s2,0(s0)
    67a2:	c404                	sw	s1,8(s0)
    67a4:	8952                	mv	s2,s4
    67a6:	012a7363          	bgeu	s4,s2,67ac <__ssputs_r+0xba>
    67aa:	8952                	mv	s2,s4
    67ac:	4008                	lw	a0,0(s0)
    67ae:	864a                	mv	a2,s2
    67b0:	85da                	mv	a1,s6
    67b2:	7c6000ef          	jal	ra,6f78 <memmove>
    67b6:	441c                	lw	a5,8(s0)
    67b8:	4501                	li	a0,0
    67ba:	412787b3          	sub	a5,a5,s2
    67be:	c41c                	sw	a5,8(s0)
    67c0:	401c                	lw	a5,0(s0)
    67c2:	993e                	add	s2,s2,a5
    67c4:	01242023          	sw	s2,0(s0)
    67c8:	bf79                	j	6766 <__ssputs_r+0x74>
    67ca:	8626                	mv	a2,s1
    67cc:	8556                	mv	a0,s5
    67ce:	7f8000ef          	jal	ra,6fc6 <_realloc_r>
    67d2:	892a                	mv	s2,a0
    67d4:	fd5d                	bnez	a0,6792 <__ssputs_r+0xa0>
    67d6:	480c                	lw	a1,16(s0)
    67d8:	8556                	mv	a0,s5
    67da:	d9dff0ef          	jal	ra,6576 <_free_r>
    67de:	bf95                	j	6752 <__ssputs_r+0x60>

000067e0 <_svfiprintf_r>:
    67e0:	00c5d783          	lhu	a5,12(a1)
    67e4:	7171                	addi	sp,sp,-176
    67e6:	d326                	sw	s1,164(sp)
    67e8:	d14a                	sw	s2,160(sp)
    67ea:	cf4e                	sw	s3,156(sp)
    67ec:	d706                	sw	ra,172(sp)
    67ee:	d522                	sw	s0,168(sp)
    67f0:	cd52                	sw	s4,152(sp)
    67f2:	cb56                	sw	s5,148(sp)
    67f4:	c95a                	sw	s6,144(sp)
    67f6:	c75e                	sw	s7,140(sp)
    67f8:	c562                	sw	s8,136(sp)
    67fa:	c366                	sw	s9,132(sp)
    67fc:	0807f793          	andi	a5,a5,128
    6800:	89aa                	mv	s3,a0
    6802:	892e                	mv	s2,a1
    6804:	84b2                	mv	s1,a2
    6806:	c3b9                	beqz	a5,684c <_svfiprintf_r+0x6c>
    6808:	499c                	lw	a5,16(a1)
    680a:	e3a9                	bnez	a5,684c <_svfiprintf_r+0x6c>
    680c:	04000593          	li	a1,64
    6810:	c636                	sw	a3,12(sp)
    6812:	e0dff0ef          	jal	ra,661e <_malloc_r>
    6816:	00a92023          	sw	a0,0(s2)
    681a:	00a92823          	sw	a0,16(s2)
    681e:	46b2                	lw	a3,12(sp)
    6820:	e115                	bnez	a0,6844 <_svfiprintf_r+0x64>
    6822:	47b1                	li	a5,12
    6824:	00f9a023          	sw	a5,0(s3)
    6828:	557d                	li	a0,-1
    682a:	50ba                	lw	ra,172(sp)
    682c:	542a                	lw	s0,168(sp)
    682e:	549a                	lw	s1,164(sp)
    6830:	590a                	lw	s2,160(sp)
    6832:	49fa                	lw	s3,156(sp)
    6834:	4a6a                	lw	s4,152(sp)
    6836:	4ada                	lw	s5,148(sp)
    6838:	4b4a                	lw	s6,144(sp)
    683a:	4bba                	lw	s7,140(sp)
    683c:	4c2a                	lw	s8,136(sp)
    683e:	4c9a                	lw	s9,132(sp)
    6840:	614d                	addi	sp,sp,176
    6842:	8082                	ret
    6844:	04000793          	li	a5,64
    6848:	00f92a23          	sw	a5,20(s2)
    684c:	02000793          	li	a5,32
    6850:	02f10ca3          	sb	a5,57(sp)
    6854:	03000793          	li	a5,48
    6858:	da02                	sw	zero,52(sp)
    685a:	02f10d23          	sb	a5,58(sp)
    685e:	ce36                	sw	a3,28(sp)
    6860:	02500b93          	li	s7,37
    6864:	00004a97          	auipc	s5,0x4
    6868:	eb8a8a93          	addi	s5,s5,-328 # a71c <p05.3319+0xc>
    686c:	4c05                	li	s8,1
    686e:	4b29                	li	s6,10
    6870:	8426                	mv	s0,s1
    6872:	00044783          	lbu	a5,0(s0)
    6876:	c399                	beqz	a5,687c <_svfiprintf_r+0x9c>
    6878:	09779d63          	bne	a5,s7,6912 <_svfiprintf_r+0x132>
    687c:	40940cb3          	sub	s9,s0,s1
    6880:	000c8e63          	beqz	s9,689c <_svfiprintf_r+0xbc>
    6884:	86e6                	mv	a3,s9
    6886:	8626                	mv	a2,s1
    6888:	85ca                	mv	a1,s2
    688a:	854e                	mv	a0,s3
    688c:	e67ff0ef          	jal	ra,66f2 <__ssputs_r>
    6890:	57fd                	li	a5,-1
    6892:	1af50263          	beq	a0,a5,6a36 <_svfiprintf_r+0x256>
    6896:	56d2                	lw	a3,52(sp)
    6898:	96e6                	add	a3,a3,s9
    689a:	da36                	sw	a3,52(sp)
    689c:	00044783          	lbu	a5,0(s0)
    68a0:	18078b63          	beqz	a5,6a36 <_svfiprintf_r+0x256>
    68a4:	57fd                	li	a5,-1
    68a6:	00140493          	addi	s1,s0,1
    68aa:	d002                	sw	zero,32(sp)
    68ac:	d602                	sw	zero,44(sp)
    68ae:	d23e                	sw	a5,36(sp)
    68b0:	d402                	sw	zero,40(sp)
    68b2:	060101a3          	sb	zero,99(sp)
    68b6:	dc82                	sw	zero,120(sp)
    68b8:	0004c583          	lbu	a1,0(s1)
    68bc:	4615                	li	a2,5
    68be:	8556                	mv	a0,s5
    68c0:	a34ff0ef          	jal	ra,5af4 <memchr>
    68c4:	00148413          	addi	s0,s1,1
    68c8:	5782                	lw	a5,32(sp)
    68ca:	e531                	bnez	a0,6916 <_svfiprintf_r+0x136>
    68cc:	0107f713          	andi	a4,a5,16
    68d0:	c709                	beqz	a4,68da <_svfiprintf_r+0xfa>
    68d2:	02000713          	li	a4,32
    68d6:	06e101a3          	sb	a4,99(sp)
    68da:	0087f713          	andi	a4,a5,8
    68de:	c709                	beqz	a4,68e8 <_svfiprintf_r+0x108>
    68e0:	02b00713          	li	a4,43
    68e4:	06e101a3          	sb	a4,99(sp)
    68e8:	0004c683          	lbu	a3,0(s1)
    68ec:	02a00713          	li	a4,42
    68f0:	02e68b63          	beq	a3,a4,6926 <_svfiprintf_r+0x146>
    68f4:	57b2                	lw	a5,44(sp)
    68f6:	8426                	mv	s0,s1
    68f8:	4681                	li	a3,0
    68fa:	4625                	li	a2,9
    68fc:	00044703          	lbu	a4,0(s0)
    6900:	00140593          	addi	a1,s0,1
    6904:	fd070713          	addi	a4,a4,-48 # ffefffd0 <_eusrstack+0xdfef7fd0>
    6908:	06e67463          	bgeu	a2,a4,6970 <_svfiprintf_r+0x190>
    690c:	c68d                	beqz	a3,6936 <_svfiprintf_r+0x156>
    690e:	d63e                	sw	a5,44(sp)
    6910:	a01d                	j	6936 <_svfiprintf_r+0x156>
    6912:	0405                	addi	s0,s0,1
    6914:	bfb9                	j	6872 <_svfiprintf_r+0x92>
    6916:	41550533          	sub	a0,a0,s5
    691a:	00ac1533          	sll	a0,s8,a0
    691e:	8fc9                	or	a5,a5,a0
    6920:	d03e                	sw	a5,32(sp)
    6922:	84a2                	mv	s1,s0
    6924:	bf51                	j	68b8 <_svfiprintf_r+0xd8>
    6926:	4772                	lw	a4,28(sp)
    6928:	00470693          	addi	a3,a4,4
    692c:	4318                	lw	a4,0(a4)
    692e:	ce36                	sw	a3,28(sp)
    6930:	02074963          	bltz	a4,6962 <_svfiprintf_r+0x182>
    6934:	d63a                	sw	a4,44(sp)
    6936:	00044703          	lbu	a4,0(s0)
    693a:	02e00793          	li	a5,46
    693e:	04f71f63          	bne	a4,a5,699c <_svfiprintf_r+0x1bc>
    6942:	00144703          	lbu	a4,1(s0)
    6946:	02a00793          	li	a5,42
    694a:	02f71b63          	bne	a4,a5,6980 <_svfiprintf_r+0x1a0>
    694e:	47f2                	lw	a5,28(sp)
    6950:	0409                	addi	s0,s0,2
    6952:	00478713          	addi	a4,a5,4 # 80000004 <_eusrstack+0x5fff8004>
    6956:	439c                	lw	a5,0(a5)
    6958:	ce3a                	sw	a4,28(sp)
    695a:	0207c163          	bltz	a5,697c <_svfiprintf_r+0x19c>
    695e:	d23e                	sw	a5,36(sp)
    6960:	a835                	j	699c <_svfiprintf_r+0x1bc>
    6962:	40e00733          	neg	a4,a4
    6966:	0027e793          	ori	a5,a5,2
    696a:	d63a                	sw	a4,44(sp)
    696c:	d03e                	sw	a5,32(sp)
    696e:	b7e1                	j	6936 <_svfiprintf_r+0x156>
    6970:	036787b3          	mul	a5,a5,s6
    6974:	4685                	li	a3,1
    6976:	842e                	mv	s0,a1
    6978:	97ba                	add	a5,a5,a4
    697a:	b749                	j	68fc <_svfiprintf_r+0x11c>
    697c:	57fd                	li	a5,-1
    697e:	b7c5                	j	695e <_svfiprintf_r+0x17e>
    6980:	0405                	addi	s0,s0,1
    6982:	d202                	sw	zero,36(sp)
    6984:	4681                	li	a3,0
    6986:	4781                	li	a5,0
    6988:	4625                	li	a2,9
    698a:	00044703          	lbu	a4,0(s0)
    698e:	00140593          	addi	a1,s0,1
    6992:	fd070713          	addi	a4,a4,-48
    6996:	06e67863          	bgeu	a2,a4,6a06 <_svfiprintf_r+0x226>
    699a:	f2f1                	bnez	a3,695e <_svfiprintf_r+0x17e>
    699c:	00044583          	lbu	a1,0(s0)
    69a0:	460d                	li	a2,3
    69a2:	00004517          	auipc	a0,0x4
    69a6:	d8250513          	addi	a0,a0,-638 # a724 <p05.3319+0x14>
    69aa:	94aff0ef          	jal	ra,5af4 <memchr>
    69ae:	cd11                	beqz	a0,69ca <_svfiprintf_r+0x1ea>
    69b0:	00004797          	auipc	a5,0x4
    69b4:	d7478793          	addi	a5,a5,-652 # a724 <p05.3319+0x14>
    69b8:	8d1d                	sub	a0,a0,a5
    69ba:	04000793          	li	a5,64
    69be:	00a797b3          	sll	a5,a5,a0
    69c2:	5502                	lw	a0,32(sp)
    69c4:	0405                	addi	s0,s0,1
    69c6:	8d5d                	or	a0,a0,a5
    69c8:	d02a                	sw	a0,32(sp)
    69ca:	00044583          	lbu	a1,0(s0)
    69ce:	4619                	li	a2,6
    69d0:	00004517          	auipc	a0,0x4
    69d4:	d5850513          	addi	a0,a0,-680 # a728 <p05.3319+0x18>
    69d8:	00140493          	addi	s1,s0,1
    69dc:	02b10c23          	sb	a1,56(sp)
    69e0:	914ff0ef          	jal	ra,5af4 <memchr>
    69e4:	c135                	beqz	a0,6a48 <_svfiprintf_r+0x268>
    69e6:	ffffc797          	auipc	a5,0xffffc
    69ea:	8a878793          	addi	a5,a5,-1880 # 228e <_printf_float>
    69ee:	e795                	bnez	a5,6a1a <_svfiprintf_r+0x23a>
    69f0:	5702                	lw	a4,32(sp)
    69f2:	47f2                	lw	a5,28(sp)
    69f4:	10077713          	andi	a4,a4,256
    69f8:	cf09                	beqz	a4,6a12 <_svfiprintf_r+0x232>
    69fa:	0791                	addi	a5,a5,4
    69fc:	ce3e                	sw	a5,28(sp)
    69fe:	57d2                	lw	a5,52(sp)
    6a00:	97d2                	add	a5,a5,s4
    6a02:	da3e                	sw	a5,52(sp)
    6a04:	b5b5                	j	6870 <_svfiprintf_r+0x90>
    6a06:	036787b3          	mul	a5,a5,s6
    6a0a:	4685                	li	a3,1
    6a0c:	842e                	mv	s0,a1
    6a0e:	97ba                	add	a5,a5,a4
    6a10:	bfad                	j	698a <_svfiprintf_r+0x1aa>
    6a12:	079d                	addi	a5,a5,7
    6a14:	9be1                	andi	a5,a5,-8
    6a16:	07a1                	addi	a5,a5,8
    6a18:	b7d5                	j	69fc <_svfiprintf_r+0x21c>
    6a1a:	0878                	addi	a4,sp,28
    6a1c:	00000697          	auipc	a3,0x0
    6a20:	cd668693          	addi	a3,a3,-810 # 66f2 <__ssputs_r>
    6a24:	864a                	mv	a2,s2
    6a26:	100c                	addi	a1,sp,32
    6a28:	854e                	mv	a0,s3
    6a2a:	865fb0ef          	jal	ra,228e <_printf_float>
    6a2e:	57fd                	li	a5,-1
    6a30:	8a2a                	mv	s4,a0
    6a32:	fcf516e3          	bne	a0,a5,69fe <_svfiprintf_r+0x21e>
    6a36:	00c95783          	lhu	a5,12(s2)
    6a3a:	557d                	li	a0,-1
    6a3c:	0407f793          	andi	a5,a5,64
    6a40:	de0795e3          	bnez	a5,682a <_svfiprintf_r+0x4a>
    6a44:	5552                	lw	a0,52(sp)
    6a46:	b3d5                	j	682a <_svfiprintf_r+0x4a>
    6a48:	0878                	addi	a4,sp,28
    6a4a:	00000697          	auipc	a3,0x0
    6a4e:	ca868693          	addi	a3,a3,-856 # 66f2 <__ssputs_r>
    6a52:	864a                	mv	a2,s2
    6a54:	100c                	addi	a1,sp,32
    6a56:	854e                	mv	a0,s3
    6a58:	e03fb0ef          	jal	ra,285a <_printf_i>
    6a5c:	bfc9                	j	6a2e <_svfiprintf_r+0x24e>

00006a5e <__sfputc_r>:
    6a5e:	461c                	lw	a5,8(a2)
    6a60:	17fd                	addi	a5,a5,-1
    6a62:	c61c                	sw	a5,8(a2)
    6a64:	0007da63          	bgez	a5,6a78 <__sfputc_r+0x1a>
    6a68:	4e18                	lw	a4,24(a2)
    6a6a:	00e7c563          	blt	a5,a4,6a74 <__sfputc_r+0x16>
    6a6e:	47a9                	li	a5,10
    6a70:	00f59463          	bne	a1,a5,6a78 <__sfputc_r+0x1a>
    6a74:	cd2fd06f          	j	3f46 <__swbuf_r>
    6a78:	421c                	lw	a5,0(a2)
    6a7a:	852e                	mv	a0,a1
    6a7c:	00178713          	addi	a4,a5,1
    6a80:	c218                	sw	a4,0(a2)
    6a82:	00b78023          	sb	a1,0(a5)
    6a86:	8082                	ret

00006a88 <__sfputs_r>:
    6a88:	1101                	addi	sp,sp,-32
    6a8a:	cc22                	sw	s0,24(sp)
    6a8c:	ca26                	sw	s1,20(sp)
    6a8e:	c84a                	sw	s2,16(sp)
    6a90:	c64e                	sw	s3,12(sp)
    6a92:	c452                	sw	s4,8(sp)
    6a94:	ce06                	sw	ra,28(sp)
    6a96:	892a                	mv	s2,a0
    6a98:	89ae                	mv	s3,a1
    6a9a:	8432                	mv	s0,a2
    6a9c:	00d604b3          	add	s1,a2,a3
    6aa0:	5a7d                	li	s4,-1
    6aa2:	00941463          	bne	s0,s1,6aaa <__sfputs_r+0x22>
    6aa6:	4501                	li	a0,0
    6aa8:	a811                	j	6abc <__sfputs_r+0x34>
    6aaa:	00044583          	lbu	a1,0(s0)
    6aae:	864e                	mv	a2,s3
    6ab0:	854a                	mv	a0,s2
    6ab2:	fadff0ef          	jal	ra,6a5e <__sfputc_r>
    6ab6:	0405                	addi	s0,s0,1
    6ab8:	ff4515e3          	bne	a0,s4,6aa2 <__sfputs_r+0x1a>
    6abc:	40f2                	lw	ra,28(sp)
    6abe:	4462                	lw	s0,24(sp)
    6ac0:	44d2                	lw	s1,20(sp)
    6ac2:	4942                	lw	s2,16(sp)
    6ac4:	49b2                	lw	s3,12(sp)
    6ac6:	4a22                	lw	s4,8(sp)
    6ac8:	6105                	addi	sp,sp,32
    6aca:	8082                	ret

00006acc <_vfiprintf_r>:
    6acc:	7135                	addi	sp,sp,-160
    6ace:	cd22                	sw	s0,152(sp)
    6ad0:	cb26                	sw	s1,148(sp)
    6ad2:	c94a                	sw	s2,144(sp)
    6ad4:	c74e                	sw	s3,140(sp)
    6ad6:	cf06                	sw	ra,156(sp)
    6ad8:	c552                	sw	s4,136(sp)
    6ada:	c356                	sw	s5,132(sp)
    6adc:	c15a                	sw	s6,128(sp)
    6ade:	dede                	sw	s7,124(sp)
    6ae0:	dce2                	sw	s8,120(sp)
    6ae2:	dae6                	sw	s9,116(sp)
    6ae4:	89aa                	mv	s3,a0
    6ae6:	84ae                	mv	s1,a1
    6ae8:	8932                	mv	s2,a2
    6aea:	8436                	mv	s0,a3
    6aec:	c509                	beqz	a0,6af6 <_vfiprintf_r+0x2a>
    6aee:	4d1c                	lw	a5,24(a0)
    6af0:	e399                	bnez	a5,6af6 <_vfiprintf_r+0x2a>
    6af2:	de6fe0ef          	jal	ra,50d8 <__sinit>
    6af6:	00004797          	auipc	a5,0x4
    6afa:	ada78793          	addi	a5,a5,-1318 # a5d0 <__sf_fake_stdin>
    6afe:	0cf49d63          	bne	s1,a5,6bd8 <_vfiprintf_r+0x10c>
    6b02:	0049a483          	lw	s1,4(s3)
    6b06:	00c4d783          	lhu	a5,12(s1)
    6b0a:	8ba1                	andi	a5,a5,8
    6b0c:	cbe5                	beqz	a5,6bfc <_vfiprintf_r+0x130>
    6b0e:	489c                	lw	a5,16(s1)
    6b10:	c7f5                	beqz	a5,6bfc <_vfiprintf_r+0x130>
    6b12:	02000793          	li	a5,32
    6b16:	02f104a3          	sb	a5,41(sp)
    6b1a:	03000793          	li	a5,48
    6b1e:	d202                	sw	zero,36(sp)
    6b20:	02f10523          	sb	a5,42(sp)
    6b24:	c622                	sw	s0,12(sp)
    6b26:	02500b93          	li	s7,37
    6b2a:	00004a97          	auipc	s5,0x4
    6b2e:	bf2a8a93          	addi	s5,s5,-1038 # a71c <p05.3319+0xc>
    6b32:	4c05                	li	s8,1
    6b34:	4b29                	li	s6,10
    6b36:	844a                	mv	s0,s2
    6b38:	00044783          	lbu	a5,0(s0)
    6b3c:	c399                	beqz	a5,6b42 <_vfiprintf_r+0x76>
    6b3e:	0f779263          	bne	a5,s7,6c22 <_vfiprintf_r+0x156>
    6b42:	41240cb3          	sub	s9,s0,s2
    6b46:	000c8e63          	beqz	s9,6b62 <_vfiprintf_r+0x96>
    6b4a:	86e6                	mv	a3,s9
    6b4c:	864a                	mv	a2,s2
    6b4e:	85a6                	mv	a1,s1
    6b50:	854e                	mv	a0,s3
    6b52:	f37ff0ef          	jal	ra,6a88 <__sfputs_r>
    6b56:	57fd                	li	a5,-1
    6b58:	1ef50763          	beq	a0,a5,6d46 <_vfiprintf_r+0x27a>
    6b5c:	5692                	lw	a3,36(sp)
    6b5e:	96e6                	add	a3,a3,s9
    6b60:	d236                	sw	a3,36(sp)
    6b62:	00044783          	lbu	a5,0(s0)
    6b66:	1e078063          	beqz	a5,6d46 <_vfiprintf_r+0x27a>
    6b6a:	57fd                	li	a5,-1
    6b6c:	00140913          	addi	s2,s0,1
    6b70:	c802                	sw	zero,16(sp)
    6b72:	ce02                	sw	zero,28(sp)
    6b74:	ca3e                	sw	a5,20(sp)
    6b76:	cc02                	sw	zero,24(sp)
    6b78:	040109a3          	sb	zero,83(sp)
    6b7c:	d482                	sw	zero,104(sp)
    6b7e:	00094583          	lbu	a1,0(s2)
    6b82:	4615                	li	a2,5
    6b84:	8556                	mv	a0,s5
    6b86:	f6ffe0ef          	jal	ra,5af4 <memchr>
    6b8a:	00190413          	addi	s0,s2,1
    6b8e:	47c2                	lw	a5,16(sp)
    6b90:	e959                	bnez	a0,6c26 <_vfiprintf_r+0x15a>
    6b92:	0107f713          	andi	a4,a5,16
    6b96:	c709                	beqz	a4,6ba0 <_vfiprintf_r+0xd4>
    6b98:	02000713          	li	a4,32
    6b9c:	04e109a3          	sb	a4,83(sp)
    6ba0:	0087f713          	andi	a4,a5,8
    6ba4:	c709                	beqz	a4,6bae <_vfiprintf_r+0xe2>
    6ba6:	02b00713          	li	a4,43
    6baa:	04e109a3          	sb	a4,83(sp)
    6bae:	00094683          	lbu	a3,0(s2)
    6bb2:	02a00713          	li	a4,42
    6bb6:	08e68063          	beq	a3,a4,6c36 <_vfiprintf_r+0x16a>
    6bba:	47f2                	lw	a5,28(sp)
    6bbc:	844a                	mv	s0,s2
    6bbe:	4681                	li	a3,0
    6bc0:	4625                	li	a2,9
    6bc2:	00044703          	lbu	a4,0(s0)
    6bc6:	00140593          	addi	a1,s0,1
    6bca:	fd070713          	addi	a4,a4,-48
    6bce:	0ae67963          	bgeu	a2,a4,6c80 <_vfiprintf_r+0x1b4>
    6bd2:	cab5                	beqz	a3,6c46 <_vfiprintf_r+0x17a>
    6bd4:	ce3e                	sw	a5,28(sp)
    6bd6:	a885                	j	6c46 <_vfiprintf_r+0x17a>
    6bd8:	00004797          	auipc	a5,0x4
    6bdc:	a1878793          	addi	a5,a5,-1512 # a5f0 <__sf_fake_stdout>
    6be0:	00f49563          	bne	s1,a5,6bea <_vfiprintf_r+0x11e>
    6be4:	0089a483          	lw	s1,8(s3)
    6be8:	bf39                	j	6b06 <_vfiprintf_r+0x3a>
    6bea:	00004797          	auipc	a5,0x4
    6bee:	9c678793          	addi	a5,a5,-1594 # a5b0 <__sf_fake_stderr>
    6bf2:	f0f49ae3          	bne	s1,a5,6b06 <_vfiprintf_r+0x3a>
    6bf6:	00c9a483          	lw	s1,12(s3)
    6bfa:	b731                	j	6b06 <_vfiprintf_r+0x3a>
    6bfc:	85a6                	mv	a1,s1
    6bfe:	854e                	mv	a0,s3
    6c00:	c0cfd0ef          	jal	ra,400c <__swsetup_r>
    6c04:	d519                	beqz	a0,6b12 <_vfiprintf_r+0x46>
    6c06:	557d                	li	a0,-1
    6c08:	40fa                	lw	ra,156(sp)
    6c0a:	446a                	lw	s0,152(sp)
    6c0c:	44da                	lw	s1,148(sp)
    6c0e:	494a                	lw	s2,144(sp)
    6c10:	49ba                	lw	s3,140(sp)
    6c12:	4a2a                	lw	s4,136(sp)
    6c14:	4a9a                	lw	s5,132(sp)
    6c16:	4b0a                	lw	s6,128(sp)
    6c18:	5bf6                	lw	s7,124(sp)
    6c1a:	5c66                	lw	s8,120(sp)
    6c1c:	5cd6                	lw	s9,116(sp)
    6c1e:	610d                	addi	sp,sp,160
    6c20:	8082                	ret
    6c22:	0405                	addi	s0,s0,1
    6c24:	bf11                	j	6b38 <_vfiprintf_r+0x6c>
    6c26:	41550533          	sub	a0,a0,s5
    6c2a:	00ac1533          	sll	a0,s8,a0
    6c2e:	8fc9                	or	a5,a5,a0
    6c30:	c83e                	sw	a5,16(sp)
    6c32:	8922                	mv	s2,s0
    6c34:	b7a9                	j	6b7e <_vfiprintf_r+0xb2>
    6c36:	4732                	lw	a4,12(sp)
    6c38:	00470693          	addi	a3,a4,4
    6c3c:	4318                	lw	a4,0(a4)
    6c3e:	c636                	sw	a3,12(sp)
    6c40:	02074963          	bltz	a4,6c72 <_vfiprintf_r+0x1a6>
    6c44:	ce3a                	sw	a4,28(sp)
    6c46:	00044703          	lbu	a4,0(s0)
    6c4a:	02e00793          	li	a5,46
    6c4e:	04f71f63          	bne	a4,a5,6cac <_vfiprintf_r+0x1e0>
    6c52:	00144703          	lbu	a4,1(s0)
    6c56:	02a00793          	li	a5,42
    6c5a:	02f71b63          	bne	a4,a5,6c90 <_vfiprintf_r+0x1c4>
    6c5e:	47b2                	lw	a5,12(sp)
    6c60:	0409                	addi	s0,s0,2
    6c62:	00478713          	addi	a4,a5,4
    6c66:	439c                	lw	a5,0(a5)
    6c68:	c63a                	sw	a4,12(sp)
    6c6a:	0207c163          	bltz	a5,6c8c <_vfiprintf_r+0x1c0>
    6c6e:	ca3e                	sw	a5,20(sp)
    6c70:	a835                	j	6cac <_vfiprintf_r+0x1e0>
    6c72:	40e00733          	neg	a4,a4
    6c76:	0027e793          	ori	a5,a5,2
    6c7a:	ce3a                	sw	a4,28(sp)
    6c7c:	c83e                	sw	a5,16(sp)
    6c7e:	b7e1                	j	6c46 <_vfiprintf_r+0x17a>
    6c80:	036787b3          	mul	a5,a5,s6
    6c84:	4685                	li	a3,1
    6c86:	842e                	mv	s0,a1
    6c88:	97ba                	add	a5,a5,a4
    6c8a:	bf25                	j	6bc2 <_vfiprintf_r+0xf6>
    6c8c:	57fd                	li	a5,-1
    6c8e:	b7c5                	j	6c6e <_vfiprintf_r+0x1a2>
    6c90:	0405                	addi	s0,s0,1
    6c92:	ca02                	sw	zero,20(sp)
    6c94:	4681                	li	a3,0
    6c96:	4781                	li	a5,0
    6c98:	4625                	li	a2,9
    6c9a:	00044703          	lbu	a4,0(s0)
    6c9e:	00140593          	addi	a1,s0,1
    6ca2:	fd070713          	addi	a4,a4,-48
    6ca6:	06e67863          	bgeu	a2,a4,6d16 <_vfiprintf_r+0x24a>
    6caa:	f2f1                	bnez	a3,6c6e <_vfiprintf_r+0x1a2>
    6cac:	00044583          	lbu	a1,0(s0)
    6cb0:	460d                	li	a2,3
    6cb2:	00004517          	auipc	a0,0x4
    6cb6:	a7250513          	addi	a0,a0,-1422 # a724 <p05.3319+0x14>
    6cba:	e3bfe0ef          	jal	ra,5af4 <memchr>
    6cbe:	cd11                	beqz	a0,6cda <_vfiprintf_r+0x20e>
    6cc0:	00004797          	auipc	a5,0x4
    6cc4:	a6478793          	addi	a5,a5,-1436 # a724 <p05.3319+0x14>
    6cc8:	8d1d                	sub	a0,a0,a5
    6cca:	04000793          	li	a5,64
    6cce:	00a797b3          	sll	a5,a5,a0
    6cd2:	4542                	lw	a0,16(sp)
    6cd4:	0405                	addi	s0,s0,1
    6cd6:	8d5d                	or	a0,a0,a5
    6cd8:	c82a                	sw	a0,16(sp)
    6cda:	00044583          	lbu	a1,0(s0)
    6cde:	4619                	li	a2,6
    6ce0:	00004517          	auipc	a0,0x4
    6ce4:	a4850513          	addi	a0,a0,-1464 # a728 <p05.3319+0x18>
    6ce8:	00140913          	addi	s2,s0,1
    6cec:	02b10423          	sb	a1,40(sp)
    6cf0:	e05fe0ef          	jal	ra,5af4 <memchr>
    6cf4:	c12d                	beqz	a0,6d56 <_vfiprintf_r+0x28a>
    6cf6:	ffffb797          	auipc	a5,0xffffb
    6cfa:	59878793          	addi	a5,a5,1432 # 228e <_printf_float>
    6cfe:	e795                	bnez	a5,6d2a <_vfiprintf_r+0x25e>
    6d00:	4742                	lw	a4,16(sp)
    6d02:	47b2                	lw	a5,12(sp)
    6d04:	10077713          	andi	a4,a4,256
    6d08:	cf09                	beqz	a4,6d22 <_vfiprintf_r+0x256>
    6d0a:	0791                	addi	a5,a5,4
    6d0c:	c63e                	sw	a5,12(sp)
    6d0e:	5792                	lw	a5,36(sp)
    6d10:	97d2                	add	a5,a5,s4
    6d12:	d23e                	sw	a5,36(sp)
    6d14:	b50d                	j	6b36 <_vfiprintf_r+0x6a>
    6d16:	036787b3          	mul	a5,a5,s6
    6d1a:	4685                	li	a3,1
    6d1c:	842e                	mv	s0,a1
    6d1e:	97ba                	add	a5,a5,a4
    6d20:	bfad                	j	6c9a <_vfiprintf_r+0x1ce>
    6d22:	079d                	addi	a5,a5,7
    6d24:	9be1                	andi	a5,a5,-8
    6d26:	07a1                	addi	a5,a5,8
    6d28:	b7d5                	j	6d0c <_vfiprintf_r+0x240>
    6d2a:	0078                	addi	a4,sp,12
    6d2c:	00000697          	auipc	a3,0x0
    6d30:	d5c68693          	addi	a3,a3,-676 # 6a88 <__sfputs_r>
    6d34:	8626                	mv	a2,s1
    6d36:	080c                	addi	a1,sp,16
    6d38:	854e                	mv	a0,s3
    6d3a:	d54fb0ef          	jal	ra,228e <_printf_float>
    6d3e:	57fd                	li	a5,-1
    6d40:	8a2a                	mv	s4,a0
    6d42:	fcf516e3          	bne	a0,a5,6d0e <_vfiprintf_r+0x242>
    6d46:	00c4d783          	lhu	a5,12(s1)
    6d4a:	0407f793          	andi	a5,a5,64
    6d4e:	ea079ce3          	bnez	a5,6c06 <_vfiprintf_r+0x13a>
    6d52:	5512                	lw	a0,36(sp)
    6d54:	bd55                	j	6c08 <_vfiprintf_r+0x13c>
    6d56:	0078                	addi	a4,sp,12
    6d58:	00000697          	auipc	a3,0x0
    6d5c:	d3068693          	addi	a3,a3,-720 # 6a88 <__sfputs_r>
    6d60:	8626                	mv	a2,s1
    6d62:	080c                	addi	a1,sp,16
    6d64:	854e                	mv	a0,s3
    6d66:	af5fb0ef          	jal	ra,285a <_printf_i>
    6d6a:	bfd1                	j	6d3e <_vfiprintf_r+0x272>

00006d6c <_sbrk_r>:
    6d6c:	1141                	addi	sp,sp,-16
    6d6e:	c422                	sw	s0,8(sp)
    6d70:	842a                	mv	s0,a0
    6d72:	852e                	mv	a0,a1
    6d74:	d401a023          	sw	zero,-704(gp) # 20000720 <errno>
    6d78:	c606                	sw	ra,12(sp)
    6d7a:	a52fb0ef          	jal	ra,1fcc <_sbrk>
    6d7e:	57fd                	li	a5,-1
    6d80:	00f51763          	bne	a0,a5,6d8e <_sbrk_r+0x22>
    6d84:	d4018793          	addi	a5,gp,-704 # 20000720 <errno>
    6d88:	439c                	lw	a5,0(a5)
    6d8a:	c391                	beqz	a5,6d8e <_sbrk_r+0x22>
    6d8c:	c01c                	sw	a5,0(s0)
    6d8e:	40b2                	lw	ra,12(sp)
    6d90:	4422                	lw	s0,8(sp)
    6d92:	0141                	addi	sp,sp,16
    6d94:	8082                	ret

00006d96 <__sread>:
    6d96:	1141                	addi	sp,sp,-16
    6d98:	c422                	sw	s0,8(sp)
    6d9a:	842e                	mv	s0,a1
    6d9c:	00e59583          	lh	a1,14(a1)
    6da0:	c606                	sw	ra,12(sp)
    6da2:	2cb5                	jal	701e <_read_r>
    6da4:	00054963          	bltz	a0,6db6 <__sread+0x20>
    6da8:	487c                	lw	a5,84(s0)
    6daa:	97aa                	add	a5,a5,a0
    6dac:	c87c                	sw	a5,84(s0)
    6dae:	40b2                	lw	ra,12(sp)
    6db0:	4422                	lw	s0,8(sp)
    6db2:	0141                	addi	sp,sp,16
    6db4:	8082                	ret
    6db6:	00c45783          	lhu	a5,12(s0)
    6dba:	777d                	lui	a4,0xfffff
    6dbc:	177d                	addi	a4,a4,-1
    6dbe:	8ff9                	and	a5,a5,a4
    6dc0:	00f41623          	sh	a5,12(s0)
    6dc4:	b7ed                	j	6dae <__sread+0x18>

00006dc6 <__swrite>:
    6dc6:	00c5d783          	lhu	a5,12(a1)
    6dca:	1101                	addi	sp,sp,-32
    6dcc:	cc22                	sw	s0,24(sp)
    6dce:	ca26                	sw	s1,20(sp)
    6dd0:	c84a                	sw	s2,16(sp)
    6dd2:	c64e                	sw	s3,12(sp)
    6dd4:	ce06                	sw	ra,28(sp)
    6dd6:	1007f793          	andi	a5,a5,256
    6dda:	84aa                	mv	s1,a0
    6ddc:	842e                	mv	s0,a1
    6dde:	8932                	mv	s2,a2
    6de0:	89b6                	mv	s3,a3
    6de2:	c791                	beqz	a5,6dee <__swrite+0x28>
    6de4:	00e59583          	lh	a1,14(a1)
    6de8:	4689                	li	a3,2
    6dea:	4601                	li	a2,0
    6dec:	2ab9                	jal	6f4a <_lseek_r>
    6dee:	00c45783          	lhu	a5,12(s0)
    6df2:	777d                	lui	a4,0xfffff
    6df4:	177d                	addi	a4,a4,-1
    6df6:	8ff9                	and	a5,a5,a4
    6df8:	00f41623          	sh	a5,12(s0)
    6dfc:	00e41583          	lh	a1,14(s0)
    6e00:	4462                	lw	s0,24(sp)
    6e02:	40f2                	lw	ra,28(sp)
    6e04:	86ce                	mv	a3,s3
    6e06:	864a                	mv	a2,s2
    6e08:	49b2                	lw	s3,12(sp)
    6e0a:	4942                	lw	s2,16(sp)
    6e0c:	8526                	mv	a0,s1
    6e0e:	44d2                	lw	s1,20(sp)
    6e10:	6105                	addi	sp,sp,32
    6e12:	a069                	j	6e9c <_write_r>

00006e14 <__sseek>:
    6e14:	1141                	addi	sp,sp,-16
    6e16:	c422                	sw	s0,8(sp)
    6e18:	842e                	mv	s0,a1
    6e1a:	00e59583          	lh	a1,14(a1)
    6e1e:	c606                	sw	ra,12(sp)
    6e20:	222d                	jal	6f4a <_lseek_r>
    6e22:	57fd                	li	a5,-1
    6e24:	00c45703          	lhu	a4,12(s0)
    6e28:	00f51b63          	bne	a0,a5,6e3e <__sseek+0x2a>
    6e2c:	77fd                	lui	a5,0xfffff
    6e2e:	17fd                	addi	a5,a5,-1
    6e30:	8ff9                	and	a5,a5,a4
    6e32:	00f41623          	sh	a5,12(s0)
    6e36:	40b2                	lw	ra,12(sp)
    6e38:	4422                	lw	s0,8(sp)
    6e3a:	0141                	addi	sp,sp,16
    6e3c:	8082                	ret
    6e3e:	6785                	lui	a5,0x1
    6e40:	8fd9                	or	a5,a5,a4
    6e42:	00f41623          	sh	a5,12(s0)
    6e46:	c868                	sw	a0,84(s0)
    6e48:	b7fd                	j	6e36 <__sseek+0x22>

00006e4a <__sclose>:
    6e4a:	00e59583          	lh	a1,14(a1)
    6e4e:	a8b5                	j	6eca <_close_r>

00006e50 <strncmp>:
    6e50:	c605                	beqz	a2,6e78 <strncmp+0x28>
    6e52:	167d                	addi	a2,a2,-1
    6e54:	4701                	li	a4,0
    6e56:	00e507b3          	add	a5,a0,a4
    6e5a:	00e586b3          	add	a3,a1,a4
    6e5e:	0007c783          	lbu	a5,0(a5) # 1000 <u8x8_d_ssd1306_sh1106_generic+0x6a>
    6e62:	0006c683          	lbu	a3,0(a3)
    6e66:	00d79663          	bne	a5,a3,6e72 <strncmp+0x22>
    6e6a:	00c70463          	beq	a4,a2,6e72 <strncmp+0x22>
    6e6e:	0705                	addi	a4,a4,1
    6e70:	f3fd                	bnez	a5,6e56 <strncmp+0x6>
    6e72:	40d78533          	sub	a0,a5,a3
    6e76:	8082                	ret
    6e78:	4501                	li	a0,0
    6e7a:	8082                	ret

00006e7c <__ascii_wctomb>:
    6e7c:	cd91                	beqz	a1,6e98 <__ascii_wctomb+0x1c>
    6e7e:	0ff00793          	li	a5,255
    6e82:	00c7f763          	bgeu	a5,a2,6e90 <__ascii_wctomb+0x14>
    6e86:	08a00793          	li	a5,138
    6e8a:	c11c                	sw	a5,0(a0)
    6e8c:	557d                	li	a0,-1
    6e8e:	8082                	ret
    6e90:	00c58023          	sb	a2,0(a1)
    6e94:	4505                	li	a0,1
    6e96:	8082                	ret
    6e98:	4501                	li	a0,0
    6e9a:	8082                	ret

00006e9c <_write_r>:
    6e9c:	1141                	addi	sp,sp,-16
    6e9e:	c422                	sw	s0,8(sp)
    6ea0:	842a                	mv	s0,a0
    6ea2:	852e                	mv	a0,a1
    6ea4:	85b2                	mv	a1,a2
    6ea6:	8636                	mv	a2,a3
    6ea8:	d401a023          	sw	zero,-704(gp) # 20000720 <errno>
    6eac:	c606                	sw	ra,12(sp)
    6eae:	8d2fb0ef          	jal	ra,1f80 <_write>
    6eb2:	57fd                	li	a5,-1
    6eb4:	00f51763          	bne	a0,a5,6ec2 <_write_r+0x26>
    6eb8:	d4018793          	addi	a5,gp,-704 # 20000720 <errno>
    6ebc:	439c                	lw	a5,0(a5)
    6ebe:	c391                	beqz	a5,6ec2 <_write_r+0x26>
    6ec0:	c01c                	sw	a5,0(s0)
    6ec2:	40b2                	lw	ra,12(sp)
    6ec4:	4422                	lw	s0,8(sp)
    6ec6:	0141                	addi	sp,sp,16
    6ec8:	8082                	ret

00006eca <_close_r>:
    6eca:	1141                	addi	sp,sp,-16
    6ecc:	c422                	sw	s0,8(sp)
    6ece:	842a                	mv	s0,a0
    6ed0:	852e                	mv	a0,a1
    6ed2:	d401a023          	sw	zero,-704(gp) # 20000720 <errno>
    6ed6:	c606                	sw	ra,12(sp)
    6ed8:	336020ef          	jal	ra,920e <_close>
    6edc:	57fd                	li	a5,-1
    6ede:	00f51763          	bne	a0,a5,6eec <_close_r+0x22>
    6ee2:	d4018793          	addi	a5,gp,-704 # 20000720 <errno>
    6ee6:	439c                	lw	a5,0(a5)
    6ee8:	c391                	beqz	a5,6eec <_close_r+0x22>
    6eea:	c01c                	sw	a5,0(s0)
    6eec:	40b2                	lw	ra,12(sp)
    6eee:	4422                	lw	s0,8(sp)
    6ef0:	0141                	addi	sp,sp,16
    6ef2:	8082                	ret

00006ef4 <_fstat_r>:
    6ef4:	1141                	addi	sp,sp,-16
    6ef6:	c422                	sw	s0,8(sp)
    6ef8:	842a                	mv	s0,a0
    6efa:	852e                	mv	a0,a1
    6efc:	85b2                	mv	a1,a2
    6efe:	d401a023          	sw	zero,-704(gp) # 20000720 <errno>
    6f02:	c606                	sw	ra,12(sp)
    6f04:	316020ef          	jal	ra,921a <_fstat>
    6f08:	57fd                	li	a5,-1
    6f0a:	00f51763          	bne	a0,a5,6f18 <_fstat_r+0x24>
    6f0e:	d4018793          	addi	a5,gp,-704 # 20000720 <errno>
    6f12:	439c                	lw	a5,0(a5)
    6f14:	c391                	beqz	a5,6f18 <_fstat_r+0x24>
    6f16:	c01c                	sw	a5,0(s0)
    6f18:	40b2                	lw	ra,12(sp)
    6f1a:	4422                	lw	s0,8(sp)
    6f1c:	0141                	addi	sp,sp,16
    6f1e:	8082                	ret

00006f20 <_isatty_r>:
    6f20:	1141                	addi	sp,sp,-16
    6f22:	c422                	sw	s0,8(sp)
    6f24:	842a                	mv	s0,a0
    6f26:	852e                	mv	a0,a1
    6f28:	d401a023          	sw	zero,-704(gp) # 20000720 <errno>
    6f2c:	c606                	sw	ra,12(sp)
    6f2e:	2f8020ef          	jal	ra,9226 <_isatty>
    6f32:	57fd                	li	a5,-1
    6f34:	00f51763          	bne	a0,a5,6f42 <_isatty_r+0x22>
    6f38:	d4018793          	addi	a5,gp,-704 # 20000720 <errno>
    6f3c:	439c                	lw	a5,0(a5)
    6f3e:	c391                	beqz	a5,6f42 <_isatty_r+0x22>
    6f40:	c01c                	sw	a5,0(s0)
    6f42:	40b2                	lw	ra,12(sp)
    6f44:	4422                	lw	s0,8(sp)
    6f46:	0141                	addi	sp,sp,16
    6f48:	8082                	ret

00006f4a <_lseek_r>:
    6f4a:	1141                	addi	sp,sp,-16
    6f4c:	c422                	sw	s0,8(sp)
    6f4e:	842a                	mv	s0,a0
    6f50:	852e                	mv	a0,a1
    6f52:	85b2                	mv	a1,a2
    6f54:	8636                	mv	a2,a3
    6f56:	d401a023          	sw	zero,-704(gp) # 20000720 <errno>
    6f5a:	c606                	sw	ra,12(sp)
    6f5c:	2d6020ef          	jal	ra,9232 <_lseek>
    6f60:	57fd                	li	a5,-1
    6f62:	00f51763          	bne	a0,a5,6f70 <_lseek_r+0x26>
    6f66:	d4018793          	addi	a5,gp,-704 # 20000720 <errno>
    6f6a:	439c                	lw	a5,0(a5)
    6f6c:	c391                	beqz	a5,6f70 <_lseek_r+0x26>
    6f6e:	c01c                	sw	a5,0(s0)
    6f70:	40b2                	lw	ra,12(sp)
    6f72:	4422                	lw	s0,8(sp)
    6f74:	0141                	addi	sp,sp,16
    6f76:	8082                	ret

00006f78 <memmove>:
    6f78:	04a5f363          	bgeu	a1,a0,6fbe <memmove+0x46>
    6f7c:	00c586b3          	add	a3,a1,a2
    6f80:	02d57f63          	bgeu	a0,a3,6fbe <memmove+0x46>
    6f84:	fff64593          	not	a1,a2
    6f88:	4781                	li	a5,0
    6f8a:	17fd                	addi	a5,a5,-1
    6f8c:	00f59363          	bne	a1,a5,6f92 <memmove+0x1a>
    6f90:	8082                	ret
    6f92:	00f68733          	add	a4,a3,a5
    6f96:	00074803          	lbu	a6,0(a4) # fffff000 <_eusrstack+0xdfff7000>
    6f9a:	00c78733          	add	a4,a5,a2
    6f9e:	972a                	add	a4,a4,a0
    6fa0:	01070023          	sb	a6,0(a4)
    6fa4:	b7dd                	j	6f8a <memmove+0x12>
    6fa6:	00f58733          	add	a4,a1,a5
    6faa:	00074683          	lbu	a3,0(a4)
    6fae:	00f50733          	add	a4,a0,a5
    6fb2:	0785                	addi	a5,a5,1
    6fb4:	00d70023          	sb	a3,0(a4)
    6fb8:	fef617e3          	bne	a2,a5,6fa6 <memmove+0x2e>
    6fbc:	8082                	ret
    6fbe:	4781                	li	a5,0
    6fc0:	bfe5                	j	6fb8 <memmove+0x40>

00006fc2 <__malloc_lock>:
    6fc2:	8082                	ret

00006fc4 <__malloc_unlock>:
    6fc4:	8082                	ret

00006fc6 <_realloc_r>:
    6fc6:	e581                	bnez	a1,6fce <_realloc_r+0x8>
    6fc8:	85b2                	mv	a1,a2
    6fca:	e54ff06f          	j	661e <_malloc_r>
    6fce:	1101                	addi	sp,sp,-32
    6fd0:	cc22                	sw	s0,24(sp)
    6fd2:	ce06                	sw	ra,28(sp)
    6fd4:	ca26                	sw	s1,20(sp)
    6fd6:	c84a                	sw	s2,16(sp)
    6fd8:	c64e                	sw	s3,12(sp)
    6fda:	8432                	mv	s0,a2
    6fdc:	ee01                	bnez	a2,6ff4 <_realloc_r+0x2e>
    6fde:	d98ff0ef          	jal	ra,6576 <_free_r>
    6fe2:	4901                	li	s2,0
    6fe4:	40f2                	lw	ra,28(sp)
    6fe6:	4462                	lw	s0,24(sp)
    6fe8:	854a                	mv	a0,s2
    6fea:	44d2                	lw	s1,20(sp)
    6fec:	4942                	lw	s2,16(sp)
    6fee:	49b2                	lw	s3,12(sp)
    6ff0:	6105                	addi	sp,sp,32
    6ff2:	8082                	ret
    6ff4:	84ae                	mv	s1,a1
    6ff6:	89aa                	mv	s3,a0
    6ff8:	2891                	jal	704c <_malloc_usable_size_r>
    6ffa:	8926                	mv	s2,s1
    6ffc:	fe8574e3          	bgeu	a0,s0,6fe4 <_realloc_r+0x1e>
    7000:	85a2                	mv	a1,s0
    7002:	854e                	mv	a0,s3
    7004:	e1aff0ef          	jal	ra,661e <_malloc_r>
    7008:	892a                	mv	s2,a0
    700a:	dd69                	beqz	a0,6fe4 <_realloc_r+0x1e>
    700c:	85a6                	mv	a1,s1
    700e:	8622                	mv	a2,s0
    7010:	afffe0ef          	jal	ra,5b0e <memcpy>
    7014:	85a6                	mv	a1,s1
    7016:	854e                	mv	a0,s3
    7018:	d5eff0ef          	jal	ra,6576 <_free_r>
    701c:	b7e1                	j	6fe4 <_realloc_r+0x1e>

0000701e <_read_r>:
    701e:	1141                	addi	sp,sp,-16
    7020:	c422                	sw	s0,8(sp)
    7022:	842a                	mv	s0,a0
    7024:	852e                	mv	a0,a1
    7026:	85b2                	mv	a1,a2
    7028:	8636                	mv	a2,a3
    702a:	d401a023          	sw	zero,-704(gp) # 20000720 <errno>
    702e:	c606                	sw	ra,12(sp)
    7030:	20e020ef          	jal	ra,923e <_read>
    7034:	57fd                	li	a5,-1
    7036:	00f51763          	bne	a0,a5,7044 <_read_r+0x26>
    703a:	d4018793          	addi	a5,gp,-704 # 20000720 <errno>
    703e:	439c                	lw	a5,0(a5)
    7040:	c391                	beqz	a5,7044 <_read_r+0x26>
    7042:	c01c                	sw	a5,0(s0)
    7044:	40b2                	lw	ra,12(sp)
    7046:	4422                	lw	s0,8(sp)
    7048:	0141                	addi	sp,sp,16
    704a:	8082                	ret

0000704c <_malloc_usable_size_r>:
    704c:	ffc5a783          	lw	a5,-4(a1)
    7050:	ffc78513          	addi	a0,a5,-4
    7054:	0007d563          	bgez	a5,705e <_malloc_usable_size_r+0x12>
    7058:	95aa                	add	a1,a1,a0
    705a:	419c                	lw	a5,0(a1)
    705c:	953e                	add	a0,a0,a5
    705e:	8082                	ret

00007060 <__adddf3>:
    7060:	00100837          	lui	a6,0x100
    7064:	1101                	addi	sp,sp,-32
    7066:	187d                	addi	a6,a6,-1
    7068:	00b87733          	and	a4,a6,a1
    706c:	ca26                	sw	s1,20(sp)
    706e:	00d87833          	and	a6,a6,a3
    7072:	0145d493          	srli	s1,a1,0x14
    7076:	0146d313          	srli	t1,a3,0x14
    707a:	00371e13          	slli	t3,a4,0x3
    707e:	c64e                	sw	s3,12(sp)
    7080:	01d55713          	srli	a4,a0,0x1d
    7084:	080e                	slli	a6,a6,0x3
    7086:	01d65793          	srli	a5,a2,0x1d
    708a:	7ff4f493          	andi	s1,s1,2047
    708e:	7ff37313          	andi	t1,t1,2047
    7092:	ce06                	sw	ra,28(sp)
    7094:	cc22                	sw	s0,24(sp)
    7096:	c84a                	sw	s2,16(sp)
    7098:	01f5d993          	srli	s3,a1,0x1f
    709c:	01f6de93          	srli	t4,a3,0x1f
    70a0:	01c76733          	or	a4,a4,t3
    70a4:	00351f13          	slli	t5,a0,0x3
    70a8:	0107e833          	or	a6,a5,a6
    70ac:	00361f93          	slli	t6,a2,0x3
    70b0:	40648e33          	sub	t3,s1,t1
    70b4:	19d98063          	beq	s3,t4,7234 <__adddf3+0x1d4>
    70b8:	13c05663          	blez	t3,71e4 <__adddf3+0x184>
    70bc:	1c030463          	beqz	t1,7284 <__adddf3+0x224>
    70c0:	008006b7          	lui	a3,0x800
    70c4:	7ff00793          	li	a5,2047
    70c8:	00d86833          	or	a6,a6,a3
    70cc:	36f48f63          	beq	s1,a5,744a <__adddf3+0x3ea>
    70d0:	03800793          	li	a5,56
    70d4:	35c7c063          	blt	a5,t3,7414 <__adddf3+0x3b4>
    70d8:	47fd                	li	a5,31
    70da:	47c7cd63          	blt	a5,t3,7554 <__adddf3+0x4f4>
    70de:	02000513          	li	a0,32
    70e2:	41c50533          	sub	a0,a0,t3
    70e6:	01cfd7b3          	srl	a5,t6,t3
    70ea:	00a816b3          	sll	a3,a6,a0
    70ee:	00af9933          	sll	s2,t6,a0
    70f2:	8edd                	or	a3,a3,a5
    70f4:	01203933          	snez	s2,s2
    70f8:	01c857b3          	srl	a5,a6,t3
    70fc:	0126e933          	or	s2,a3,s2
    7100:	8f1d                	sub	a4,a4,a5
    7102:	412f0933          	sub	s2,t5,s2
    7106:	012f37b3          	sltu	a5,t5,s2
    710a:	40f70633          	sub	a2,a4,a5
    710e:	00861793          	slli	a5,a2,0x8
    7112:	2407d463          	bgez	a5,735a <__adddf3+0x2fa>
    7116:	00800737          	lui	a4,0x800
    711a:	177d                	addi	a4,a4,-1
    711c:	00e67433          	and	s0,a2,a4
    7120:	2c040c63          	beqz	s0,73f8 <__adddf3+0x398>
    7124:	8522                	mv	a0,s0
    7126:	f79fa0ef          	jal	ra,209e <__clzsi2>
    712a:	ff850713          	addi	a4,a0,-8
    712e:	02000793          	li	a5,32
    7132:	8f99                	sub	a5,a5,a4
    7134:	00f957b3          	srl	a5,s2,a5
    7138:	00e41633          	sll	a2,s0,a4
    713c:	8fd1                	or	a5,a5,a2
    713e:	00e91933          	sll	s2,s2,a4
    7142:	2a974163          	blt	a4,s1,73e4 <__adddf3+0x384>
    7146:	40970533          	sub	a0,a4,s1
    714a:	00150613          	addi	a2,a0,1
    714e:	477d                	li	a4,31
    7150:	38c74d63          	blt	a4,a2,74ea <__adddf3+0x48a>
    7154:	02000713          	li	a4,32
    7158:	8f11                	sub	a4,a4,a2
    715a:	00c956b3          	srl	a3,s2,a2
    715e:	00e91933          	sll	s2,s2,a4
    7162:	00e79733          	sll	a4,a5,a4
    7166:	8f55                	or	a4,a4,a3
    7168:	01203933          	snez	s2,s2
    716c:	01276933          	or	s2,a4,s2
    7170:	00c7d633          	srl	a2,a5,a2
    7174:	4481                	li	s1,0
    7176:	00797793          	andi	a5,s2,7
    717a:	cf81                	beqz	a5,7192 <__adddf3+0x132>
    717c:	00f97713          	andi	a4,s2,15
    7180:	4791                	li	a5,4
    7182:	00f70863          	beq	a4,a5,7192 <__adddf3+0x132>
    7186:	00490713          	addi	a4,s2,4
    718a:	01273933          	sltu	s2,a4,s2
    718e:	964a                	add	a2,a2,s2
    7190:	893a                	mv	s2,a4
    7192:	00861793          	slli	a5,a2,0x8
    7196:	1c07d663          	bgez	a5,7362 <__adddf3+0x302>
    719a:	00148513          	addi	a0,s1,1
    719e:	7ff00793          	li	a5,2047
    71a2:	85ce                	mv	a1,s3
    71a4:	20f50463          	beq	a0,a5,73ac <__adddf3+0x34c>
    71a8:	ff8007b7          	lui	a5,0xff800
    71ac:	17fd                	addi	a5,a5,-1
    71ae:	8ff1                	and	a5,a5,a2
    71b0:	01d79893          	slli	a7,a5,0x1d
    71b4:	00395913          	srli	s2,s2,0x3
    71b8:	07a6                	slli	a5,a5,0x9
    71ba:	0128e8b3          	or	a7,a7,s2
    71be:	83b1                	srli	a5,a5,0xc
    71c0:	7ff57513          	andi	a0,a0,2047
    71c4:	00c79693          	slli	a3,a5,0xc
    71c8:	0552                	slli	a0,a0,0x14
    71ca:	40f2                	lw	ra,28(sp)
    71cc:	4462                	lw	s0,24(sp)
    71ce:	82b1                	srli	a3,a3,0xc
    71d0:	05fe                	slli	a1,a1,0x1f
    71d2:	8ec9                	or	a3,a3,a0
    71d4:	8ecd                	or	a3,a3,a1
    71d6:	44d2                	lw	s1,20(sp)
    71d8:	4942                	lw	s2,16(sp)
    71da:	49b2                	lw	s3,12(sp)
    71dc:	8546                	mv	a0,a7
    71de:	85b6                	mv	a1,a3
    71e0:	6105                	addi	sp,sp,32
    71e2:	8082                	ret
    71e4:	0a0e1e63          	bnez	t3,72a0 <__adddf3+0x240>
    71e8:	00148313          	addi	t1,s1,1
    71ec:	7fe37313          	andi	t1,t1,2046
    71f0:	22031763          	bnez	t1,741e <__adddf3+0x3be>
    71f4:	01e767b3          	or	a5,a4,t5
    71f8:	01f868b3          	or	a7,a6,t6
    71fc:	1a049d63          	bnez	s1,73b6 <__adddf3+0x356>
    7200:	40078763          	beqz	a5,760e <__adddf3+0x5ae>
    7204:	44088663          	beqz	a7,7650 <__adddf3+0x5f0>
    7208:	41ff0933          	sub	s2,t5,t6
    720c:	410707b3          	sub	a5,a4,a6
    7210:	012f3633          	sltu	a2,t5,s2
    7214:	40c78633          	sub	a2,a5,a2
    7218:	00861793          	slli	a5,a2,0x8
    721c:	4c07d663          	bgez	a5,76e8 <__adddf3+0x688>
    7220:	41ef8933          	sub	s2,t6,t5
    7224:	40e807b3          	sub	a5,a6,a4
    7228:	012fb633          	sltu	a2,t6,s2
    722c:	40c78633          	sub	a2,a5,a2
    7230:	89f6                	mv	s3,t4
    7232:	b791                	j	7176 <__adddf3+0x116>
    7234:	0fc05063          	blez	t3,7314 <__adddf3+0x2b4>
    7238:	0c030063          	beqz	t1,72f8 <__adddf3+0x298>
    723c:	008006b7          	lui	a3,0x800
    7240:	7ff00793          	li	a5,2047
    7244:	00d86833          	or	a6,a6,a3
    7248:	3af48a63          	beq	s1,a5,75fc <__adddf3+0x59c>
    724c:	03800793          	li	a5,56
    7250:	13c7cb63          	blt	a5,t3,7386 <__adddf3+0x326>
    7254:	47fd                	li	a5,31
    7256:	35c7df63          	bge	a5,t3,75b4 <__adddf3+0x554>
    725a:	fe0e0913          	addi	s2,t3,-32
    725e:	02000793          	li	a5,32
    7262:	012856b3          	srl	a3,a6,s2
    7266:	00fe0a63          	beq	t3,a5,727a <__adddf3+0x21a>
    726a:	04000913          	li	s2,64
    726e:	41c90933          	sub	s2,s2,t3
    7272:	01281933          	sll	s2,a6,s2
    7276:	012fefb3          	or	t6,t6,s2
    727a:	01f03933          	snez	s2,t6
    727e:	00d96933          	or	s2,s2,a3
    7282:	a231                	j	738e <__adddf3+0x32e>
    7284:	01f867b3          	or	a5,a6,t6
    7288:	1c078a63          	beqz	a5,745c <__adddf3+0x3fc>
    728c:	fffe0793          	addi	a5,t3,-1
    7290:	38078c63          	beqz	a5,7628 <__adddf3+0x5c8>
    7294:	7ff00693          	li	a3,2047
    7298:	1ade0963          	beq	t3,a3,744a <__adddf3+0x3ea>
    729c:	8e3e                	mv	t3,a5
    729e:	bd0d                	j	70d0 <__adddf3+0x70>
    72a0:	409305b3          	sub	a1,t1,s1
    72a4:	22049163          	bnez	s1,74c6 <__adddf3+0x466>
    72a8:	01e767b3          	or	a5,a4,t5
    72ac:	32078763          	beqz	a5,75da <__adddf3+0x57a>
    72b0:	fff58793          	addi	a5,a1,-1
    72b4:	44078163          	beqz	a5,76f6 <__adddf3+0x696>
    72b8:	7ff00693          	li	a3,2047
    72bc:	20d58c63          	beq	a1,a3,74d4 <__adddf3+0x474>
    72c0:	85be                	mv	a1,a5
    72c2:	03800793          	li	a5,56
    72c6:	2ab7cc63          	blt	a5,a1,757e <__adddf3+0x51e>
    72ca:	47fd                	li	a5,31
    72cc:	3cb7cf63          	blt	a5,a1,76aa <__adddf3+0x64a>
    72d0:	02000793          	li	a5,32
    72d4:	8f8d                	sub	a5,a5,a1
    72d6:	00f71933          	sll	s2,a4,a5
    72da:	00bf56b3          	srl	a3,t5,a1
    72de:	00ff17b3          	sll	a5,t5,a5
    72e2:	00d96933          	or	s2,s2,a3
    72e6:	00f037b3          	snez	a5,a5
    72ea:	00b75733          	srl	a4,a4,a1
    72ee:	00f96933          	or	s2,s2,a5
    72f2:	40e80833          	sub	a6,a6,a4
    72f6:	ac41                	j	7586 <__adddf3+0x526>
    72f8:	01f867b3          	or	a5,a6,t6
    72fc:	34078063          	beqz	a5,763c <__adddf3+0x5dc>
    7300:	fffe0793          	addi	a5,t3,-1
    7304:	20078a63          	beqz	a5,7518 <__adddf3+0x4b8>
    7308:	7ff00693          	li	a3,2047
    730c:	2ede0863          	beq	t3,a3,75fc <__adddf3+0x59c>
    7310:	8e3e                	mv	t3,a5
    7312:	bf2d                	j	724c <__adddf3+0x1ec>
    7314:	140e1e63          	bnez	t3,7470 <__adddf3+0x410>
    7318:	00148693          	addi	a3,s1,1
    731c:	7fe6f793          	andi	a5,a3,2046
    7320:	34079163          	bnez	a5,7662 <__adddf3+0x602>
    7324:	01e767b3          	or	a5,a4,t5
    7328:	2c049563          	bnez	s1,75f2 <__adddf3+0x592>
    732c:	3e078063          	beqz	a5,770c <__adddf3+0x6ac>
    7330:	01f867b3          	or	a5,a6,t6
    7334:	30078e63          	beqz	a5,7650 <__adddf3+0x5f0>
    7338:	01ff0933          	add	s2,t5,t6
    733c:	010707b3          	add	a5,a4,a6
    7340:	01e93f33          	sltu	t5,s2,t5
    7344:	01e78633          	add	a2,a5,t5
    7348:	00861793          	slli	a5,a2,0x8
    734c:	0007d763          	bgez	a5,735a <__adddf3+0x2fa>
    7350:	ff8007b7          	lui	a5,0xff800
    7354:	17fd                	addi	a5,a5,-1
    7356:	8e7d                	and	a2,a2,a5
    7358:	4485                	li	s1,1
    735a:	00797793          	andi	a5,s2,7
    735e:	e0079fe3          	bnez	a5,717c <__adddf3+0x11c>
    7362:	01d61793          	slli	a5,a2,0x1d
    7366:	00395893          	srli	a7,s2,0x3
    736a:	00f8e8b3          	or	a7,a7,a5
    736e:	00365793          	srli	a5,a2,0x3
    7372:	7ff00713          	li	a4,2047
    7376:	04e48d63          	beq	s1,a4,73d0 <__adddf3+0x370>
    737a:	07b2                	slli	a5,a5,0xc
    737c:	83b1                	srli	a5,a5,0xc
    737e:	7ff4f513          	andi	a0,s1,2047
    7382:	85ce                	mv	a1,s3
    7384:	b581                	j	71c4 <__adddf3+0x164>
    7386:	01f86933          	or	s2,a6,t6
    738a:	01203933          	snez	s2,s2
    738e:	997a                	add	s2,s2,t5
    7390:	01e937b3          	sltu	a5,s2,t5
    7394:	00e78633          	add	a2,a5,a4
    7398:	00861793          	slli	a5,a2,0x8
    739c:	fa07dfe3          	bgez	a5,735a <__adddf3+0x2fa>
    73a0:	0485                	addi	s1,s1,1
    73a2:	7ff00793          	li	a5,2047
    73a6:	18f49663          	bne	s1,a5,7532 <__adddf3+0x4d2>
    73aa:	85ce                	mv	a1,s3
    73ac:	7ff00513          	li	a0,2047
    73b0:	4781                	li	a5,0
    73b2:	4881                	li	a7,0
    73b4:	bd01                	j	71c4 <__adddf3+0x164>
    73b6:	ebc1                	bnez	a5,7446 <__adddf3+0x3e6>
    73b8:	3a088463          	beqz	a7,7760 <__adddf3+0x700>
    73bc:	00361693          	slli	a3,a2,0x3
    73c0:	01d81793          	slli	a5,a6,0x1d
    73c4:	828d                	srli	a3,a3,0x3
    73c6:	00d7e8b3          	or	a7,a5,a3
    73ca:	89f6                	mv	s3,t4
    73cc:	00385793          	srli	a5,a6,0x3
    73d0:	00f8e7b3          	or	a5,a7,a5
    73d4:	dbf9                	beqz	a5,73aa <__adddf3+0x34a>
    73d6:	4581                	li	a1,0
    73d8:	7ff00513          	li	a0,2047
    73dc:	000807b7          	lui	a5,0x80
    73e0:	4881                	li	a7,0
    73e2:	b3cd                	j	71c4 <__adddf3+0x164>
    73e4:	ff800637          	lui	a2,0xff800
    73e8:	167d                	addi	a2,a2,-1
    73ea:	8e7d                	and	a2,a2,a5
    73ec:	00797793          	andi	a5,s2,7
    73f0:	8c99                	sub	s1,s1,a4
    73f2:	d80795e3          	bnez	a5,717c <__adddf3+0x11c>
    73f6:	b7b5                	j	7362 <__adddf3+0x302>
    73f8:	854a                	mv	a0,s2
    73fa:	ca5fa0ef          	jal	ra,209e <__clzsi2>
    73fe:	01850713          	addi	a4,a0,24
    7402:	47fd                	li	a5,31
    7404:	d2e7d5e3          	bge	a5,a4,712e <__adddf3+0xce>
    7408:	ff850613          	addi	a2,a0,-8
    740c:	00c917b3          	sll	a5,s2,a2
    7410:	4901                	li	s2,0
    7412:	bb05                	j	7142 <__adddf3+0xe2>
    7414:	01f86933          	or	s2,a6,t6
    7418:	01203933          	snez	s2,s2
    741c:	b1dd                	j	7102 <__adddf3+0xa2>
    741e:	41ff0933          	sub	s2,t5,t6
    7422:	41070633          	sub	a2,a4,a6
    7426:	012f3433          	sltu	s0,t5,s2
    742a:	40860433          	sub	s0,a2,s0
    742e:	00841793          	slli	a5,s0,0x8
    7432:	2407cd63          	bltz	a5,768c <__adddf3+0x62c>
    7436:	008968b3          	or	a7,s2,s0
    743a:	ce0893e3          	bnez	a7,7120 <__adddf3+0xc0>
    743e:	4781                	li	a5,0
    7440:	4981                	li	s3,0
    7442:	4481                	li	s1,0
    7444:	bf1d                	j	737a <__adddf3+0x31a>
    7446:	f80898e3          	bnez	a7,73d6 <__adddf3+0x376>
    744a:	050e                	slli	a0,a0,0x3
    744c:	01d71793          	slli	a5,a4,0x1d
    7450:	810d                	srli	a0,a0,0x3
    7452:	00a7e8b3          	or	a7,a5,a0
    7456:	00375793          	srli	a5,a4,0x3
    745a:	bf9d                	j	73d0 <__adddf3+0x370>
    745c:	050e                	slli	a0,a0,0x3
    745e:	01d71793          	slli	a5,a4,0x1d
    7462:	810d                	srli	a0,a0,0x3
    7464:	00a7e8b3          	or	a7,a5,a0
    7468:	84f2                	mv	s1,t3
    746a:	00375793          	srli	a5,a4,0x3
    746e:	b711                	j	7372 <__adddf3+0x312>
    7470:	40930533          	sub	a0,t1,s1
    7474:	12048263          	beqz	s1,7598 <__adddf3+0x538>
    7478:	008006b7          	lui	a3,0x800
    747c:	7ff00793          	li	a5,2047
    7480:	8f55                	or	a4,a4,a3
    7482:	2ef30d63          	beq	t1,a5,777c <__adddf3+0x71c>
    7486:	03800793          	li	a5,56
    748a:	20a7cb63          	blt	a5,a0,76a0 <__adddf3+0x640>
    748e:	47fd                	li	a5,31
    7490:	2aa7c363          	blt	a5,a0,7736 <__adddf3+0x6d6>
    7494:	02000793          	li	a5,32
    7498:	8f89                	sub	a5,a5,a0
    749a:	00f71933          	sll	s2,a4,a5
    749e:	00af56b3          	srl	a3,t5,a0
    74a2:	00ff17b3          	sll	a5,t5,a5
    74a6:	00d96933          	or	s2,s2,a3
    74aa:	00f037b3          	snez	a5,a5
    74ae:	00a75733          	srl	a4,a4,a0
    74b2:	00f96933          	or	s2,s2,a5
    74b6:	983a                	add	a6,a6,a4
    74b8:	997e                	add	s2,s2,t6
    74ba:	01f937b3          	sltu	a5,s2,t6
    74be:	01078633          	add	a2,a5,a6
    74c2:	849a                	mv	s1,t1
    74c4:	bdd1                	j	7398 <__adddf3+0x338>
    74c6:	008006b7          	lui	a3,0x800
    74ca:	7ff00793          	li	a5,2047
    74ce:	8f55                	or	a4,a4,a3
    74d0:	def319e3          	bne	t1,a5,72c2 <__adddf3+0x262>
    74d4:	00361793          	slli	a5,a2,0x3
    74d8:	838d                	srli	a5,a5,0x3
    74da:	01d81893          	slli	a7,a6,0x1d
    74de:	0117e8b3          	or	a7,a5,a7
    74e2:	89f6                	mv	s3,t4
    74e4:	00385793          	srli	a5,a6,0x3
    74e8:	b5e5                	j	73d0 <__adddf3+0x370>
    74ea:	fe150713          	addi	a4,a0,-31
    74ee:	02000693          	li	a3,32
    74f2:	00e7d733          	srl	a4,a5,a4
    74f6:	00d60a63          	beq	a2,a3,750a <__adddf3+0x4aa>
    74fa:	04000693          	li	a3,64
    74fe:	40c68633          	sub	a2,a3,a2
    7502:	00c79633          	sll	a2,a5,a2
    7506:	00c96933          	or	s2,s2,a2
    750a:	01203933          	snez	s2,s2
    750e:	00e96933          	or	s2,s2,a4
    7512:	4601                	li	a2,0
    7514:	4481                	li	s1,0
    7516:	b591                	j	735a <__adddf3+0x2fa>
    7518:	01ff0933          	add	s2,t5,t6
    751c:	010707b3          	add	a5,a4,a6
    7520:	01e93633          	sltu	a2,s2,t5
    7524:	963e                	add	a2,a2,a5
    7526:	00861793          	slli	a5,a2,0x8
    752a:	4485                	li	s1,1
    752c:	e207d7e3          	bgez	a5,735a <__adddf3+0x2fa>
    7530:	4489                	li	s1,2
    7532:	ff8007b7          	lui	a5,0xff800
    7536:	17fd                	addi	a5,a5,-1
    7538:	8ff1                	and	a5,a5,a2
    753a:	00195713          	srli	a4,s2,0x1
    753e:	00197913          	andi	s2,s2,1
    7542:	01276933          	or	s2,a4,s2
    7546:	01f79893          	slli	a7,a5,0x1f
    754a:	0128e933          	or	s2,a7,s2
    754e:	0017d613          	srli	a2,a5,0x1
    7552:	b115                	j	7176 <__adddf3+0x116>
    7554:	fe0e0913          	addi	s2,t3,-32
    7558:	02000793          	li	a5,32
    755c:	012856b3          	srl	a3,a6,s2
    7560:	00fe0a63          	beq	t3,a5,7574 <__adddf3+0x514>
    7564:	04000913          	li	s2,64
    7568:	41c90933          	sub	s2,s2,t3
    756c:	01281933          	sll	s2,a6,s2
    7570:	012fefb3          	or	t6,t6,s2
    7574:	01f03933          	snez	s2,t6
    7578:	00d96933          	or	s2,s2,a3
    757c:	b659                	j	7102 <__adddf3+0xa2>
    757e:	01e76933          	or	s2,a4,t5
    7582:	01203933          	snez	s2,s2
    7586:	412f8933          	sub	s2,t6,s2
    758a:	012fb7b3          	sltu	a5,t6,s2
    758e:	40f80633          	sub	a2,a6,a5
    7592:	849a                	mv	s1,t1
    7594:	89f6                	mv	s3,t4
    7596:	bea5                	j	710e <__adddf3+0xae>
    7598:	01e767b3          	or	a5,a4,t5
    759c:	18078263          	beqz	a5,7720 <__adddf3+0x6c0>
    75a0:	fff50793          	addi	a5,a0,-1
    75a4:	1c078463          	beqz	a5,776c <__adddf3+0x70c>
    75a8:	7ff00693          	li	a3,2047
    75ac:	12d50463          	beq	a0,a3,76d4 <__adddf3+0x674>
    75b0:	853e                	mv	a0,a5
    75b2:	bdd1                	j	7486 <__adddf3+0x426>
    75b4:	02000793          	li	a5,32
    75b8:	41c787b3          	sub	a5,a5,t3
    75bc:	00f816b3          	sll	a3,a6,a5
    75c0:	00ff9933          	sll	s2,t6,a5
    75c4:	01cfd633          	srl	a2,t6,t3
    75c8:	8ed1                	or	a3,a3,a2
    75ca:	01203933          	snez	s2,s2
    75ce:	01c857b3          	srl	a5,a6,t3
    75d2:	0126e933          	or	s2,a3,s2
    75d6:	973e                	add	a4,a4,a5
    75d8:	bb5d                	j	738e <__adddf3+0x32e>
    75da:	00361793          	slli	a5,a2,0x3
    75de:	838d                	srli	a5,a5,0x3
    75e0:	01d81893          	slli	a7,a6,0x1d
    75e4:	0117e8b3          	or	a7,a5,a7
    75e8:	84ae                	mv	s1,a1
    75ea:	00385793          	srli	a5,a6,0x3
    75ee:	89f6                	mv	s3,t4
    75f0:	b349                	j	7372 <__adddf3+0x312>
    75f2:	c3ed                	beqz	a5,76d4 <__adddf3+0x674>
    75f4:	01f86933          	or	s2,a6,t6
    75f8:	dc091fe3          	bnez	s2,73d6 <__adddf3+0x376>
    75fc:	050e                	slli	a0,a0,0x3
    75fe:	01d71793          	slli	a5,a4,0x1d
    7602:	810d                	srli	a0,a0,0x3
    7604:	00f568b3          	or	a7,a0,a5
    7608:	00375793          	srli	a5,a4,0x3
    760c:	b3d1                	j	73d0 <__adddf3+0x370>
    760e:	0e088163          	beqz	a7,76f0 <__adddf3+0x690>
    7612:	00361693          	slli	a3,a2,0x3
    7616:	01d81793          	slli	a5,a6,0x1d
    761a:	828d                	srli	a3,a3,0x3
    761c:	00d7e8b3          	or	a7,a5,a3
    7620:	89f6                	mv	s3,t4
    7622:	00385793          	srli	a5,a6,0x3
    7626:	bb91                	j	737a <__adddf3+0x31a>
    7628:	41ff0933          	sub	s2,t5,t6
    762c:	410707b3          	sub	a5,a4,a6
    7630:	012f3f33          	sltu	t5,t5,s2
    7634:	41e78633          	sub	a2,a5,t5
    7638:	4485                	li	s1,1
    763a:	bcd1                	j	710e <__adddf3+0xae>
    763c:	050e                	slli	a0,a0,0x3
    763e:	01d71793          	slli	a5,a4,0x1d
    7642:	810d                	srli	a0,a0,0x3
    7644:	00f568b3          	or	a7,a0,a5
    7648:	84f2                	mv	s1,t3
    764a:	00375793          	srli	a5,a4,0x3
    764e:	b315                	j	7372 <__adddf3+0x312>
    7650:	050e                	slli	a0,a0,0x3
    7652:	01d71793          	slli	a5,a4,0x1d
    7656:	810d                	srli	a0,a0,0x3
    7658:	00a7e8b3          	or	a7,a5,a0
    765c:	00375793          	srli	a5,a4,0x3
    7660:	bb29                	j	737a <__adddf3+0x31a>
    7662:	7ff00793          	li	a5,2047
    7666:	d4f682e3          	beq	a3,a5,73aa <__adddf3+0x34a>
    766a:	01ff0933          	add	s2,t5,t6
    766e:	01e93633          	sltu	a2,s2,t5
    7672:	010707b3          	add	a5,a4,a6
    7676:	97b2                	add	a5,a5,a2
    7678:	01f79893          	slli	a7,a5,0x1f
    767c:	00195913          	srli	s2,s2,0x1
    7680:	0128e933          	or	s2,a7,s2
    7684:	0017d613          	srli	a2,a5,0x1
    7688:	84b6                	mv	s1,a3
    768a:	b9c1                	j	735a <__adddf3+0x2fa>
    768c:	41ef8933          	sub	s2,t6,t5
    7690:	40e80733          	sub	a4,a6,a4
    7694:	012fb633          	sltu	a2,t6,s2
    7698:	40c70433          	sub	s0,a4,a2
    769c:	89f6                	mv	s3,t4
    769e:	b449                	j	7120 <__adddf3+0xc0>
    76a0:	01e76933          	or	s2,a4,t5
    76a4:	01203933          	snez	s2,s2
    76a8:	bd01                	j	74b8 <__adddf3+0x458>
    76aa:	fe058793          	addi	a5,a1,-32
    76ae:	02000693          	li	a3,32
    76b2:	00f757b3          	srl	a5,a4,a5
    76b6:	00d58a63          	beq	a1,a3,76ca <__adddf3+0x66a>
    76ba:	04000693          	li	a3,64
    76be:	40b685b3          	sub	a1,a3,a1
    76c2:	00b71733          	sll	a4,a4,a1
    76c6:	00ef6f33          	or	t5,t5,a4
    76ca:	01e03933          	snez	s2,t5
    76ce:	00f96933          	or	s2,s2,a5
    76d2:	bd55                	j	7586 <__adddf3+0x526>
    76d4:	00361793          	slli	a5,a2,0x3
    76d8:	838d                	srli	a5,a5,0x3
    76da:	01d81893          	slli	a7,a6,0x1d
    76de:	0117e8b3          	or	a7,a5,a7
    76e2:	00385793          	srli	a5,a6,0x3
    76e6:	b1ed                	j	73d0 <__adddf3+0x370>
    76e8:	00c968b3          	or	a7,s2,a2
    76ec:	c60897e3          	bnez	a7,735a <__adddf3+0x2fa>
    76f0:	4781                	li	a5,0
    76f2:	4981                	li	s3,0
    76f4:	b159                	j	737a <__adddf3+0x31a>
    76f6:	41ef8933          	sub	s2,t6,t5
    76fa:	40e807b3          	sub	a5,a6,a4
    76fe:	012fb633          	sltu	a2,t6,s2
    7702:	40c78633          	sub	a2,a5,a2
    7706:	89f6                	mv	s3,t4
    7708:	4485                	li	s1,1
    770a:	b411                	j	710e <__adddf3+0xae>
    770c:	00361693          	slli	a3,a2,0x3
    7710:	01d81793          	slli	a5,a6,0x1d
    7714:	828d                	srli	a3,a3,0x3
    7716:	00d7e8b3          	or	a7,a5,a3
    771a:	00385793          	srli	a5,a6,0x3
    771e:	b9b1                	j	737a <__adddf3+0x31a>
    7720:	00361693          	slli	a3,a2,0x3
    7724:	01d81793          	slli	a5,a6,0x1d
    7728:	828d                	srli	a3,a3,0x3
    772a:	00d7e8b3          	or	a7,a5,a3
    772e:	84aa                	mv	s1,a0
    7730:	00385793          	srli	a5,a6,0x3
    7734:	b93d                	j	7372 <__adddf3+0x312>
    7736:	fe050793          	addi	a5,a0,-32
    773a:	02000693          	li	a3,32
    773e:	00f757b3          	srl	a5,a4,a5
    7742:	00d50a63          	beq	a0,a3,7756 <__adddf3+0x6f6>
    7746:	04000693          	li	a3,64
    774a:	40a68533          	sub	a0,a3,a0
    774e:	00a71733          	sll	a4,a4,a0
    7752:	00ef6f33          	or	t5,t5,a4
    7756:	01e03933          	snez	s2,t5
    775a:	00f96933          	or	s2,s2,a5
    775e:	bba9                	j	74b8 <__adddf3+0x458>
    7760:	4581                	li	a1,0
    7762:	7ff00513          	li	a0,2047
    7766:	000807b7          	lui	a5,0x80
    776a:	bca9                	j	71c4 <__adddf3+0x164>
    776c:	01ff0933          	add	s2,t5,t6
    7770:	010707b3          	add	a5,a4,a6
    7774:	01f93633          	sltu	a2,s2,t6
    7778:	963e                	add	a2,a2,a5
    777a:	b375                	j	7526 <__adddf3+0x4c6>
    777c:	00361693          	slli	a3,a2,0x3
    7780:	01d81793          	slli	a5,a6,0x1d
    7784:	828d                	srli	a3,a3,0x3
    7786:	00d7e8b3          	or	a7,a5,a3
    778a:	00385793          	srli	a5,a6,0x3
    778e:	b189                	j	73d0 <__adddf3+0x370>

00007790 <__divdf3>:
    7790:	7139                	addi	sp,sp,-64
    7792:	0145d793          	srli	a5,a1,0x14
    7796:	dc22                	sw	s0,56(sp)
    7798:	d84a                	sw	s2,48(sp)
    779a:	d256                	sw	s5,36(sp)
    779c:	892a                	mv	s2,a0
    779e:	00c59413          	slli	s0,a1,0xc
    77a2:	de06                	sw	ra,60(sp)
    77a4:	da26                	sw	s1,52(sp)
    77a6:	d64e                	sw	s3,44(sp)
    77a8:	d452                	sw	s4,40(sp)
    77aa:	d05a                	sw	s6,32(sp)
    77ac:	ce5e                	sw	s7,28(sp)
    77ae:	7ff7f513          	andi	a0,a5,2047
    77b2:	8031                	srli	s0,s0,0xc
    77b4:	01f5da93          	srli	s5,a1,0x1f
    77b8:	10050b63          	beqz	a0,78ce <__divdf3+0x13e>
    77bc:	7ff00793          	li	a5,2047
    77c0:	14f50b63          	beq	a0,a5,7916 <__divdf3+0x186>
    77c4:	01d95a13          	srli	s4,s2,0x1d
    77c8:	040e                	slli	s0,s0,0x3
    77ca:	008a6433          	or	s0,s4,s0
    77ce:	00800a37          	lui	s4,0x800
    77d2:	01446a33          	or	s4,s0,s4
    77d6:	00391b13          	slli	s6,s2,0x3
    77da:	c0150493          	addi	s1,a0,-1023
    77de:	4401                	li	s0,0
    77e0:	4b81                	li	s7,0
    77e2:	0146d813          	srli	a6,a3,0x14
    77e6:	00c69913          	slli	s2,a3,0xc
    77ea:	7ff87813          	andi	a6,a6,2047
    77ee:	88b2                	mv	a7,a2
    77f0:	00c95913          	srli	s2,s2,0xc
    77f4:	01f6d993          	srli	s3,a3,0x1f
    77f8:	08080e63          	beqz	a6,7894 <__divdf3+0x104>
    77fc:	7ff00793          	li	a5,2047
    7800:	04f80063          	beq	a6,a5,7840 <__divdf3+0xb0>
    7804:	01d65713          	srli	a4,a2,0x1d
    7808:	090e                	slli	s2,s2,0x3
    780a:	01276933          	or	s2,a4,s2
    780e:	c0180813          	addi	a6,a6,-1023 # ffc01 <_data_lma+0xf534d>
    7812:	008007b7          	lui	a5,0x800
    7816:	00f96733          	or	a4,s2,a5
    781a:	00361893          	slli	a7,a2,0x3
    781e:	410484b3          	sub	s1,s1,a6
    7822:	4581                	li	a1,0
    7824:	47bd                	li	a5,15
    7826:	013ac833          	xor	a6,s5,s3
    782a:	1a87e463          	bltu	a5,s0,79d2 <__divdf3+0x242>
    782e:	00003797          	auipc	a5,0x3
    7832:	00678793          	addi	a5,a5,6 # a834 <_ctype_+0x104>
    7836:	040a                	slli	s0,s0,0x2
    7838:	943e                	add	s0,s0,a5
    783a:	4010                	lw	a2,0(s0)
    783c:	963e                	add	a2,a2,a5
    783e:	8602                	jr	a2
    7840:	00c96733          	or	a4,s2,a2
    7844:	80148493          	addi	s1,s1,-2047
    7848:	10071263          	bnez	a4,794c <__divdf3+0x1bc>
    784c:	00246413          	ori	s0,s0,2
    7850:	4881                	li	a7,0
    7852:	4589                	li	a1,2
    7854:	bfc1                	j	7824 <__divdf3+0x94>
    7856:	7ff00613          	li	a2,2047
    785a:	4781                	li	a5,0
    785c:	4701                	li	a4,0
    785e:	07b2                	slli	a5,a5,0xc
    7860:	50f2                	lw	ra,60(sp)
    7862:	5462                	lw	s0,56(sp)
    7864:	0652                	slli	a2,a2,0x14
    7866:	83b1                	srli	a5,a5,0xc
    7868:	087e                	slli	a6,a6,0x1f
    786a:	8fd1                	or	a5,a5,a2
    786c:	0107e7b3          	or	a5,a5,a6
    7870:	54d2                	lw	s1,52(sp)
    7872:	5942                	lw	s2,48(sp)
    7874:	59b2                	lw	s3,44(sp)
    7876:	5a22                	lw	s4,40(sp)
    7878:	5a92                	lw	s5,36(sp)
    787a:	5b02                	lw	s6,32(sp)
    787c:	4bf2                	lw	s7,28(sp)
    787e:	853a                	mv	a0,a4
    7880:	85be                	mv	a1,a5
    7882:	6121                	addi	sp,sp,64
    7884:	8082                	ret
    7886:	4801                	li	a6,0
    7888:	7ff00613          	li	a2,2047
    788c:	000807b7          	lui	a5,0x80
    7890:	4701                	li	a4,0
    7892:	b7f1                	j	785e <__divdf3+0xce>
    7894:	00c96733          	or	a4,s2,a2
    7898:	c74d                	beqz	a4,7942 <__divdf3+0x1b2>
    789a:	30090863          	beqz	s2,7baa <__divdf3+0x41a>
    789e:	854a                	mv	a0,s2
    78a0:	c432                	sw	a2,8(sp)
    78a2:	ffcfa0ef          	jal	ra,209e <__clzsi2>
    78a6:	4622                	lw	a2,8(sp)
    78a8:	ff550713          	addi	a4,a0,-11
    78ac:	47f5                	li	a5,29
    78ae:	ff850693          	addi	a3,a0,-8
    78b2:	8f99                	sub	a5,a5,a4
    78b4:	00d91933          	sll	s2,s2,a3
    78b8:	00f657b3          	srl	a5,a2,a5
    78bc:	0127e733          	or	a4,a5,s2
    78c0:	00d618b3          	sll	a7,a2,a3
    78c4:	9526                	add	a0,a0,s1
    78c6:	3f350493          	addi	s1,a0,1011
    78ca:	4581                	li	a1,0
    78cc:	bfa1                	j	7824 <__divdf3+0x94>
    78ce:	01246a33          	or	s4,s0,s2
    78d2:	060a0363          	beqz	s4,7938 <__divdf3+0x1a8>
    78d6:	c636                	sw	a3,12(sp)
    78d8:	c432                	sw	a2,8(sp)
    78da:	2a040663          	beqz	s0,7b86 <__divdf3+0x3f6>
    78de:	8522                	mv	a0,s0
    78e0:	fbefa0ef          	jal	ra,209e <__clzsi2>
    78e4:	4622                	lw	a2,8(sp)
    78e6:	46b2                	lw	a3,12(sp)
    78e8:	84aa                	mv	s1,a0
    78ea:	ff550713          	addi	a4,a0,-11
    78ee:	4a75                	li	s4,29
    78f0:	ff848b13          	addi	s6,s1,-8
    78f4:	40ea0a33          	sub	s4,s4,a4
    78f8:	01641433          	sll	s0,s0,s6
    78fc:	01495a33          	srl	s4,s2,s4
    7900:	008a6a33          	or	s4,s4,s0
    7904:	01691b33          	sll	s6,s2,s6
    7908:	c0d00513          	li	a0,-1011
    790c:	409504b3          	sub	s1,a0,s1
    7910:	4401                	li	s0,0
    7912:	4b81                	li	s7,0
    7914:	b5f9                	j	77e2 <__divdf3+0x52>
    7916:	01246a33          	or	s4,s0,s2
    791a:	000a1863          	bnez	s4,792a <__divdf3+0x19a>
    791e:	4421                	li	s0,8
    7920:	4b01                	li	s6,0
    7922:	7ff00493          	li	s1,2047
    7926:	4b89                	li	s7,2
    7928:	bd6d                	j	77e2 <__divdf3+0x52>
    792a:	8a22                	mv	s4,s0
    792c:	8b4a                	mv	s6,s2
    792e:	4431                	li	s0,12
    7930:	7ff00493          	li	s1,2047
    7934:	4b8d                	li	s7,3
    7936:	b575                	j	77e2 <__divdf3+0x52>
    7938:	4411                	li	s0,4
    793a:	4b01                	li	s6,0
    793c:	4481                	li	s1,0
    793e:	4b85                	li	s7,1
    7940:	b54d                	j	77e2 <__divdf3+0x52>
    7942:	00146413          	ori	s0,s0,1
    7946:	4881                	li	a7,0
    7948:	4585                	li	a1,1
    794a:	bde9                	j	7824 <__divdf3+0x94>
    794c:	00346413          	ori	s0,s0,3
    7950:	874a                	mv	a4,s2
    7952:	458d                	li	a1,3
    7954:	bdc1                	j	7824 <__divdf3+0x94>
    7956:	2e050a63          	beqz	a0,7c4a <__divdf3+0x4ba>
    795a:	4785                	li	a5,1
    795c:	8f89                	sub	a5,a5,a0
    795e:	03800693          	li	a3,56
    7962:	32f6dd63          	bge	a3,a5,7c9c <__divdf3+0x50c>
    7966:	4601                	li	a2,0
    7968:	4781                	li	a5,0
    796a:	4701                	li	a4,0
    796c:	bdcd                	j	785e <__divdf3+0xce>
    796e:	86ce                	mv	a3,s3
    7970:	4789                	li	a5,2
    7972:	3af58d63          	beq	a1,a5,7d2c <__divdf3+0x59c>
    7976:	478d                	li	a5,3
    7978:	f0f587e3          	beq	a1,a5,7886 <__divdf3+0xf6>
    797c:	4785                	li	a5,1
    797e:	8836                	mv	a6,a3
    7980:	fef583e3          	beq	a1,a5,7966 <__divdf3+0x1d6>
    7984:	3ff48513          	addi	a0,s1,1023
    7988:	fca057e3          	blez	a0,7956 <__divdf3+0x1c6>
    798c:	0078f793          	andi	a5,a7,7
    7990:	28079663          	bnez	a5,7c1c <__divdf3+0x48c>
    7994:	0038d693          	srli	a3,a7,0x3
    7998:	00771793          	slli	a5,a4,0x7
    799c:	0007d863          	bgez	a5,79ac <__divdf3+0x21c>
    79a0:	ff0007b7          	lui	a5,0xff000
    79a4:	17fd                	addi	a5,a5,-1
    79a6:	8f7d                	and	a4,a4,a5
    79a8:	40048513          	addi	a0,s1,1024
    79ac:	7fe00793          	li	a5,2046
    79b0:	eaa7c3e3          	blt	a5,a0,7856 <__divdf3+0xc6>
    79b4:	01d71613          	slli	a2,a4,0x1d
    79b8:	00971793          	slli	a5,a4,0x9
    79bc:	83b1                	srli	a5,a5,0xc
    79be:	00d66733          	or	a4,a2,a3
    79c2:	7ff57613          	andi	a2,a0,2047
    79c6:	bd61                	j	785e <__divdf3+0xce>
    79c8:	86d6                	mv	a3,s5
    79ca:	8752                	mv	a4,s4
    79cc:	88da                	mv	a7,s6
    79ce:	85de                	mv	a1,s7
    79d0:	b745                	j	7970 <__divdf3+0x1e0>
    79d2:	23476163          	bltu	a4,s4,7bf4 <__divdf3+0x464>
    79d6:	20ea0d63          	beq	s4,a4,7bf0 <__divdf3+0x460>
    79da:	86da                	mv	a3,s6
    79dc:	14fd                	addi	s1,s1,-1
    79de:	8452                	mv	s0,s4
    79e0:	4b01                	li	s6,0
    79e2:	00871793          	slli	a5,a4,0x8
    79e6:	0188d313          	srli	t1,a7,0x18
    79ea:	00f36333          	or	t1,t1,a5
    79ee:	01035e93          	srli	t4,t1,0x10
    79f2:	03d457b3          	divu	a5,s0,t4
    79f6:	01031f13          	slli	t5,t1,0x10
    79fa:	010f5f13          	srli	t5,t5,0x10
    79fe:	0106d593          	srli	a1,a3,0x10
    7a02:	00889e13          	slli	t3,a7,0x8
    7a06:	03d47433          	remu	s0,s0,t4
    7a0a:	02ff0733          	mul	a4,t5,a5
    7a0e:	0442                	slli	s0,s0,0x10
    7a10:	8dc1                	or	a1,a1,s0
    7a12:	00e5fb63          	bgeu	a1,a4,7a28 <__divdf3+0x298>
    7a16:	959a                	add	a1,a1,t1
    7a18:	fff78613          	addi	a2,a5,-1 # feffffff <_eusrstack+0xdeff7fff>
    7a1c:	2665ee63          	bltu	a1,t1,7c98 <__divdf3+0x508>
    7a20:	26e5fc63          	bgeu	a1,a4,7c98 <__divdf3+0x508>
    7a24:	17f9                	addi	a5,a5,-2
    7a26:	959a                	add	a1,a1,t1
    7a28:	8d99                	sub	a1,a1,a4
    7a2a:	03d5d733          	divu	a4,a1,t4
    7a2e:	06c2                	slli	a3,a3,0x10
    7a30:	82c1                	srli	a3,a3,0x10
    7a32:	03d5f5b3          	remu	a1,a1,t4
    7a36:	02ef0633          	mul	a2,t5,a4
    7a3a:	05c2                	slli	a1,a1,0x10
    7a3c:	8dd5                	or	a1,a1,a3
    7a3e:	00c5fb63          	bgeu	a1,a2,7a54 <__divdf3+0x2c4>
    7a42:	959a                	add	a1,a1,t1
    7a44:	fff70693          	addi	a3,a4,-1 # 7fffff <_data_lma+0x7f574b>
    7a48:	2465e663          	bltu	a1,t1,7c94 <__divdf3+0x504>
    7a4c:	24c5f463          	bgeu	a1,a2,7c94 <__divdf3+0x504>
    7a50:	1779                	addi	a4,a4,-2
    7a52:	959a                	add	a1,a1,t1
    7a54:	07c2                	slli	a5,a5,0x10
    7a56:	6441                	lui	s0,0x10
    7a58:	8f5d                	or	a4,a4,a5
    7a5a:	fff40793          	addi	a5,s0,-1 # ffff <_data_lma+0x574b>
    7a5e:	00f77533          	and	a0,a4,a5
    7a62:	01075893          	srli	a7,a4,0x10
    7a66:	010e5f93          	srli	t6,t3,0x10
    7a6a:	00fe77b3          	and	a5,t3,a5
    7a6e:	02f502b3          	mul	t0,a0,a5
    7a72:	40c586b3          	sub	a3,a1,a2
    7a76:	02f883b3          	mul	t2,a7,a5
    7a7a:	0102d593          	srli	a1,t0,0x10
    7a7e:	02af8633          	mul	a2,t6,a0
    7a82:	961e                	add	a2,a2,t2
    7a84:	962e                	add	a2,a2,a1
    7a86:	03f88533          	mul	a0,a7,t6
    7a8a:	00767363          	bgeu	a2,t2,7a90 <__divdf3+0x300>
    7a8e:	9522                	add	a0,a0,s0
    7a90:	68c1                	lui	a7,0x10
    7a92:	18fd                	addi	a7,a7,-1
    7a94:	01065593          	srli	a1,a2,0x10
    7a98:	01167633          	and	a2,a2,a7
    7a9c:	0642                	slli	a2,a2,0x10
    7a9e:	0112f8b3          	and	a7,t0,a7
    7aa2:	95aa                	add	a1,a1,a0
    7aa4:	9646                	add	a2,a2,a7
    7aa6:	12b6e663          	bltu	a3,a1,7bd2 <__divdf3+0x442>
    7aaa:	12b68263          	beq	a3,a1,7bce <__divdf3+0x43e>
    7aae:	40cb0633          	sub	a2,s6,a2
    7ab2:	8e8d                	sub	a3,a3,a1
    7ab4:	00cb3b33          	sltu	s6,s6,a2
    7ab8:	41668b33          	sub	s6,a3,s6
    7abc:	3ff48513          	addi	a0,s1,1023
    7ac0:	17630c63          	beq	t1,s6,7c38 <__divdf3+0x4a8>
    7ac4:	03db58b3          	divu	a7,s6,t4
    7ac8:	01065593          	srli	a1,a2,0x10
    7acc:	03db7b33          	remu	s6,s6,t4
    7ad0:	031f06b3          	mul	a3,t5,a7
    7ad4:	0b42                	slli	s6,s6,0x10
    7ad6:	0165eb33          	or	s6,a1,s6
    7ada:	00db7b63          	bgeu	s6,a3,7af0 <__divdf3+0x360>
    7ade:	9b1a                	add	s6,s6,t1
    7ae0:	fff88593          	addi	a1,a7,-1 # ffff <_data_lma+0x574b>
    7ae4:	206b6d63          	bltu	s6,t1,7cfe <__divdf3+0x56e>
    7ae8:	20db7b63          	bgeu	s6,a3,7cfe <__divdf3+0x56e>
    7aec:	18f9                	addi	a7,a7,-2
    7aee:	9b1a                	add	s6,s6,t1
    7af0:	40db0b33          	sub	s6,s6,a3
    7af4:	03db56b3          	divu	a3,s6,t4
    7af8:	0642                	slli	a2,a2,0x10
    7afa:	8241                	srli	a2,a2,0x10
    7afc:	03db7b33          	remu	s6,s6,t4
    7b00:	02df0f33          	mul	t5,t5,a3
    7b04:	0b42                	slli	s6,s6,0x10
    7b06:	01666633          	or	a2,a2,s6
    7b0a:	01e67b63          	bgeu	a2,t5,7b20 <__divdf3+0x390>
    7b0e:	961a                	add	a2,a2,t1
    7b10:	fff68593          	addi	a1,a3,-1 # 7fffff <_data_lma+0x7f574b>
    7b14:	1e666763          	bltu	a2,t1,7d02 <__divdf3+0x572>
    7b18:	1fe67563          	bgeu	a2,t5,7d02 <__divdf3+0x572>
    7b1c:	16f9                	addi	a3,a3,-2
    7b1e:	961a                	add	a2,a2,t1
    7b20:	08c2                	slli	a7,a7,0x10
    7b22:	00d8e8b3          	or	a7,a7,a3
    7b26:	01089593          	slli	a1,a7,0x10
    7b2a:	0108d293          	srli	t0,a7,0x10
    7b2e:	81c1                	srli	a1,a1,0x10
    7b30:	02f58eb3          	mul	t4,a1,a5
    7b34:	41e60633          	sub	a2,a2,t5
    7b38:	02bf85b3          	mul	a1,t6,a1
    7b3c:	010ed693          	srli	a3,t4,0x10
    7b40:	02f287b3          	mul	a5,t0,a5
    7b44:	95be                	add	a1,a1,a5
    7b46:	96ae                	add	a3,a3,a1
    7b48:	025f8fb3          	mul	t6,t6,t0
    7b4c:	00f6f463          	bgeu	a3,a5,7b54 <__divdf3+0x3c4>
    7b50:	67c1                	lui	a5,0x10
    7b52:	9fbe                	add	t6,t6,a5
    7b54:	65c1                	lui	a1,0x10
    7b56:	15fd                	addi	a1,a1,-1
    7b58:	0106d793          	srli	a5,a3,0x10
    7b5c:	8eed                	and	a3,a3,a1
    7b5e:	06c2                	slli	a3,a3,0x10
    7b60:	00befeb3          	and	t4,t4,a1
    7b64:	9fbe                	add	t6,t6,a5
    7b66:	96f6                	add	a3,a3,t4
    7b68:	09f67f63          	bgeu	a2,t6,7c06 <__divdf3+0x476>
    7b6c:	961a                	add	a2,a2,t1
    7b6e:	fff88793          	addi	a5,a7,-1
    7b72:	1a666963          	bltu	a2,t1,7d24 <__divdf3+0x594>
    7b76:	19f66863          	bltu	a2,t6,7d06 <__divdf3+0x576>
    7b7a:	1bf60f63          	beq	a2,t6,7d38 <__divdf3+0x5a8>
    7b7e:	88be                	mv	a7,a5
    7b80:	0018e893          	ori	a7,a7,1
    7b84:	b511                	j	7988 <__divdf3+0x1f8>
    7b86:	854a                	mv	a0,s2
    7b88:	d16fa0ef          	jal	ra,209e <__clzsi2>
    7b8c:	01550713          	addi	a4,a0,21
    7b90:	45f1                	li	a1,28
    7b92:	02050493          	addi	s1,a0,32
    7b96:	4622                	lw	a2,8(sp)
    7b98:	46b2                	lw	a3,12(sp)
    7b9a:	d4e5dae3          	bge	a1,a4,78ee <__divdf3+0x15e>
    7b9e:	ff850413          	addi	s0,a0,-8
    7ba2:	00891a33          	sll	s4,s2,s0
    7ba6:	4b01                	li	s6,0
    7ba8:	b385                	j	7908 <__divdf3+0x178>
    7baa:	8532                	mv	a0,a2
    7bac:	c432                	sw	a2,8(sp)
    7bae:	cf0fa0ef          	jal	ra,209e <__clzsi2>
    7bb2:	01550713          	addi	a4,a0,21
    7bb6:	46f1                	li	a3,28
    7bb8:	87aa                	mv	a5,a0
    7bba:	4622                	lw	a2,8(sp)
    7bbc:	02050513          	addi	a0,a0,32
    7bc0:	cee6d6e3          	bge	a3,a4,78ac <__divdf3+0x11c>
    7bc4:	17e1                	addi	a5,a5,-8
    7bc6:	00f61733          	sll	a4,a2,a5
    7bca:	4881                	li	a7,0
    7bcc:	b9e5                	j	78c4 <__divdf3+0x134>
    7bce:	eecb70e3          	bgeu	s6,a2,7aae <__divdf3+0x31e>
    7bd2:	9b72                	add	s6,s6,t3
    7bd4:	01cb3533          	sltu	a0,s6,t3
    7bd8:	951a                	add	a0,a0,t1
    7bda:	96aa                	add	a3,a3,a0
    7bdc:	fff70513          	addi	a0,a4,-1
    7be0:	02d37863          	bgeu	t1,a3,7c10 <__divdf3+0x480>
    7be4:	10b6e663          	bltu	a3,a1,7cf0 <__divdf3+0x560>
    7be8:	10d58263          	beq	a1,a3,7cec <__divdf3+0x55c>
    7bec:	872a                	mv	a4,a0
    7bee:	b5c1                	j	7aae <__divdf3+0x31e>
    7bf0:	df1b65e3          	bltu	s6,a7,79da <__divdf3+0x24a>
    7bf4:	001b5593          	srli	a1,s6,0x1
    7bf8:	01fa1693          	slli	a3,s4,0x1f
    7bfc:	001a5413          	srli	s0,s4,0x1
    7c00:	8ecd                	or	a3,a3,a1
    7c02:	0b7e                	slli	s6,s6,0x1f
    7c04:	bbf9                	j	79e2 <__divdf3+0x252>
    7c06:	f7f61de3          	bne	a2,t6,7b80 <__divdf3+0x3f0>
    7c0a:	d6068fe3          	beqz	a3,7988 <__divdf3+0x1f8>
    7c0e:	bfb9                	j	7b6c <__divdf3+0x3dc>
    7c10:	fcd31ee3          	bne	t1,a3,7bec <__divdf3+0x45c>
    7c14:	fdcb78e3          	bgeu	s6,t3,7be4 <__divdf3+0x454>
    7c18:	872a                	mv	a4,a0
    7c1a:	bd51                	j	7aae <__divdf3+0x31e>
    7c1c:	00f8f793          	andi	a5,a7,15
    7c20:	4691                	li	a3,4
    7c22:	d6d789e3          	beq	a5,a3,7994 <__divdf3+0x204>
    7c26:	ffc8b793          	sltiu	a5,a7,-4
    7c2a:	00488693          	addi	a3,a7,4
    7c2e:	0017c793          	xori	a5,a5,1
    7c32:	828d                	srli	a3,a3,0x3
    7c34:	973e                	add	a4,a4,a5
    7c36:	b38d                	j	7998 <__divdf3+0x208>
    7c38:	4681                	li	a3,0
    7c3a:	4785                	li	a5,1
    7c3c:	fea04ce3          	bgtz	a0,7c34 <__divdf3+0x4a4>
    7c40:	58fd                	li	a7,-1
    7c42:	d0051ce3          	bnez	a0,795a <__divdf3+0x1ca>
    7c46:	c0100493          	li	s1,-1023
    7c4a:	4785                	li	a5,1
    7c4c:	41e48513          	addi	a0,s1,1054
    7c50:	00a716b3          	sll	a3,a4,a0
    7c54:	00f8d633          	srl	a2,a7,a5
    7c58:	00a89533          	sll	a0,a7,a0
    7c5c:	8ed1                	or	a3,a3,a2
    7c5e:	00a03533          	snez	a0,a0
    7c62:	8ec9                	or	a3,a3,a0
    7c64:	0076f613          	andi	a2,a3,7
    7c68:	00f75733          	srl	a4,a4,a5
    7c6c:	ce01                	beqz	a2,7c84 <__divdf3+0x4f4>
    7c6e:	00f6f793          	andi	a5,a3,15
    7c72:	4611                	li	a2,4
    7c74:	00c78863          	beq	a5,a2,7c84 <__divdf3+0x4f4>
    7c78:	00468793          	addi	a5,a3,4
    7c7c:	00d7b6b3          	sltu	a3,a5,a3
    7c80:	9736                	add	a4,a4,a3
    7c82:	86be                	mv	a3,a5
    7c84:	00871793          	slli	a5,a4,0x8
    7c88:	0407d863          	bgez	a5,7cd8 <__divdf3+0x548>
    7c8c:	4605                	li	a2,1
    7c8e:	4781                	li	a5,0
    7c90:	4701                	li	a4,0
    7c92:	b6f1                	j	785e <__divdf3+0xce>
    7c94:	8736                	mv	a4,a3
    7c96:	bb7d                	j	7a54 <__divdf3+0x2c4>
    7c98:	87b2                	mv	a5,a2
    7c9a:	b379                	j	7a28 <__divdf3+0x298>
    7c9c:	46fd                	li	a3,31
    7c9e:	faf6d7e3          	bge	a3,a5,7c4c <__divdf3+0x4bc>
    7ca2:	5605                	li	a2,-31
    7ca4:	8e09                	sub	a2,a2,a0
    7ca6:	02000693          	li	a3,32
    7caa:	00c75633          	srl	a2,a4,a2
    7cae:	00d78863          	beq	a5,a3,7cbe <__divdf3+0x52e>
    7cb2:	43e48793          	addi	a5,s1,1086
    7cb6:	00f717b3          	sll	a5,a4,a5
    7cba:	00f8e8b3          	or	a7,a7,a5
    7cbe:	011036b3          	snez	a3,a7
    7cc2:	8ed1                	or	a3,a3,a2
    7cc4:	0076f613          	andi	a2,a3,7
    7cc8:	4781                	li	a5,0
    7cca:	ce01                	beqz	a2,7ce2 <__divdf3+0x552>
    7ccc:	00f6f793          	andi	a5,a3,15
    7cd0:	4611                	li	a2,4
    7cd2:	4701                	li	a4,0
    7cd4:	fac792e3          	bne	a5,a2,7c78 <__divdf3+0x4e8>
    7cd8:	00971793          	slli	a5,a4,0x9
    7cdc:	01d71613          	slli	a2,a4,0x1d
    7ce0:	83b1                	srli	a5,a5,0xc
    7ce2:	0036d713          	srli	a4,a3,0x3
    7ce6:	8f51                	or	a4,a4,a2
    7ce8:	4601                	li	a2,0
    7cea:	be95                	j	785e <__divdf3+0xce>
    7cec:	f0cb70e3          	bgeu	s6,a2,7bec <__divdf3+0x45c>
    7cf0:	9b72                	add	s6,s6,t3
    7cf2:	01cb3533          	sltu	a0,s6,t3
    7cf6:	951a                	add	a0,a0,t1
    7cf8:	1779                	addi	a4,a4,-2
    7cfa:	96aa                	add	a3,a3,a0
    7cfc:	bb4d                	j	7aae <__divdf3+0x31e>
    7cfe:	88ae                	mv	a7,a1
    7d00:	bbc5                	j	7af0 <__divdf3+0x360>
    7d02:	86ae                	mv	a3,a1
    7d04:	bd31                	j	7b20 <__divdf3+0x390>
    7d06:	001e1793          	slli	a5,t3,0x1
    7d0a:	01c7be33          	sltu	t3,a5,t3
    7d0e:	9372                	add	t1,t1,t3
    7d10:	961a                	add	a2,a2,t1
    7d12:	18f9                	addi	a7,a7,-2
    7d14:	8e3e                	mv	t3,a5
    7d16:	e7f615e3          	bne	a2,t6,7b80 <__divdf3+0x3f0>
    7d1a:	c6de07e3          	beq	t3,a3,7988 <__divdf3+0x1f8>
    7d1e:	0018e893          	ori	a7,a7,1
    7d22:	b19d                	j	7988 <__divdf3+0x1f8>
    7d24:	88be                	mv	a7,a5
    7d26:	fff60ae3          	beq	a2,t6,7d1a <__divdf3+0x58a>
    7d2a:	bd99                	j	7b80 <__divdf3+0x3f0>
    7d2c:	8836                	mv	a6,a3
    7d2e:	7ff00613          	li	a2,2047
    7d32:	4781                	li	a5,0
    7d34:	4701                	li	a4,0
    7d36:	b625                	j	785e <__divdf3+0xce>
    7d38:	fcde67e3          	bltu	t3,a3,7d06 <__divdf3+0x576>
    7d3c:	88be                	mv	a7,a5
    7d3e:	fede10e3          	bne	t3,a3,7d1e <__divdf3+0x58e>
    7d42:	b199                	j	7988 <__divdf3+0x1f8>

00007d44 <__eqdf2>:
    7d44:	0145d713          	srli	a4,a1,0x14
    7d48:	001007b7          	lui	a5,0x100
    7d4c:	17fd                	addi	a5,a5,-1
    7d4e:	0146d813          	srli	a6,a3,0x14
    7d52:	7ff77713          	andi	a4,a4,2047
    7d56:	7ff00893          	li	a7,2047
    7d5a:	00b7fe33          	and	t3,a5,a1
    7d5e:	8eaa                	mv	t4,a0
    7d60:	8ff5                	and	a5,a5,a3
    7d62:	81fd                	srli	a1,a1,0x1f
    7d64:	8f32                	mv	t5,a2
    7d66:	7ff87813          	andi	a6,a6,2047
    7d6a:	82fd                	srli	a3,a3,0x1f
    7d6c:	01170b63          	beq	a4,a7,7d82 <__eqdf2+0x3e>
    7d70:	4305                	li	t1,1
    7d72:	01180663          	beq	a6,a7,7d7e <__eqdf2+0x3a>
    7d76:	01071463          	bne	a4,a6,7d7e <__eqdf2+0x3a>
    7d7a:	00fe0d63          	beq	t3,a5,7d94 <__eqdf2+0x50>
    7d7e:	851a                	mv	a0,t1
    7d80:	8082                	ret
    7d82:	00ae68b3          	or	a7,t3,a0
    7d86:	4305                	li	t1,1
    7d88:	fe089be3          	bnez	a7,7d7e <__eqdf2+0x3a>
    7d8c:	fee819e3          	bne	a6,a4,7d7e <__eqdf2+0x3a>
    7d90:	8fd1                	or	a5,a5,a2
    7d92:	f7f5                	bnez	a5,7d7e <__eqdf2+0x3a>
    7d94:	4305                	li	t1,1
    7d96:	ffee94e3          	bne	t4,t5,7d7e <__eqdf2+0x3a>
    7d9a:	4301                	li	t1,0
    7d9c:	fed581e3          	beq	a1,a3,7d7e <__eqdf2+0x3a>
    7da0:	4305                	li	t1,1
    7da2:	ff71                	bnez	a4,7d7e <__eqdf2+0x3a>
    7da4:	00ae6533          	or	a0,t3,a0
    7da8:	00a03333          	snez	t1,a0
    7dac:	bfc9                	j	7d7e <__eqdf2+0x3a>

00007dae <__gedf2>:
    7dae:	0145d713          	srli	a4,a1,0x14
    7db2:	001007b7          	lui	a5,0x100
    7db6:	17fd                	addi	a5,a5,-1
    7db8:	0146d813          	srli	a6,a3,0x14
    7dbc:	7ff77713          	andi	a4,a4,2047
    7dc0:	7ff00893          	li	a7,2047
    7dc4:	00b7f333          	and	t1,a5,a1
    7dc8:	8e2a                	mv	t3,a0
    7dca:	8ff5                	and	a5,a5,a3
    7dcc:	81fd                	srli	a1,a1,0x1f
    7dce:	8eb2                	mv	t4,a2
    7dd0:	7ff87813          	andi	a6,a6,2047
    7dd4:	82fd                	srli	a3,a3,0x1f
    7dd6:	03170863          	beq	a4,a7,7e06 <__gedf2+0x58>
    7dda:	03180063          	beq	a6,a7,7dfa <__gedf2+0x4c>
    7dde:	eb0d                	bnez	a4,7e10 <__gedf2+0x62>
    7de0:	00a368b3          	or	a7,t1,a0
    7de4:	00081463          	bnez	a6,7dec <__gedf2+0x3e>
    7de8:	8e5d                	or	a2,a2,a5
    7dea:	ca29                	beqz	a2,7e3c <__gedf2+0x8e>
    7dec:	04088563          	beqz	a7,7e36 <__gedf2+0x88>
    7df0:	02d58863          	beq	a1,a3,7e20 <__gedf2+0x72>
    7df4:	4505                	li	a0,1
    7df6:	ed95                	bnez	a1,7e32 <__gedf2+0x84>
    7df8:	8082                	ret
    7dfa:	00c7e8b3          	or	a7,a5,a2
    7dfe:	fe0880e3          	beqz	a7,7dde <__gedf2+0x30>
    7e02:	5579                	li	a0,-2
    7e04:	8082                	ret
    7e06:	00a36533          	or	a0,t1,a0
    7e0a:	fd65                	bnez	a0,7e02 <__gedf2+0x54>
    7e0c:	02e80c63          	beq	a6,a4,7e44 <__gedf2+0x96>
    7e10:	00081463          	bnez	a6,7e18 <__gedf2+0x6a>
    7e14:	8e5d                	or	a2,a2,a5
    7e16:	de79                	beqz	a2,7df4 <__gedf2+0x46>
    7e18:	fcd59ee3          	bne	a1,a3,7df4 <__gedf2+0x46>
    7e1c:	fce84ce3          	blt	a6,a4,7df4 <__gedf2+0x46>
    7e20:	01074863          	blt	a4,a6,7e30 <__gedf2+0x82>
    7e24:	fc67e8e3          	bltu	a5,t1,7df4 <__gedf2+0x46>
    7e28:	02f30363          	beq	t1,a5,7e4e <__gedf2+0xa0>
    7e2c:	00f37f63          	bgeu	t1,a5,7e4a <__gedf2+0x9c>
    7e30:	e581                	bnez	a1,7e38 <__gedf2+0x8a>
    7e32:	557d                	li	a0,-1
    7e34:	8082                	ret
    7e36:	def5                	beqz	a3,7e32 <__gedf2+0x84>
    7e38:	4505                	li	a0,1
    7e3a:	8082                	ret
    7e3c:	4501                	li	a0,0
    7e3e:	fa089be3          	bnez	a7,7df4 <__gedf2+0x46>
    7e42:	8082                	ret
    7e44:	8e5d                	or	a2,a2,a5
    7e46:	da69                	beqz	a2,7e18 <__gedf2+0x6a>
    7e48:	bf6d                	j	7e02 <__gedf2+0x54>
    7e4a:	4501                	li	a0,0
    7e4c:	8082                	ret
    7e4e:	fbcee3e3          	bltu	t4,t3,7df4 <__gedf2+0x46>
    7e52:	4501                	li	a0,0
    7e54:	fbde72e3          	bgeu	t3,t4,7df8 <__gedf2+0x4a>
    7e58:	f1e5                	bnez	a1,7e38 <__gedf2+0x8a>
    7e5a:	bfe1                	j	7e32 <__gedf2+0x84>

00007e5c <__ledf2>:
    7e5c:	0145d713          	srli	a4,a1,0x14
    7e60:	001007b7          	lui	a5,0x100
    7e64:	17fd                	addi	a5,a5,-1
    7e66:	0146d813          	srli	a6,a3,0x14
    7e6a:	7ff77713          	andi	a4,a4,2047
    7e6e:	7ff00893          	li	a7,2047
    7e72:	00b7fe33          	and	t3,a5,a1
    7e76:	8eaa                	mv	t4,a0
    7e78:	8ff5                	and	a5,a5,a3
    7e7a:	81fd                	srli	a1,a1,0x1f
    7e7c:	8f32                	mv	t5,a2
    7e7e:	7ff87813          	andi	a6,a6,2047
    7e82:	82fd                	srli	a3,a3,0x1f
    7e84:	03170e63          	beq	a4,a7,7ec0 <__ledf2+0x64>
    7e88:	01180d63          	beq	a6,a7,7ea2 <__ledf2+0x46>
    7e8c:	e329                	bnez	a4,7ece <__ledf2+0x72>
    7e8e:	00ae68b3          	or	a7,t3,a0
    7e92:	00081f63          	bnez	a6,7eb0 <__ledf2+0x54>
    7e96:	8e5d                	or	a2,a2,a5
    7e98:	ee01                	bnez	a2,7eb0 <__ledf2+0x54>
    7e9a:	4301                	li	t1,0
    7e9c:	04088c63          	beqz	a7,7ef4 <__ledf2+0x98>
    7ea0:	a821                	j	7eb8 <__ledf2+0x5c>
    7ea2:	00c7e8b3          	or	a7,a5,a2
    7ea6:	4309                	li	t1,2
    7ea8:	04089663          	bnez	a7,7ef4 <__ledf2+0x98>
    7eac:	d36d                	beqz	a4,7e8e <__ledf2+0x32>
    7eae:	a005                	j	7ece <__ledf2+0x72>
    7eb0:	04088463          	beqz	a7,7ef8 <__ledf2+0x9c>
    7eb4:	02d58563          	beq	a1,a3,7ede <__ledf2+0x82>
    7eb8:	4305                	li	t1,1
    7eba:	cd8d                	beqz	a1,7ef4 <__ledf2+0x98>
    7ebc:	537d                	li	t1,-1
    7ebe:	a81d                	j	7ef4 <__ledf2+0x98>
    7ec0:	00ae68b3          	or	a7,t3,a0
    7ec4:	4309                	li	t1,2
    7ec6:	02089763          	bnez	a7,7ef4 <__ledf2+0x98>
    7eca:	02e80a63          	beq	a6,a4,7efe <__ledf2+0xa2>
    7ece:	00081463          	bnez	a6,7ed6 <__ledf2+0x7a>
    7ed2:	8e5d                	or	a2,a2,a5
    7ed4:	d275                	beqz	a2,7eb8 <__ledf2+0x5c>
    7ed6:	fed591e3          	bne	a1,a3,7eb8 <__ledf2+0x5c>
    7eda:	fce84fe3          	blt	a6,a4,7eb8 <__ledf2+0x5c>
    7ede:	01074963          	blt	a4,a6,7ef0 <__ledf2+0x94>
    7ee2:	fdc7ebe3          	bltu	a5,t3,7eb8 <__ledf2+0x5c>
    7ee6:	00fe0f63          	beq	t3,a5,7f04 <__ledf2+0xa8>
    7eea:	4301                	li	t1,0
    7eec:	00fe7463          	bgeu	t3,a5,7ef4 <__ledf2+0x98>
    7ef0:	d5f1                	beqz	a1,7ebc <__ledf2+0x60>
    7ef2:	4305                	li	t1,1
    7ef4:	851a                	mv	a0,t1
    7ef6:	8082                	ret
    7ef8:	feed                	bnez	a3,7ef2 <__ledf2+0x96>
    7efa:	537d                	li	t1,-1
    7efc:	bfe5                	j	7ef4 <__ledf2+0x98>
    7efe:	8e5d                	or	a2,a2,a5
    7f00:	da79                	beqz	a2,7ed6 <__ledf2+0x7a>
    7f02:	bfcd                	j	7ef4 <__ledf2+0x98>
    7f04:	fbdf6ae3          	bltu	t5,t4,7eb8 <__ledf2+0x5c>
    7f08:	4301                	li	t1,0
    7f0a:	ffeef5e3          	bgeu	t4,t5,7ef4 <__ledf2+0x98>
    7f0e:	f1f5                	bnez	a1,7ef2 <__ledf2+0x96>
    7f10:	b775                	j	7ebc <__ledf2+0x60>

00007f12 <__muldf3>:
    7f12:	7139                	addi	sp,sp,-64
    7f14:	d84a                	sw	s2,48(sp)
    7f16:	0145d913          	srli	s2,a1,0x14
    7f1a:	d64e                	sw	s3,44(sp)
    7f1c:	d452                	sw	s4,40(sp)
    7f1e:	d256                	sw	s5,36(sp)
    7f20:	00c59993          	slli	s3,a1,0xc
    7f24:	de06                	sw	ra,60(sp)
    7f26:	dc22                	sw	s0,56(sp)
    7f28:	da26                	sw	s1,52(sp)
    7f2a:	d05a                	sw	s6,32(sp)
    7f2c:	ce5e                	sw	s7,28(sp)
    7f2e:	7ff97913          	andi	s2,s2,2047
    7f32:	8a2a                	mv	s4,a0
    7f34:	00c9d993          	srli	s3,s3,0xc
    7f38:	01f5da93          	srli	s5,a1,0x1f
    7f3c:	0e090d63          	beqz	s2,8036 <__muldf3+0x124>
    7f40:	7ff00793          	li	a5,2047
    7f44:	18f90663          	beq	s2,a5,80d0 <__muldf3+0x1be>
    7f48:	01d55413          	srli	s0,a0,0x1d
    7f4c:	098e                	slli	s3,s3,0x3
    7f4e:	013469b3          	or	s3,s0,s3
    7f52:	00800437          	lui	s0,0x800
    7f56:	0089e433          	or	s0,s3,s0
    7f5a:	00351493          	slli	s1,a0,0x3
    7f5e:	c0190913          	addi	s2,s2,-1023
    7f62:	4981                	li	s3,0
    7f64:	4b81                	li	s7,0
    7f66:	0146d713          	srli	a4,a3,0x14
    7f6a:	00c69a13          	slli	s4,a3,0xc
    7f6e:	7ff77713          	andi	a4,a4,2047
    7f72:	85b2                	mv	a1,a2
    7f74:	00ca5a13          	srli	s4,s4,0xc
    7f78:	01f6db13          	srli	s6,a3,0x1f
    7f7c:	10070b63          	beqz	a4,8092 <__muldf3+0x180>
    7f80:	7ff00793          	li	a5,2047
    7f84:	04f70363          	beq	a4,a5,7fca <__muldf3+0xb8>
    7f88:	01d65793          	srli	a5,a2,0x1d
    7f8c:	0a0e                	slli	s4,s4,0x3
    7f8e:	0147ea33          	or	s4,a5,s4
    7f92:	c0170713          	addi	a4,a4,-1023
    7f96:	008007b7          	lui	a5,0x800
    7f9a:	00fa67b3          	or	a5,s4,a5
    7f9e:	00361593          	slli	a1,a2,0x3
    7fa2:	993a                	add	s2,s2,a4
    7fa4:	4881                	li	a7,0
    7fa6:	016ac733          	xor	a4,s5,s6
    7faa:	46bd                	li	a3,15
    7fac:	853a                	mv	a0,a4
    7fae:	00190813          	addi	a6,s2,1
    7fb2:	1736e863          	bltu	a3,s3,8122 <__muldf3+0x210>
    7fb6:	00003617          	auipc	a2,0x3
    7fba:	8be60613          	addi	a2,a2,-1858 # a874 <_ctype_+0x144>
    7fbe:	098a                	slli	s3,s3,0x2
    7fc0:	99b2                	add	s3,s3,a2
    7fc2:	0009a683          	lw	a3,0(s3)
    7fc6:	96b2                	add	a3,a3,a2
    7fc8:	8682                	jr	a3
    7fca:	00ca67b3          	or	a5,s4,a2
    7fce:	7ff90913          	addi	s2,s2,2047
    7fd2:	12079963          	bnez	a5,8104 <__muldf3+0x1f2>
    7fd6:	0029e993          	ori	s3,s3,2
    7fda:	4581                	li	a1,0
    7fdc:	4889                	li	a7,2
    7fde:	b7e1                	j	7fa6 <__muldf3+0x94>
    7fe0:	4701                	li	a4,0
    7fe2:	7ff00793          	li	a5,2047
    7fe6:	00080437          	lui	s0,0x80
    7fea:	4481                	li	s1,0
    7fec:	0432                	slli	s0,s0,0xc
    7fee:	07d2                	slli	a5,a5,0x14
    7ff0:	8031                	srli	s0,s0,0xc
    7ff2:	077e                	slli	a4,a4,0x1f
    7ff4:	8c5d                	or	s0,s0,a5
    7ff6:	8c59                	or	s0,s0,a4
    7ff8:	85a2                	mv	a1,s0
    7ffa:	50f2                	lw	ra,60(sp)
    7ffc:	5462                	lw	s0,56(sp)
    7ffe:	8526                	mv	a0,s1
    8000:	5942                	lw	s2,48(sp)
    8002:	54d2                	lw	s1,52(sp)
    8004:	59b2                	lw	s3,44(sp)
    8006:	5a22                	lw	s4,40(sp)
    8008:	5a92                	lw	s5,36(sp)
    800a:	5b02                	lw	s6,32(sp)
    800c:	4bf2                	lw	s7,28(sp)
    800e:	6121                	addi	sp,sp,64
    8010:	8082                	ret
    8012:	855a                	mv	a0,s6
    8014:	843e                	mv	s0,a5
    8016:	84ae                	mv	s1,a1
    8018:	8bc6                	mv	s7,a7
    801a:	4789                	li	a5,2
    801c:	0efb8d63          	beq	s7,a5,8116 <__muldf3+0x204>
    8020:	478d                	li	a5,3
    8022:	fafb8fe3          	beq	s7,a5,7fe0 <__muldf3+0xce>
    8026:	4785                	li	a5,1
    8028:	872a                	mv	a4,a0
    802a:	38fb9e63          	bne	s7,a5,83c6 <__muldf3+0x4b4>
    802e:	4781                	li	a5,0
    8030:	4401                	li	s0,0
    8032:	4481                	li	s1,0
    8034:	bf65                	j	7fec <__muldf3+0xda>
    8036:	00a9e433          	or	s0,s3,a0
    803a:	c061                	beqz	s0,80fa <__muldf3+0x1e8>
    803c:	c636                	sw	a3,12(sp)
    803e:	c432                	sw	a2,8(sp)
    8040:	2a098c63          	beqz	s3,82f8 <__muldf3+0x3e6>
    8044:	854e                	mv	a0,s3
    8046:	858fa0ef          	jal	ra,209e <__clzsi2>
    804a:	4622                	lw	a2,8(sp)
    804c:	46b2                	lw	a3,12(sp)
    804e:	87aa                	mv	a5,a0
    8050:	ff550713          	addi	a4,a0,-11
    8054:	4475                	li	s0,29
    8056:	ff878493          	addi	s1,a5,-8 # 7ffff8 <_data_lma+0x7f5744>
    805a:	8c19                	sub	s0,s0,a4
    805c:	009999b3          	sll	s3,s3,s1
    8060:	008a5433          	srl	s0,s4,s0
    8064:	01346433          	or	s0,s0,s3
    8068:	009a14b3          	sll	s1,s4,s1
    806c:	0146d713          	srli	a4,a3,0x14
    8070:	c0d00913          	li	s2,-1011
    8074:	00c69a13          	slli	s4,a3,0xc
    8078:	7ff77713          	andi	a4,a4,2047
    807c:	40f90933          	sub	s2,s2,a5
    8080:	4981                	li	s3,0
    8082:	4b81                	li	s7,0
    8084:	85b2                	mv	a1,a2
    8086:	00ca5a13          	srli	s4,s4,0xc
    808a:	01f6db13          	srli	s6,a3,0x1f
    808e:	ee0719e3          	bnez	a4,7f80 <__muldf3+0x6e>
    8092:	00ca67b3          	or	a5,s4,a2
    8096:	c7b1                	beqz	a5,80e2 <__muldf3+0x1d0>
    8098:	220a0f63          	beqz	s4,82d6 <__muldf3+0x3c4>
    809c:	8552                	mv	a0,s4
    809e:	c432                	sw	a2,8(sp)
    80a0:	ffff90ef          	jal	ra,209e <__clzsi2>
    80a4:	4622                	lw	a2,8(sp)
    80a6:	872a                	mv	a4,a0
    80a8:	ff550693          	addi	a3,a0,-11
    80ac:	47f5                	li	a5,29
    80ae:	ff870593          	addi	a1,a4,-8
    80b2:	8f95                	sub	a5,a5,a3
    80b4:	00ba1a33          	sll	s4,s4,a1
    80b8:	00f657b3          	srl	a5,a2,a5
    80bc:	0147e7b3          	or	a5,a5,s4
    80c0:	00b615b3          	sll	a1,a2,a1
    80c4:	40e90933          	sub	s2,s2,a4
    80c8:	c0d90913          	addi	s2,s2,-1011
    80cc:	4881                	li	a7,0
    80ce:	bde1                	j	7fa6 <__muldf3+0x94>
    80d0:	00a9e433          	or	s0,s3,a0
    80d4:	ec01                	bnez	s0,80ec <__muldf3+0x1da>
    80d6:	49a1                	li	s3,8
    80d8:	4481                	li	s1,0
    80da:	7ff00913          	li	s2,2047
    80de:	4b89                	li	s7,2
    80e0:	b559                	j	7f66 <__muldf3+0x54>
    80e2:	0019e993          	ori	s3,s3,1
    80e6:	4581                	li	a1,0
    80e8:	4885                	li	a7,1
    80ea:	bd75                	j	7fa6 <__muldf3+0x94>
    80ec:	844e                	mv	s0,s3
    80ee:	84aa                	mv	s1,a0
    80f0:	49b1                	li	s3,12
    80f2:	7ff00913          	li	s2,2047
    80f6:	4b8d                	li	s7,3
    80f8:	b5bd                	j	7f66 <__muldf3+0x54>
    80fa:	4991                	li	s3,4
    80fc:	4481                	li	s1,0
    80fe:	4901                	li	s2,0
    8100:	4b85                	li	s7,1
    8102:	b595                	j	7f66 <__muldf3+0x54>
    8104:	0039e993          	ori	s3,s3,3
    8108:	87d2                	mv	a5,s4
    810a:	488d                	li	a7,3
    810c:	bd69                	j	7fa6 <__muldf3+0x94>
    810e:	4789                	li	a5,2
    8110:	8556                	mv	a0,s5
    8112:	f0fb97e3          	bne	s7,a5,8020 <__muldf3+0x10e>
    8116:	872a                	mv	a4,a0
    8118:	7ff00793          	li	a5,2047
    811c:	4401                	li	s0,0
    811e:	4481                	li	s1,0
    8120:	b5f1                	j	7fec <__muldf3+0xda>
    8122:	6ec1                	lui	t4,0x10
    8124:	fffe8613          	addi	a2,t4,-1 # ffff <_data_lma+0x574b>
    8128:	0104d693          	srli	a3,s1,0x10
    812c:	0105de13          	srli	t3,a1,0x10
    8130:	8cf1                	and	s1,s1,a2
    8132:	8df1                	and	a1,a1,a2
    8134:	02958633          	mul	a2,a1,s1
    8138:	02b68333          	mul	t1,a3,a1
    813c:	01065893          	srli	a7,a2,0x10
    8140:	029e0533          	mul	a0,t3,s1
    8144:	951a                	add	a0,a0,t1
    8146:	98aa                	add	a7,a7,a0
    8148:	03c682b3          	mul	t0,a3,t3
    814c:	0068f363          	bgeu	a7,t1,8152 <__muldf3+0x240>
    8150:	92f6                	add	t0,t0,t4
    8152:	6fc1                	lui	t6,0x10
    8154:	ffff8313          	addi	t1,t6,-1 # ffff <_data_lma+0x574b>
    8158:	0067f533          	and	a0,a5,t1
    815c:	0107d393          	srli	t2,a5,0x10
    8160:	0068f7b3          	and	a5,a7,t1
    8164:	07c2                	slli	a5,a5,0x10
    8166:	00667333          	and	t1,a2,t1
    816a:	933e                	add	t1,t1,a5
    816c:	02950633          	mul	a2,a0,s1
    8170:	0108d893          	srli	a7,a7,0x10
    8174:	02a687b3          	mul	a5,a3,a0
    8178:	01065f13          	srli	t5,a2,0x10
    817c:	029384b3          	mul	s1,t2,s1
    8180:	94be                	add	s1,s1,a5
    8182:	94fa                	add	s1,s1,t5
    8184:	02768eb3          	mul	t4,a3,t2
    8188:	00f4f363          	bgeu	s1,a5,818e <__muldf3+0x27c>
    818c:	9efe                	add	t4,t4,t6
    818e:	6a41                	lui	s4,0x10
    8190:	fffa0793          	addi	a5,s4,-1 # ffff <_data_lma+0x574b>
    8194:	01045f93          	srli	t6,s0,0x10
    8198:	00f476b3          	and	a3,s0,a5
    819c:	00f4f9b3          	and	s3,s1,a5
    81a0:	8e7d                	and	a2,a2,a5
    81a2:	80c1                	srli	s1,s1,0x10
    81a4:	02d58433          	mul	s0,a1,a3
    81a8:	09c2                	slli	s3,s3,0x10
    81aa:	01d48f33          	add	t5,s1,t4
    81ae:	99b2                	add	s3,s3,a2
    81b0:	98ce                	add	a7,a7,s3
    81b2:	02de07b3          	mul	a5,t3,a3
    81b6:	01045e93          	srli	t4,s0,0x10
    81ba:	02bf85b3          	mul	a1,t6,a1
    81be:	97ae                	add	a5,a5,a1
    81c0:	9ebe                	add	t4,t4,a5
    81c2:	03fe0e33          	mul	t3,t3,t6
    81c6:	00bef363          	bgeu	t4,a1,81cc <__muldf3+0x2ba>
    81ca:	9e52                	add	t3,t3,s4
    81cc:	67c1                	lui	a5,0x10
    81ce:	fff78593          	addi	a1,a5,-1 # ffff <_data_lma+0x574b>
    81d2:	00bef633          	and	a2,t4,a1
    81d6:	8c6d                	and	s0,s0,a1
    81d8:	0642                	slli	a2,a2,0x10
    81da:	9622                	add	a2,a2,s0
    81dc:	010ede93          	srli	t4,t4,0x10
    81e0:	02d505b3          	mul	a1,a0,a3
    81e4:	9e76                	add	t3,t3,t4
    81e6:	02af8533          	mul	a0,t6,a0
    81ea:	0105d413          	srli	s0,a1,0x10
    81ee:	02d386b3          	mul	a3,t2,a3
    81f2:	96aa                	add	a3,a3,a0
    81f4:	96a2                	add	a3,a3,s0
    81f6:	03f38fb3          	mul	t6,t2,t6
    81fa:	00a6f363          	bgeu	a3,a0,8200 <__muldf3+0x2ee>
    81fe:	9fbe                	add	t6,t6,a5
    8200:	6541                	lui	a0,0x10
    8202:	157d                	addi	a0,a0,-1
    8204:	00a6f7b3          	and	a5,a3,a0
    8208:	07c2                	slli	a5,a5,0x10
    820a:	8d6d                	and	a0,a0,a1
    820c:	97aa                	add	a5,a5,a0
    820e:	005885b3          	add	a1,a7,t0
    8212:	0135b9b3          	sltu	s3,a1,s3
    8216:	97fa                	add	a5,a5,t5
    8218:	95b2                	add	a1,a1,a2
    821a:	01378433          	add	s0,a5,s3
    821e:	00c5b633          	sltu	a2,a1,a2
    8222:	01c40eb3          	add	t4,s0,t3
    8226:	00ce8533          	add	a0,t4,a2
    822a:	01343433          	sltu	s0,s0,s3
    822e:	01e7b7b3          	sltu	a5,a5,t5
    8232:	8fc1                	or	a5,a5,s0
    8234:	01cebe33          	sltu	t3,t4,t3
    8238:	0106d413          	srli	s0,a3,0x10
    823c:	00c53633          	sltu	a2,a0,a2
    8240:	943e                	add	s0,s0,a5
    8242:	00ce6633          	or	a2,t3,a2
    8246:	00959493          	slli	s1,a1,0x9
    824a:	9432                	add	s0,s0,a2
    824c:	947e                	add	s0,s0,t6
    824e:	0064e4b3          	or	s1,s1,t1
    8252:	0426                	slli	s0,s0,0x9
    8254:	01755693          	srli	a3,a0,0x17
    8258:	009034b3          	snez	s1,s1
    825c:	81dd                	srli	a1,a1,0x17
    825e:	00951793          	slli	a5,a0,0x9
    8262:	8ccd                	or	s1,s1,a1
    8264:	8c55                	or	s0,s0,a3
    8266:	8cdd                	or	s1,s1,a5
    8268:	00741793          	slli	a5,s0,0x7
    826c:	0007db63          	bgez	a5,8282 <__muldf3+0x370>
    8270:	0014d793          	srli	a5,s1,0x1
    8274:	8885                	andi	s1,s1,1
    8276:	01f41693          	slli	a3,s0,0x1f
    827a:	8cdd                	or	s1,s1,a5
    827c:	8cd5                	or	s1,s1,a3
    827e:	8005                	srli	s0,s0,0x1
    8280:	8942                	mv	s2,a6
    8282:	3ff90793          	addi	a5,s2,1023
    8286:	08f05963          	blez	a5,8318 <__muldf3+0x406>
    828a:	0074f693          	andi	a3,s1,7
    828e:	ce81                	beqz	a3,82a6 <__muldf3+0x394>
    8290:	00f4f693          	andi	a3,s1,15
    8294:	4611                	li	a2,4
    8296:	00c68863          	beq	a3,a2,82a6 <__muldf3+0x394>
    829a:	00448693          	addi	a3,s1,4
    829e:	0096b4b3          	sltu	s1,a3,s1
    82a2:	9426                	add	s0,s0,s1
    82a4:	84b6                	mv	s1,a3
    82a6:	00741693          	slli	a3,s0,0x7
    82aa:	0006d863          	bgez	a3,82ba <__muldf3+0x3a8>
    82ae:	ff0007b7          	lui	a5,0xff000
    82b2:	17fd                	addi	a5,a5,-1
    82b4:	8c7d                	and	s0,s0,a5
    82b6:	40090793          	addi	a5,s2,1024
    82ba:	7fe00693          	li	a3,2046
    82be:	0ef6cf63          	blt	a3,a5,83bc <__muldf3+0x4aa>
    82c2:	0034d693          	srli	a3,s1,0x3
    82c6:	01d41493          	slli	s1,s0,0x1d
    82ca:	0426                	slli	s0,s0,0x9
    82cc:	8cd5                	or	s1,s1,a3
    82ce:	8031                	srli	s0,s0,0xc
    82d0:	7ff7f793          	andi	a5,a5,2047
    82d4:	bb21                	j	7fec <__muldf3+0xda>
    82d6:	8532                	mv	a0,a2
    82d8:	c432                	sw	a2,8(sp)
    82da:	dc5f90ef          	jal	ra,209e <__clzsi2>
    82de:	01550693          	addi	a3,a0,21 # 10015 <_data_lma+0x5761>
    82e2:	47f1                	li	a5,28
    82e4:	02050713          	addi	a4,a0,32
    82e8:	4622                	lw	a2,8(sp)
    82ea:	dcd7d1e3          	bge	a5,a3,80ac <__muldf3+0x19a>
    82ee:	1561                	addi	a0,a0,-8
    82f0:	00a617b3          	sll	a5,a2,a0
    82f4:	4581                	li	a1,0
    82f6:	b3f9                	j	80c4 <__muldf3+0x1b2>
    82f8:	da7f90ef          	jal	ra,209e <__clzsi2>
    82fc:	01550713          	addi	a4,a0,21
    8300:	45f1                	li	a1,28
    8302:	02050793          	addi	a5,a0,32
    8306:	4622                	lw	a2,8(sp)
    8308:	46b2                	lw	a3,12(sp)
    830a:	d4e5d5e3          	bge	a1,a4,8054 <__muldf3+0x142>
    830e:	1561                	addi	a0,a0,-8
    8310:	00aa1433          	sll	s0,s4,a0
    8314:	4481                	li	s1,0
    8316:	bb99                	j	806c <__muldf3+0x15a>
    8318:	4685                	li	a3,1
    831a:	8e9d                	sub	a3,a3,a5
    831c:	e7b1                	bnez	a5,8368 <__muldf3+0x456>
    831e:	41e90913          	addi	s2,s2,1054
    8322:	012497b3          	sll	a5,s1,s2
    8326:	00d4d4b3          	srl	s1,s1,a3
    832a:	01241933          	sll	s2,s0,s2
    832e:	00f037b3          	snez	a5,a5
    8332:	009964b3          	or	s1,s2,s1
    8336:	8cdd                	or	s1,s1,a5
    8338:	0074f793          	andi	a5,s1,7
    833c:	00d456b3          	srl	a3,s0,a3
    8340:	cf81                	beqz	a5,8358 <__muldf3+0x446>
    8342:	00f4f793          	andi	a5,s1,15
    8346:	4611                	li	a2,4
    8348:	00c78863          	beq	a5,a2,8358 <__muldf3+0x446>
    834c:	00448793          	addi	a5,s1,4
    8350:	0097b4b3          	sltu	s1,a5,s1
    8354:	96a6                	add	a3,a3,s1
    8356:	84be                	mv	s1,a5
    8358:	00869793          	slli	a5,a3,0x8
    835c:	0407d863          	bgez	a5,83ac <__muldf3+0x49a>
    8360:	4785                	li	a5,1
    8362:	4401                	li	s0,0
    8364:	4481                	li	s1,0
    8366:	b159                	j	7fec <__muldf3+0xda>
    8368:	03800613          	li	a2,56
    836c:	ccd641e3          	blt	a2,a3,802e <__muldf3+0x11c>
    8370:	467d                	li	a2,31
    8372:	fad656e3          	bge	a2,a3,831e <__muldf3+0x40c>
    8376:	5605                	li	a2,-31
    8378:	40f607b3          	sub	a5,a2,a5
    837c:	02000593          	li	a1,32
    8380:	00f45633          	srl	a2,s0,a5
    8384:	00b68763          	beq	a3,a1,8392 <__muldf3+0x480>
    8388:	43e90913          	addi	s2,s2,1086
    838c:	012417b3          	sll	a5,s0,s2
    8390:	8cdd                	or	s1,s1,a5
    8392:	009034b3          	snez	s1,s1
    8396:	8cd1                	or	s1,s1,a2
    8398:	0074f693          	andi	a3,s1,7
    839c:	4401                	li	s0,0
    839e:	ca99                	beqz	a3,83b4 <__muldf3+0x4a2>
    83a0:	00f4f793          	andi	a5,s1,15
    83a4:	4611                	li	a2,4
    83a6:	4681                	li	a3,0
    83a8:	fac792e3          	bne	a5,a2,834c <__muldf3+0x43a>
    83ac:	00969413          	slli	s0,a3,0x9
    83b0:	8031                	srli	s0,s0,0xc
    83b2:	06f6                	slli	a3,a3,0x1d
    83b4:	808d                	srli	s1,s1,0x3
    83b6:	8cd5                	or	s1,s1,a3
    83b8:	4781                	li	a5,0
    83ba:	b90d                	j	7fec <__muldf3+0xda>
    83bc:	7ff00793          	li	a5,2047
    83c0:	4401                	li	s0,0
    83c2:	4481                	li	s1,0
    83c4:	b125                	j	7fec <__muldf3+0xda>
    83c6:	8942                	mv	s2,a6
    83c8:	bd6d                	j	8282 <__muldf3+0x370>

000083ca <__subdf3>:
    83ca:	00100737          	lui	a4,0x100
    83ce:	177d                	addi	a4,a4,-1
    83d0:	1101                	addi	sp,sp,-32
    83d2:	00b77333          	and	t1,a4,a1
    83d6:	0146d893          	srli	a7,a3,0x14
    83da:	8f75                	and	a4,a4,a3
    83dc:	01d65e93          	srli	t4,a2,0x1d
    83e0:	cc22                	sw	s0,24(sp)
    83e2:	ca26                	sw	s1,20(sp)
    83e4:	030e                	slli	t1,t1,0x3
    83e6:	0145d493          	srli	s1,a1,0x14
    83ea:	01d55793          	srli	a5,a0,0x1d
    83ee:	070e                	slli	a4,a4,0x3
    83f0:	ce06                	sw	ra,28(sp)
    83f2:	c84a                	sw	s2,16(sp)
    83f4:	c64e                	sw	s3,12(sp)
    83f6:	7ff8f893          	andi	a7,a7,2047
    83fa:	7ff00e13          	li	t3,2047
    83fe:	00eee733          	or	a4,t4,a4
    8402:	7ff4f493          	andi	s1,s1,2047
    8406:	01f5d413          	srli	s0,a1,0x1f
    840a:	0067e333          	or	t1,a5,t1
    840e:	00351f13          	slli	t5,a0,0x3
    8412:	82fd                	srli	a3,a3,0x1f
    8414:	00361e93          	slli	t4,a2,0x3
    8418:	19c88063          	beq	a7,t3,8598 <__subdf3+0x1ce>
    841c:	0016c693          	xori	a3,a3,1
    8420:	411485b3          	sub	a1,s1,a7
    8424:	12d40563          	beq	s0,a3,854e <__subdf3+0x184>
    8428:	18b05163          	blez	a1,85aa <__subdf3+0x1e0>
    842c:	1a088b63          	beqz	a7,85e2 <__subdf3+0x218>
    8430:	008007b7          	lui	a5,0x800
    8434:	8f5d                	or	a4,a4,a5
    8436:	59c48163          	beq	s1,t3,89b8 <__subdf3+0x5ee>
    843a:	03800793          	li	a5,56
    843e:	34b7c463          	blt	a5,a1,8786 <__subdf3+0x3bc>
    8442:	47fd                	li	a5,31
    8444:	48b7c563          	blt	a5,a1,88ce <__subdf3+0x504>
    8448:	02000793          	li	a5,32
    844c:	8f8d                	sub	a5,a5,a1
    844e:	00bed9b3          	srl	s3,t4,a1
    8452:	00f71833          	sll	a6,a4,a5
    8456:	00fe9eb3          	sll	t4,t4,a5
    845a:	01386833          	or	a6,a6,s3
    845e:	00b75733          	srl	a4,a4,a1
    8462:	01d039b3          	snez	s3,t4
    8466:	01386833          	or	a6,a6,s3
    846a:	40e30333          	sub	t1,t1,a4
    846e:	410f09b3          	sub	s3,t5,a6
    8472:	013f37b3          	sltu	a5,t5,s3
    8476:	40f30633          	sub	a2,t1,a5
    847a:	00861793          	slli	a5,a2,0x8
    847e:	2407d363          	bgez	a5,86c4 <__subdf3+0x2fa>
    8482:	00800937          	lui	s2,0x800
    8486:	197d                	addi	s2,s2,-1
    8488:	01267933          	and	s2,a2,s2
    848c:	2c090f63          	beqz	s2,876a <__subdf3+0x3a0>
    8490:	854a                	mv	a0,s2
    8492:	c0df90ef          	jal	ra,209e <__clzsi2>
    8496:	ff850713          	addi	a4,a0,-8
    849a:	02000793          	li	a5,32
    849e:	8f99                	sub	a5,a5,a4
    84a0:	00f9d7b3          	srl	a5,s3,a5
    84a4:	00e91633          	sll	a2,s2,a4
    84a8:	8fd1                	or	a5,a5,a2
    84aa:	00e999b3          	sll	s3,s3,a4
    84ae:	2a974463          	blt	a4,s1,8756 <__subdf3+0x38c>
    84b2:	8f05                	sub	a4,a4,s1
    84b4:	00170613          	addi	a2,a4,1 # 100001 <_data_lma+0xf574d>
    84b8:	46fd                	li	a3,31
    84ba:	3ac6c563          	blt	a3,a2,8864 <__subdf3+0x49a>
    84be:	02000713          	li	a4,32
    84c2:	8f11                	sub	a4,a4,a2
    84c4:	00c9d6b3          	srl	a3,s3,a2
    84c8:	00e99833          	sll	a6,s3,a4
    84cc:	00e79733          	sll	a4,a5,a4
    84d0:	8f55                	or	a4,a4,a3
    84d2:	01003833          	snez	a6,a6
    84d6:	010769b3          	or	s3,a4,a6
    84da:	00c7d633          	srl	a2,a5,a2
    84de:	4481                	li	s1,0
    84e0:	0079f793          	andi	a5,s3,7
    84e4:	cf81                	beqz	a5,84fc <__subdf3+0x132>
    84e6:	00f9f693          	andi	a3,s3,15
    84ea:	4791                	li	a5,4
    84ec:	00f68863          	beq	a3,a5,84fc <__subdf3+0x132>
    84f0:	00498693          	addi	a3,s3,4
    84f4:	0136b833          	sltu	a6,a3,s3
    84f8:	9642                	add	a2,a2,a6
    84fa:	89b6                	mv	s3,a3
    84fc:	00861793          	slli	a5,a2,0x8
    8500:	1c07d663          	bgez	a5,86cc <__subdf3+0x302>
    8504:	00148713          	addi	a4,s1,1
    8508:	7ff00793          	li	a5,2047
    850c:	8805                	andi	s0,s0,1
    850e:	20f70663          	beq	a4,a5,871a <__subdf3+0x350>
    8512:	ff8007b7          	lui	a5,0xff800
    8516:	17fd                	addi	a5,a5,-1
    8518:	8ff1                	and	a5,a5,a2
    851a:	01d79813          	slli	a6,a5,0x1d
    851e:	0039d993          	srli	s3,s3,0x3
    8522:	07a6                	slli	a5,a5,0x9
    8524:	01386833          	or	a6,a6,s3
    8528:	83b1                	srli	a5,a5,0xc
    852a:	7ff77713          	andi	a4,a4,2047
    852e:	00c79693          	slli	a3,a5,0xc
    8532:	0752                	slli	a4,a4,0x14
    8534:	82b1                	srli	a3,a3,0xc
    8536:	047e                	slli	s0,s0,0x1f
    8538:	8ed9                	or	a3,a3,a4
    853a:	8ec1                	or	a3,a3,s0
    853c:	40f2                	lw	ra,28(sp)
    853e:	4462                	lw	s0,24(sp)
    8540:	44d2                	lw	s1,20(sp)
    8542:	4942                	lw	s2,16(sp)
    8544:	49b2                	lw	s3,12(sp)
    8546:	8542                	mv	a0,a6
    8548:	85b6                	mv	a1,a3
    854a:	6105                	addi	sp,sp,32
    854c:	8082                	ret
    854e:	0ab05663          	blez	a1,85fa <__subdf3+0x230>
    8552:	12088a63          	beqz	a7,8686 <__subdf3+0x2bc>
    8556:	008007b7          	lui	a5,0x800
    855a:	8f5d                	or	a4,a4,a5
    855c:	2dc48763          	beq	s1,t3,882a <__subdf3+0x460>
    8560:	03800793          	li	a5,56
    8564:	18b7c763          	blt	a5,a1,86f2 <__subdf3+0x328>
    8568:	47fd                	li	a5,31
    856a:	3cb7d263          	bge	a5,a1,892e <__subdf3+0x564>
    856e:	fe058813          	addi	a6,a1,-32 # ffe0 <_data_lma+0x572c>
    8572:	02000793          	li	a5,32
    8576:	010759b3          	srl	s3,a4,a6
    857a:	00f58a63          	beq	a1,a5,858e <__subdf3+0x1c4>
    857e:	04000793          	li	a5,64
    8582:	40b785b3          	sub	a1,a5,a1
    8586:	00b71733          	sll	a4,a4,a1
    858a:	00eeeeb3          	or	t4,t4,a4
    858e:	01d03833          	snez	a6,t4
    8592:	01386833          	or	a6,a6,s3
    8596:	a295                	j	86fa <__subdf3+0x330>
    8598:	01d767b3          	or	a5,a4,t4
    859c:	80148593          	addi	a1,s1,-2047
    85a0:	e399                	bnez	a5,85a6 <__subdf3+0x1dc>
    85a2:	0016c693          	xori	a3,a3,1
    85a6:	04d40a63          	beq	s0,a3,85fa <__subdf3+0x230>
    85aa:	e1d1                	bnez	a1,862e <__subdf3+0x264>
    85ac:	00148793          	addi	a5,s1,1
    85b0:	7fe7f793          	andi	a5,a5,2046
    85b4:	1e079963          	bnez	a5,87a6 <__subdf3+0x3dc>
    85b8:	01e367b3          	or	a5,t1,t5
    85bc:	01d76833          	or	a6,a4,t4
    85c0:	16049263          	bnez	s1,8724 <__subdf3+0x35a>
    85c4:	3c078263          	beqz	a5,8988 <__subdf3+0x5be>
    85c8:	42081663          	bnez	a6,89f4 <__subdf3+0x62a>
    85cc:	00351813          	slli	a6,a0,0x3
    85d0:	01d31693          	slli	a3,t1,0x1d
    85d4:	00385813          	srli	a6,a6,0x3
    85d8:	0106e833          	or	a6,a3,a6
    85dc:	00335793          	srli	a5,t1,0x3
    85e0:	a219                	j	86e6 <__subdf3+0x31c>
    85e2:	01d767b3          	or	a5,a4,t4
    85e6:	1a078563          	beqz	a5,8790 <__subdf3+0x3c6>
    85ea:	fff58793          	addi	a5,a1,-1
    85ee:	3a078b63          	beqz	a5,89a4 <__subdf3+0x5da>
    85f2:	23c58c63          	beq	a1,t3,882a <__subdf3+0x460>
    85f6:	85be                	mv	a1,a5
    85f8:	b589                	j	843a <__subdf3+0x70>
    85fa:	1c059963          	bnez	a1,87cc <__subdf3+0x402>
    85fe:	00148693          	addi	a3,s1,1
    8602:	7fe6f793          	andi	a5,a3,2046
    8606:	efc1                	bnez	a5,869e <__subdf3+0x2d4>
    8608:	01e367b3          	or	a5,t1,t5
    860c:	36049063          	bnez	s1,896c <__subdf3+0x5a2>
    8610:	44078d63          	beqz	a5,8a6a <__subdf3+0x6a0>
    8614:	01d767b3          	or	a5,a4,t4
    8618:	46079463          	bnez	a5,8a80 <__subdf3+0x6b6>
    861c:	050e                	slli	a0,a0,0x3
    861e:	01d31813          	slli	a6,t1,0x1d
    8622:	810d                	srli	a0,a0,0x3
    8624:	00a86833          	or	a6,a6,a0
    8628:	00335793          	srli	a5,t1,0x3
    862c:	a86d                	j	86e6 <__subdf3+0x31c>
    862e:	409885b3          	sub	a1,a7,s1
    8632:	20049763          	bnez	s1,8840 <__subdf3+0x476>
    8636:	01e367b3          	or	a5,t1,t5
    863a:	30078d63          	beqz	a5,8954 <__subdf3+0x58a>
    863e:	fff58793          	addi	a5,a1,-1
    8642:	40078963          	beqz	a5,8a54 <__subdf3+0x68a>
    8646:	7ff00513          	li	a0,2047
    864a:	20a58363          	beq	a1,a0,8850 <__subdf3+0x486>
    864e:	85be                	mv	a1,a5
    8650:	03800793          	li	a5,56
    8654:	2ab7c263          	blt	a5,a1,88f8 <__subdf3+0x52e>
    8658:	47fd                	li	a5,31
    865a:	3cb7c863          	blt	a5,a1,8a2a <__subdf3+0x660>
    865e:	02000793          	li	a5,32
    8662:	8f8d                	sub	a5,a5,a1
    8664:	00f31833          	sll	a6,t1,a5
    8668:	00bf5633          	srl	a2,t5,a1
    866c:	00ff17b3          	sll	a5,t5,a5
    8670:	00c86833          	or	a6,a6,a2
    8674:	00f039b3          	snez	s3,a5
    8678:	00b35333          	srl	t1,t1,a1
    867c:	01386833          	or	a6,a6,s3
    8680:	40670733          	sub	a4,a4,t1
    8684:	acb5                	j	8900 <__subdf3+0x536>
    8686:	01d767b3          	or	a5,a4,t4
    868a:	10078363          	beqz	a5,8790 <__subdf3+0x3c6>
    868e:	fff58793          	addi	a5,a1,-1
    8692:	1e078f63          	beqz	a5,8890 <__subdf3+0x4c6>
    8696:	2fc58063          	beq	a1,t3,8976 <__subdf3+0x5ac>
    869a:	85be                	mv	a1,a5
    869c:	b5d1                	j	8560 <__subdf3+0x196>
    869e:	7ff00793          	li	a5,2047
    86a2:	06f68b63          	beq	a3,a5,8718 <__subdf3+0x34e>
    86a6:	9efa                	add	t4,t4,t5
    86a8:	01eeb633          	sltu	a2,t4,t5
    86ac:	00e307b3          	add	a5,t1,a4
    86b0:	97b2                	add	a5,a5,a2
    86b2:	01f79813          	slli	a6,a5,0x1f
    86b6:	001ede93          	srli	t4,t4,0x1
    86ba:	01d869b3          	or	s3,a6,t4
    86be:	0017d613          	srli	a2,a5,0x1
    86c2:	84b6                	mv	s1,a3
    86c4:	0079f793          	andi	a5,s3,7
    86c8:	e0079fe3          	bnez	a5,84e6 <__subdf3+0x11c>
    86cc:	01d61793          	slli	a5,a2,0x1d
    86d0:	0039d813          	srli	a6,s3,0x3
    86d4:	00f86833          	or	a6,a6,a5
    86d8:	85a6                	mv	a1,s1
    86da:	00365793          	srli	a5,a2,0x3
    86de:	7ff00713          	li	a4,2047
    86e2:	06e58063          	beq	a1,a4,8742 <__subdf3+0x378>
    86e6:	07b2                	slli	a5,a5,0xc
    86e8:	83b1                	srli	a5,a5,0xc
    86ea:	7ff5f713          	andi	a4,a1,2047
    86ee:	8805                	andi	s0,s0,1
    86f0:	bd3d                	j	852e <__subdf3+0x164>
    86f2:	01d76733          	or	a4,a4,t4
    86f6:	00e03833          	snez	a6,a4
    86fa:	01e809b3          	add	s3,a6,t5
    86fe:	01e9b7b3          	sltu	a5,s3,t5
    8702:	00678633          	add	a2,a5,t1
    8706:	00861793          	slli	a5,a2,0x8
    870a:	fa07dde3          	bgez	a5,86c4 <__subdf3+0x2fa>
    870e:	0485                	addi	s1,s1,1
    8710:	7ff00793          	li	a5,2047
    8714:	18f49c63          	bne	s1,a5,88ac <__subdf3+0x4e2>
    8718:	8805                	andi	s0,s0,1
    871a:	7ff00713          	li	a4,2047
    871e:	4781                	li	a5,0
    8720:	4801                	li	a6,0
    8722:	b531                	j	852e <__subdf3+0x164>
    8724:	10079163          	bnez	a5,8826 <__subdf3+0x45c>
    8728:	3c080163          	beqz	a6,8aea <__subdf3+0x720>
    872c:	00361813          	slli	a6,a2,0x3
    8730:	01d71793          	slli	a5,a4,0x1d
    8734:	00385813          	srli	a6,a6,0x3
    8738:	00f86833          	or	a6,a6,a5
    873c:	8436                	mv	s0,a3
    873e:	00375793          	srli	a5,a4,0x3
    8742:	00f867b3          	or	a5,a6,a5
    8746:	dbe9                	beqz	a5,8718 <__subdf3+0x34e>
    8748:	4401                	li	s0,0
    874a:	7ff00713          	li	a4,2047
    874e:	000807b7          	lui	a5,0x80
    8752:	4801                	li	a6,0
    8754:	bbe9                	j	852e <__subdf3+0x164>
    8756:	ff800637          	lui	a2,0xff800
    875a:	167d                	addi	a2,a2,-1
    875c:	8e7d                	and	a2,a2,a5
    875e:	0079f793          	andi	a5,s3,7
    8762:	8c99                	sub	s1,s1,a4
    8764:	d80791e3          	bnez	a5,84e6 <__subdf3+0x11c>
    8768:	b795                	j	86cc <__subdf3+0x302>
    876a:	854e                	mv	a0,s3
    876c:	933f90ef          	jal	ra,209e <__clzsi2>
    8770:	01850713          	addi	a4,a0,24
    8774:	47fd                	li	a5,31
    8776:	d2e7d2e3          	bge	a5,a4,849a <__subdf3+0xd0>
    877a:	ff850613          	addi	a2,a0,-8
    877e:	00c997b3          	sll	a5,s3,a2
    8782:	4981                	li	s3,0
    8784:	b32d                	j	84ae <__subdf3+0xe4>
    8786:	01d76833          	or	a6,a4,t4
    878a:	01003833          	snez	a6,a6
    878e:	b1c5                	j	846e <__subdf3+0xa4>
    8790:	00351813          	slli	a6,a0,0x3
    8794:	01d31793          	slli	a5,t1,0x1d
    8798:	00385813          	srli	a6,a6,0x3
    879c:	00f86833          	or	a6,a6,a5
    87a0:	00335793          	srli	a5,t1,0x3
    87a4:	bf2d                	j	86de <__subdf3+0x314>
    87a6:	41df09b3          	sub	s3,t5,t4
    87aa:	40e30933          	sub	s2,t1,a4
    87ae:	013f3633          	sltu	a2,t5,s3
    87b2:	40c90933          	sub	s2,s2,a2
    87b6:	00891793          	slli	a5,s2,0x8
    87ba:	2007ca63          	bltz	a5,89ce <__subdf3+0x604>
    87be:	0129e833          	or	a6,s3,s2
    87c2:	cc0815e3          	bnez	a6,848c <__subdf3+0xc2>
    87c6:	4781                	li	a5,0
    87c8:	4401                	li	s0,0
    87ca:	bf31                	j	86e6 <__subdf3+0x31c>
    87cc:	409885b3          	sub	a1,a7,s1
    87d0:	14048163          	beqz	s1,8912 <__subdf3+0x548>
    87d4:	008006b7          	lui	a3,0x800
    87d8:	7ff00793          	li	a5,2047
    87dc:	00d36333          	or	t1,t1,a3
    87e0:	20f88163          	beq	a7,a5,89e2 <__subdf3+0x618>
    87e4:	03800793          	li	a5,56
    87e8:	22b7cc63          	blt	a5,a1,8a20 <__subdf3+0x656>
    87ec:	47fd                	li	a5,31
    87ee:	2cb7c963          	blt	a5,a1,8ac0 <__subdf3+0x6f6>
    87f2:	02000793          	li	a5,32
    87f6:	8f8d                	sub	a5,a5,a1
    87f8:	00f31833          	sll	a6,t1,a5
    87fc:	00bf56b3          	srl	a3,t5,a1
    8800:	00ff17b3          	sll	a5,t5,a5
    8804:	00d86833          	or	a6,a6,a3
    8808:	00f039b3          	snez	s3,a5
    880c:	00b35333          	srl	t1,t1,a1
    8810:	01386833          	or	a6,a6,s3
    8814:	971a                	add	a4,a4,t1
    8816:	01d809b3          	add	s3,a6,t4
    881a:	01d9b7b3          	sltu	a5,s3,t4
    881e:	00e78633          	add	a2,a5,a4
    8822:	84c6                	mv	s1,a7
    8824:	b5cd                	j	8706 <__subdf3+0x33c>
    8826:	f20811e3          	bnez	a6,8748 <__subdf3+0x37e>
    882a:	00351813          	slli	a6,a0,0x3
    882e:	01d31793          	slli	a5,t1,0x1d
    8832:	00385813          	srli	a6,a6,0x3
    8836:	00f86833          	or	a6,a6,a5
    883a:	00335793          	srli	a5,t1,0x3
    883e:	b711                	j	8742 <__subdf3+0x378>
    8840:	00800537          	lui	a0,0x800
    8844:	7ff00793          	li	a5,2047
    8848:	00a36333          	or	t1,t1,a0
    884c:	e0f892e3          	bne	a7,a5,8650 <__subdf3+0x286>
    8850:	060e                	slli	a2,a2,0x3
    8852:	01d71813          	slli	a6,a4,0x1d
    8856:	820d                	srli	a2,a2,0x3
    8858:	00c86833          	or	a6,a6,a2
    885c:	00375793          	srli	a5,a4,0x3
    8860:	8436                	mv	s0,a3
    8862:	b5c5                	j	8742 <__subdf3+0x378>
    8864:	1705                	addi	a4,a4,-31
    8866:	02000693          	li	a3,32
    886a:	00e7d733          	srl	a4,a5,a4
    886e:	00d60a63          	beq	a2,a3,8882 <__subdf3+0x4b8>
    8872:	04000693          	li	a3,64
    8876:	40c68633          	sub	a2,a3,a2
    887a:	00c79633          	sll	a2,a5,a2
    887e:	00c9e9b3          	or	s3,s3,a2
    8882:	01303833          	snez	a6,s3
    8886:	00e869b3          	or	s3,a6,a4
    888a:	4601                	li	a2,0
    888c:	4481                	li	s1,0
    888e:	bd1d                	j	86c4 <__subdf3+0x2fa>
    8890:	01df09b3          	add	s3,t5,t4
    8894:	00e307b3          	add	a5,t1,a4
    8898:	01e9bf33          	sltu	t5,s3,t5
    889c:	01e78633          	add	a2,a5,t5
    88a0:	00861793          	slli	a5,a2,0x8
    88a4:	4485                	li	s1,1
    88a6:	e007dfe3          	bgez	a5,86c4 <__subdf3+0x2fa>
    88aa:	4489                	li	s1,2
    88ac:	ff8007b7          	lui	a5,0xff800
    88b0:	17fd                	addi	a5,a5,-1
    88b2:	8ff1                	and	a5,a5,a2
    88b4:	0019d713          	srli	a4,s3,0x1
    88b8:	0019f813          	andi	a6,s3,1
    88bc:	01076833          	or	a6,a4,a6
    88c0:	01f79993          	slli	s3,a5,0x1f
    88c4:	0109e9b3          	or	s3,s3,a6
    88c8:	0017d613          	srli	a2,a5,0x1
    88cc:	b911                	j	84e0 <__subdf3+0x116>
    88ce:	fe058813          	addi	a6,a1,-32
    88d2:	02000793          	li	a5,32
    88d6:	010759b3          	srl	s3,a4,a6
    88da:	00f58a63          	beq	a1,a5,88ee <__subdf3+0x524>
    88de:	04000793          	li	a5,64
    88e2:	40b785b3          	sub	a1,a5,a1
    88e6:	00b71733          	sll	a4,a4,a1
    88ea:	00eeeeb3          	or	t4,t4,a4
    88ee:	01d03833          	snez	a6,t4
    88f2:	01386833          	or	a6,a6,s3
    88f6:	bea5                	j	846e <__subdf3+0xa4>
    88f8:	01e36333          	or	t1,t1,t5
    88fc:	00603833          	snez	a6,t1
    8900:	410e89b3          	sub	s3,t4,a6
    8904:	013eb7b3          	sltu	a5,t4,s3
    8908:	40f70633          	sub	a2,a4,a5
    890c:	84c6                	mv	s1,a7
    890e:	8436                	mv	s0,a3
    8910:	b6ad                	j	847a <__subdf3+0xb0>
    8912:	01e367b3          	or	a5,t1,t5
    8916:	18078763          	beqz	a5,8aa4 <__subdf3+0x6da>
    891a:	fff58793          	addi	a5,a1,-1
    891e:	1c078c63          	beqz	a5,8af6 <__subdf3+0x72c>
    8922:	7ff00693          	li	a3,2047
    8926:	0ad58e63          	beq	a1,a3,89e2 <__subdf3+0x618>
    892a:	85be                	mv	a1,a5
    892c:	bd65                	j	87e4 <__subdf3+0x41a>
    892e:	02000793          	li	a5,32
    8932:	8f8d                	sub	a5,a5,a1
    8934:	00bed9b3          	srl	s3,t4,a1
    8938:	00f71833          	sll	a6,a4,a5
    893c:	00fe9eb3          	sll	t4,t4,a5
    8940:	01386833          	or	a6,a6,s3
    8944:	00b75733          	srl	a4,a4,a1
    8948:	01d039b3          	snez	s3,t4
    894c:	01386833          	or	a6,a6,s3
    8950:	933a                	add	t1,t1,a4
    8952:	b365                	j	86fa <__subdf3+0x330>
    8954:	00361813          	slli	a6,a2,0x3
    8958:	01d71793          	slli	a5,a4,0x1d
    895c:	00385813          	srli	a6,a6,0x3
    8960:	0107e833          	or	a6,a5,a6
    8964:	8436                	mv	s0,a3
    8966:	00375793          	srli	a5,a4,0x3
    896a:	bb95                	j	86de <__subdf3+0x314>
    896c:	cbbd                	beqz	a5,89e2 <__subdf3+0x618>
    896e:	01d76733          	or	a4,a4,t4
    8972:	dc071be3          	bnez	a4,8748 <__subdf3+0x37e>
    8976:	050e                	slli	a0,a0,0x3
    8978:	01d31813          	slli	a6,t1,0x1d
    897c:	810d                	srli	a0,a0,0x3
    897e:	00a86833          	or	a6,a6,a0
    8982:	00335793          	srli	a5,t1,0x3
    8986:	bb75                	j	8742 <__subdf3+0x378>
    8988:	e2080fe3          	beqz	a6,87c6 <__subdf3+0x3fc>
    898c:	00361813          	slli	a6,a2,0x3
    8990:	01d71793          	slli	a5,a4,0x1d
    8994:	00385813          	srli	a6,a6,0x3
    8998:	00f86833          	or	a6,a6,a5
    899c:	8436                	mv	s0,a3
    899e:	00375793          	srli	a5,a4,0x3
    89a2:	b391                	j	86e6 <__subdf3+0x31c>
    89a4:	41df09b3          	sub	s3,t5,t4
    89a8:	40e307b3          	sub	a5,t1,a4
    89ac:	013f3f33          	sltu	t5,t5,s3
    89b0:	41e78633          	sub	a2,a5,t5
    89b4:	4485                	li	s1,1
    89b6:	b4d1                	j	847a <__subdf3+0xb0>
    89b8:	00351813          	slli	a6,a0,0x3
    89bc:	01d31693          	slli	a3,t1,0x1d
    89c0:	00385813          	srli	a6,a6,0x3
    89c4:	0106e833          	or	a6,a3,a6
    89c8:	00335793          	srli	a5,t1,0x3
    89cc:	bb9d                	j	8742 <__subdf3+0x378>
    89ce:	41ee89b3          	sub	s3,t4,t5
    89d2:	40670633          	sub	a2,a4,t1
    89d6:	013eb933          	sltu	s2,t4,s3
    89da:	41260933          	sub	s2,a2,s2
    89de:	8436                	mv	s0,a3
    89e0:	b475                	j	848c <__subdf3+0xc2>
    89e2:	060e                	slli	a2,a2,0x3
    89e4:	01d71813          	slli	a6,a4,0x1d
    89e8:	820d                	srli	a2,a2,0x3
    89ea:	00c86833          	or	a6,a6,a2
    89ee:	00375793          	srli	a5,a4,0x3
    89f2:	bb81                	j	8742 <__subdf3+0x378>
    89f4:	41df09b3          	sub	s3,t5,t4
    89f8:	40e307b3          	sub	a5,t1,a4
    89fc:	013f3633          	sltu	a2,t5,s3
    8a00:	40c78633          	sub	a2,a5,a2
    8a04:	00861793          	slli	a5,a2,0x8
    8a08:	0a07d763          	bgez	a5,8ab6 <__subdf3+0x6ec>
    8a0c:	41ee89b3          	sub	s3,t4,t5
    8a10:	406707b3          	sub	a5,a4,t1
    8a14:	013ebeb3          	sltu	t4,t4,s3
    8a18:	41d78633          	sub	a2,a5,t4
    8a1c:	8436                	mv	s0,a3
    8a1e:	b4c9                	j	84e0 <__subdf3+0x116>
    8a20:	01e36333          	or	t1,t1,t5
    8a24:	00603833          	snez	a6,t1
    8a28:	b3fd                	j	8816 <__subdf3+0x44c>
    8a2a:	fe058813          	addi	a6,a1,-32
    8a2e:	02000793          	li	a5,32
    8a32:	010359b3          	srl	s3,t1,a6
    8a36:	00f58a63          	beq	a1,a5,8a4a <__subdf3+0x680>
    8a3a:	04000793          	li	a5,64
    8a3e:	40b785b3          	sub	a1,a5,a1
    8a42:	00b31333          	sll	t1,t1,a1
    8a46:	006f6f33          	or	t5,t5,t1
    8a4a:	01e03833          	snez	a6,t5
    8a4e:	01386833          	or	a6,a6,s3
    8a52:	b57d                	j	8900 <__subdf3+0x536>
    8a54:	41ee89b3          	sub	s3,t4,t5
    8a58:	406707b3          	sub	a5,a4,t1
    8a5c:	013ebeb3          	sltu	t4,t4,s3
    8a60:	41d78633          	sub	a2,a5,t4
    8a64:	8436                	mv	s0,a3
    8a66:	4485                	li	s1,1
    8a68:	bc09                	j	847a <__subdf3+0xb0>
    8a6a:	00361813          	slli	a6,a2,0x3
    8a6e:	01d71793          	slli	a5,a4,0x1d
    8a72:	00385813          	srli	a6,a6,0x3
    8a76:	00f86833          	or	a6,a6,a5
    8a7a:	00375793          	srli	a5,a4,0x3
    8a7e:	b1a5                	j	86e6 <__subdf3+0x31c>
    8a80:	01df09b3          	add	s3,t5,t4
    8a84:	00e307b3          	add	a5,t1,a4
    8a88:	01e9bf33          	sltu	t5,s3,t5
    8a8c:	01e78633          	add	a2,a5,t5
    8a90:	00861793          	slli	a5,a2,0x8
    8a94:	c207d8e3          	bgez	a5,86c4 <__subdf3+0x2fa>
    8a98:	ff8007b7          	lui	a5,0xff800
    8a9c:	17fd                	addi	a5,a5,-1
    8a9e:	8e7d                	and	a2,a2,a5
    8aa0:	4485                	li	s1,1
    8aa2:	b10d                	j	86c4 <__subdf3+0x2fa>
    8aa4:	060e                	slli	a2,a2,0x3
    8aa6:	01d71813          	slli	a6,a4,0x1d
    8aaa:	820d                	srli	a2,a2,0x3
    8aac:	00c86833          	or	a6,a6,a2
    8ab0:	00375793          	srli	a5,a4,0x3
    8ab4:	b12d                	j	86de <__subdf3+0x314>
    8ab6:	00c9e833          	or	a6,s3,a2
    8aba:	d00806e3          	beqz	a6,87c6 <__subdf3+0x3fc>
    8abe:	b119                	j	86c4 <__subdf3+0x2fa>
    8ac0:	fe058813          	addi	a6,a1,-32
    8ac4:	02000793          	li	a5,32
    8ac8:	010359b3          	srl	s3,t1,a6
    8acc:	00f58a63          	beq	a1,a5,8ae0 <__subdf3+0x716>
    8ad0:	04000793          	li	a5,64
    8ad4:	40b785b3          	sub	a1,a5,a1
    8ad8:	00b31333          	sll	t1,t1,a1
    8adc:	006f6f33          	or	t5,t5,t1
    8ae0:	01e03833          	snez	a6,t5
    8ae4:	01386833          	or	a6,a6,s3
    8ae8:	b33d                	j	8816 <__subdf3+0x44c>
    8aea:	4401                	li	s0,0
    8aec:	7ff00713          	li	a4,2047
    8af0:	000807b7          	lui	a5,0x80
    8af4:	bc2d                	j	852e <__subdf3+0x164>
    8af6:	01df09b3          	add	s3,t5,t4
    8afa:	00e307b3          	add	a5,t1,a4
    8afe:	01d9beb3          	sltu	t4,s3,t4
    8b02:	01d78633          	add	a2,a5,t4
    8b06:	bb69                	j	88a0 <__subdf3+0x4d6>

00008b08 <__unorddf2>:
    8b08:	0145d713          	srli	a4,a1,0x14
    8b0c:	001007b7          	lui	a5,0x100
    8b10:	17fd                	addi	a5,a5,-1
    8b12:	fff74713          	not	a4,a4
    8b16:	0146d813          	srli	a6,a3,0x14
    8b1a:	8dfd                	and	a1,a1,a5
    8b1c:	8ff5                	and	a5,a5,a3
    8b1e:	01571693          	slli	a3,a4,0x15
    8b22:	7ff87813          	andi	a6,a6,2047
    8b26:	ca99                	beqz	a3,8b3c <__unorddf2+0x34>
    8b28:	7ff00713          	li	a4,2047
    8b2c:	4501                	li	a0,0
    8b2e:	00e80363          	beq	a6,a4,8b34 <__unorddf2+0x2c>
    8b32:	8082                	ret
    8b34:	8fd1                	or	a5,a5,a2
    8b36:	00f03533          	snez	a0,a5
    8b3a:	8082                	ret
    8b3c:	8dc9                	or	a1,a1,a0
    8b3e:	4505                	li	a0,1
    8b40:	d5e5                	beqz	a1,8b28 <__unorddf2+0x20>
    8b42:	8082                	ret

00008b44 <__fixdfsi>:
    8b44:	0145d793          	srli	a5,a1,0x14
    8b48:	001006b7          	lui	a3,0x100
    8b4c:	fff68713          	addi	a4,a3,-1 # fffff <_data_lma+0xf574b>
    8b50:	7ff7f793          	andi	a5,a5,2047
    8b54:	3fe00613          	li	a2,1022
    8b58:	8f6d                	and	a4,a4,a1
    8b5a:	81fd                	srli	a1,a1,0x1f
    8b5c:	00f65c63          	bge	a2,a5,8b74 <__fixdfsi+0x30>
    8b60:	41d00613          	li	a2,1053
    8b64:	00f65a63          	bge	a2,a5,8b78 <__fixdfsi+0x34>
    8b68:	80000537          	lui	a0,0x80000
    8b6c:	fff54513          	not	a0,a0
    8b70:	952e                	add	a0,a0,a1
    8b72:	8082                	ret
    8b74:	4501                	li	a0,0
    8b76:	8082                	ret
    8b78:	43300613          	li	a2,1075
    8b7c:	8e1d                	sub	a2,a2,a5
    8b7e:	487d                	li	a6,31
    8b80:	8f55                	or	a4,a4,a3
    8b82:	00c85d63          	bge	a6,a2,8b9c <__fixdfsi+0x58>
    8b86:	41300693          	li	a3,1043
    8b8a:	40f687b3          	sub	a5,a3,a5
    8b8e:	00f757b3          	srl	a5,a4,a5
    8b92:	40f00533          	neg	a0,a5
    8b96:	f1e5                	bnez	a1,8b76 <__fixdfsi+0x32>
    8b98:	853e                	mv	a0,a5
    8b9a:	8082                	ret
    8b9c:	bed78793          	addi	a5,a5,-1043 # ffbed <_data_lma+0xf5339>
    8ba0:	00f717b3          	sll	a5,a4,a5
    8ba4:	00c55533          	srl	a0,a0,a2
    8ba8:	8fc9                	or	a5,a5,a0
    8baa:	b7e5                	j	8b92 <__fixdfsi+0x4e>

00008bac <__fixunsdfsi>:
    8bac:	0145d793          	srli	a5,a1,0x14
    8bb0:	001006b7          	lui	a3,0x100
    8bb4:	fff68713          	addi	a4,a3,-1 # fffff <_data_lma+0xf574b>
    8bb8:	7ff7f793          	andi	a5,a5,2047
    8bbc:	3fe00613          	li	a2,1022
    8bc0:	882a                	mv	a6,a0
    8bc2:	8f6d                	and	a4,a4,a1
    8bc4:	4501                	li	a0,0
    8bc6:	81fd                	srli	a1,a1,0x1f
    8bc8:	00f65463          	bge	a2,a5,8bd0 <__fixunsdfsi+0x24>
    8bcc:	c199                	beqz	a1,8bd2 <__fixunsdfsi+0x26>
    8bce:	8082                	ret
    8bd0:	8082                	ret
    8bd2:	41e00613          	li	a2,1054
    8bd6:	557d                	li	a0,-1
    8bd8:	fef64be3          	blt	a2,a5,8bce <__fixunsdfsi+0x22>
    8bdc:	43300513          	li	a0,1075
    8be0:	8d1d                	sub	a0,a0,a5
    8be2:	467d                	li	a2,31
    8be4:	8f55                	or	a4,a4,a3
    8be6:	00a64a63          	blt	a2,a0,8bfa <__fixunsdfsi+0x4e>
    8bea:	bed78793          	addi	a5,a5,-1043
    8bee:	00f71733          	sll	a4,a4,a5
    8bf2:	00a85533          	srl	a0,a6,a0
    8bf6:	8d59                	or	a0,a0,a4
    8bf8:	8082                	ret
    8bfa:	41300513          	li	a0,1043
    8bfe:	40f507b3          	sub	a5,a0,a5
    8c02:	00f75533          	srl	a0,a4,a5
    8c06:	8082                	ret

00008c08 <__floatsidf>:
    8c08:	1141                	addi	sp,sp,-16
    8c0a:	c606                	sw	ra,12(sp)
    8c0c:	c422                	sw	s0,8(sp)
    8c0e:	c226                	sw	s1,4(sp)
    8c10:	cd0d                	beqz	a0,8c4a <__floatsidf+0x42>
    8c12:	41f55793          	srai	a5,a0,0x1f
    8c16:	00a7c4b3          	xor	s1,a5,a0
    8c1a:	8c9d                	sub	s1,s1,a5
    8c1c:	842a                	mv	s0,a0
    8c1e:	8526                	mv	a0,s1
    8c20:	c7ef90ef          	jal	ra,209e <__clzsi2>
    8c24:	41e00693          	li	a3,1054
    8c28:	8e89                	sub	a3,a3,a0
    8c2a:	47a9                	li	a5,10
    8c2c:	807d                	srli	s0,s0,0x1f
    8c2e:	7ff6f693          	andi	a3,a3,2047
    8c32:	02a7cd63          	blt	a5,a0,8c6c <__floatsidf+0x64>
    8c36:	472d                	li	a4,11
    8c38:	8f09                	sub	a4,a4,a0
    8c3a:	00e4d7b3          	srl	a5,s1,a4
    8c3e:	0555                	addi	a0,a0,21
    8c40:	07b2                	slli	a5,a5,0xc
    8c42:	00a494b3          	sll	s1,s1,a0
    8c46:	83b1                	srli	a5,a5,0xc
    8c48:	a029                	j	8c52 <__floatsidf+0x4a>
    8c4a:	4401                	li	s0,0
    8c4c:	4681                	li	a3,0
    8c4e:	4781                	li	a5,0
    8c50:	4481                	li	s1,0
    8c52:	07b2                	slli	a5,a5,0xc
    8c54:	06d2                	slli	a3,a3,0x14
    8c56:	83b1                	srli	a5,a5,0xc
    8c58:	047e                	slli	s0,s0,0x1f
    8c5a:	8fd5                	or	a5,a5,a3
    8c5c:	8fc1                	or	a5,a5,s0
    8c5e:	40b2                	lw	ra,12(sp)
    8c60:	4422                	lw	s0,8(sp)
    8c62:	8526                	mv	a0,s1
    8c64:	85be                	mv	a1,a5
    8c66:	4492                	lw	s1,4(sp)
    8c68:	0141                	addi	sp,sp,16
    8c6a:	8082                	ret
    8c6c:	1555                	addi	a0,a0,-11
    8c6e:	00a497b3          	sll	a5,s1,a0
    8c72:	07b2                	slli	a5,a5,0xc
    8c74:	83b1                	srli	a5,a5,0xc
    8c76:	4481                	li	s1,0
    8c78:	bfe9                	j	8c52 <__floatsidf+0x4a>

00008c7a <__floatunsidf>:
    8c7a:	cd1d                	beqz	a0,8cb8 <__floatunsidf+0x3e>
    8c7c:	1141                	addi	sp,sp,-16
    8c7e:	c422                	sw	s0,8(sp)
    8c80:	c606                	sw	ra,12(sp)
    8c82:	842a                	mv	s0,a0
    8c84:	c1af90ef          	jal	ra,209e <__clzsi2>
    8c88:	41e00693          	li	a3,1054
    8c8c:	8e89                	sub	a3,a3,a0
    8c8e:	47a9                	li	a5,10
    8c90:	7ff6f693          	andi	a3,a3,2047
    8c94:	02a7dc63          	bge	a5,a0,8ccc <__floatunsidf+0x52>
    8c98:	1555                	addi	a0,a0,-11
    8c9a:	00a417b3          	sll	a5,s0,a0
    8c9e:	07b2                	slli	a5,a5,0xc
    8ca0:	83b1                	srli	a5,a5,0xc
    8ca2:	4701                	li	a4,0
    8ca4:	40b2                	lw	ra,12(sp)
    8ca6:	4422                	lw	s0,8(sp)
    8ca8:	07b2                	slli	a5,a5,0xc
    8caa:	06d2                	slli	a3,a3,0x14
    8cac:	83b1                	srli	a5,a5,0xc
    8cae:	8fd5                	or	a5,a5,a3
    8cb0:	853a                	mv	a0,a4
    8cb2:	85be                	mv	a1,a5
    8cb4:	0141                	addi	sp,sp,16
    8cb6:	8082                	ret
    8cb8:	4781                	li	a5,0
    8cba:	4681                	li	a3,0
    8cbc:	07b2                	slli	a5,a5,0xc
    8cbe:	06d2                	slli	a3,a3,0x14
    8cc0:	83b1                	srli	a5,a5,0xc
    8cc2:	4701                	li	a4,0
    8cc4:	8fd5                	or	a5,a5,a3
    8cc6:	853a                	mv	a0,a4
    8cc8:	85be                	mv	a1,a5
    8cca:	8082                	ret
    8ccc:	472d                	li	a4,11
    8cce:	8f09                	sub	a4,a4,a0
    8cd0:	00e457b3          	srl	a5,s0,a4
    8cd4:	07b2                	slli	a5,a5,0xc
    8cd6:	01550713          	addi	a4,a0,21 # 80000015 <_eusrstack+0x5fff8015>
    8cda:	00e41733          	sll	a4,s0,a4
    8cde:	83b1                	srli	a5,a5,0xc
    8ce0:	b7d1                	j	8ca4 <__floatunsidf+0x2a>

00008ce2 <__extenddftf2>:
    8ce2:	01465793          	srli	a5,a2,0x14
    8ce6:	00c61713          	slli	a4,a2,0xc
    8cea:	7ff7f793          	andi	a5,a5,2047
    8cee:	7179                	addi	sp,sp,-48
    8cf0:	8331                	srli	a4,a4,0xc
    8cf2:	00178693          	addi	a3,a5,1
    8cf6:	d422                	sw	s0,40(sp)
    8cf8:	d226                	sw	s1,36(sp)
    8cfa:	d606                	sw	ra,44(sp)
    8cfc:	d04a                	sw	s2,32(sp)
    8cfe:	c82e                	sw	a1,16(sp)
    8d00:	ca3a                	sw	a4,20(sp)
    8d02:	ce02                	sw	zero,28(sp)
    8d04:	cc02                	sw	zero,24(sp)
    8d06:	7fe6f693          	andi	a3,a3,2046
    8d0a:	842a                	mv	s0,a0
    8d0c:	01f65493          	srli	s1,a2,0x1f
    8d10:	cea1                	beqz	a3,8d68 <__extenddftf2+0x86>
    8d12:	6691                	lui	a3,0x4
    8d14:	c0068693          	addi	a3,a3,-1024 # 3c00 <_strtod_l+0xaa4>
    8d18:	97b6                	add	a5,a5,a3
    8d1a:	0045d613          	srli	a2,a1,0x4
    8d1e:	01c71693          	slli	a3,a4,0x1c
    8d22:	07c6                	slli	a5,a5,0x11
    8d24:	8ed1                	or	a3,a3,a2
    8d26:	01c59513          	slli	a0,a1,0x1c
    8d2a:	8311                	srli	a4,a4,0x4
    8d2c:	83c5                	srli	a5,a5,0x11
    8d2e:	4801                	li	a6,0
    8d30:	00e11623          	sh	a4,12(sp)
    8d34:	4732                	lw	a4,12(sp)
    8d36:	07c6                	slli	a5,a5,0x11
    8d38:	800105b7          	lui	a1,0x80010
    8d3c:	83c5                	srli	a5,a5,0x11
    8d3e:	15fd                	addi	a1,a1,-1
    8d40:	07c2                	slli	a5,a5,0x10
    8d42:	8f6d                	and	a4,a4,a1
    8d44:	8fd9                	or	a5,a5,a4
    8d46:	0786                	slli	a5,a5,0x1
    8d48:	01f49613          	slli	a2,s1,0x1f
    8d4c:	8385                	srli	a5,a5,0x1
    8d4e:	8fd1                	or	a5,a5,a2
    8d50:	c048                	sw	a0,4(s0)
    8d52:	01042023          	sw	a6,0(s0) # 80000 <_data_lma+0x7574c>
    8d56:	c414                	sw	a3,8(s0)
    8d58:	c45c                	sw	a5,12(s0)
    8d5a:	8522                	mv	a0,s0
    8d5c:	50b2                	lw	ra,44(sp)
    8d5e:	5422                	lw	s0,40(sp)
    8d60:	5492                	lw	s1,36(sp)
    8d62:	5902                	lw	s2,32(sp)
    8d64:	6145                	addi	sp,sp,48
    8d66:	8082                	ret
    8d68:	00b76533          	or	a0,a4,a1
    8d6c:	eba5                	bnez	a5,8ddc <__extenddftf2+0xfa>
    8d6e:	cd59                	beqz	a0,8e0c <__extenddftf2+0x12a>
    8d70:	c35d                	beqz	a4,8e16 <__extenddftf2+0x134>
    8d72:	853a                	mv	a0,a4
    8d74:	b2af90ef          	jal	ra,209e <__clzsi2>
    8d78:	03150713          	addi	a4,a0,49
    8d7c:	01f77813          	andi	a6,a4,31
    8d80:	8715                	srai	a4,a4,0x5
    8d82:	0a081e63          	bnez	a6,8e3e <__extenddftf2+0x15c>
    8d86:	0810                	addi	a2,sp,16
    8d88:	00271693          	slli	a3,a4,0x2
    8d8c:	40d606b3          	sub	a3,a2,a3
    8d90:	888a                	mv	a7,sp
    8d92:	00271813          	slli	a6,a4,0x2
    8d96:	46cc                	lw	a1,12(a3)
    8d98:	010687b3          	add	a5,a3,a6
    8d9c:	16f1                	addi	a3,a3,-4
    8d9e:	c7cc                	sw	a1,12(a5)
    8da0:	fed89be3          	bne	a7,a3,8d96 <__extenddftf2+0xb4>
    8da4:	177d                	addi	a4,a4,-1
    8da6:	070a                	slli	a4,a4,0x2
    8da8:	9732                	add	a4,a4,a2
    8daa:	00072023          	sw	zero,0(a4)
    8dae:	ffc70693          	addi	a3,a4,-4
    8db2:	00e60963          	beq	a2,a4,8dc4 <__extenddftf2+0xe2>
    8db6:	8736                	mv	a4,a3
    8db8:	00072023          	sw	zero,0(a4)
    8dbc:	ffc70693          	addi	a3,a4,-4
    8dc0:	fee61be3          	bne	a2,a4,8db6 <__extenddftf2+0xd4>
    8dc4:	6791                	lui	a5,0x4
    8dc6:	c0c78793          	addi	a5,a5,-1012 # 3c0c <_strtod_l+0xab0>
    8dca:	8f89                	sub	a5,a5,a0
    8dcc:	07c6                	slli	a5,a5,0x11
    8dce:	4842                	lw	a6,16(sp)
    8dd0:	4552                	lw	a0,20(sp)
    8dd2:	46e2                	lw	a3,24(sp)
    8dd4:	01c15703          	lhu	a4,28(sp)
    8dd8:	83c5                	srli	a5,a5,0x11
    8dda:	bf99                	j	8d30 <__extenddftf2+0x4e>
    8ddc:	c115                	beqz	a0,8e00 <__extenddftf2+0x11e>
    8dde:	67a1                	lui	a5,0x8
    8de0:	00475513          	srli	a0,a4,0x4
    8de4:	01c71693          	slli	a3,a4,0x1c
    8de8:	00f56733          	or	a4,a0,a5
    8dec:	0045d613          	srli	a2,a1,0x4
    8df0:	0742                	slli	a4,a4,0x10
    8df2:	8ed1                	or	a3,a3,a2
    8df4:	01c59513          	slli	a0,a1,0x1c
    8df8:	8341                	srli	a4,a4,0x10
    8dfa:	17fd                	addi	a5,a5,-1
    8dfc:	4801                	li	a6,0
    8dfe:	bf0d                	j	8d30 <__extenddftf2+0x4e>
    8e00:	67a1                	lui	a5,0x8
    8e02:	4681                	li	a3,0
    8e04:	17fd                	addi	a5,a5,-1
    8e06:	4701                	li	a4,0
    8e08:	4801                	li	a6,0
    8e0a:	b71d                	j	8d30 <__extenddftf2+0x4e>
    8e0c:	4681                	li	a3,0
    8e0e:	4781                	li	a5,0
    8e10:	4701                	li	a4,0
    8e12:	4801                	li	a6,0
    8e14:	bf31                	j	8d30 <__extenddftf2+0x4e>
    8e16:	852e                	mv	a0,a1
    8e18:	892e                	mv	s2,a1
    8e1a:	a84f90ef          	jal	ra,209e <__clzsi2>
    8e1e:	05150713          	addi	a4,a0,81
    8e22:	01f77813          	andi	a6,a4,31
    8e26:	02050513          	addi	a0,a0,32
    8e2a:	8715                	srai	a4,a4,0x5
    8e2c:	f4080de3          	beqz	a6,8d86 <__extenddftf2+0xa4>
    8e30:	4789                	li	a5,2
    8e32:	00f70663          	beq	a4,a5,8e3e <__extenddftf2+0x15c>
    8e36:	4709                	li	a4,2
    8e38:	0810                	addi	a2,sp,16
    8e3a:	48b1                	li	a7,12
    8e3c:	a835                	j	8e78 <__extenddftf2+0x196>
    8e3e:	40e006b3          	neg	a3,a4
    8e42:	068a                	slli	a3,a3,0x2
    8e44:	0810                	addi	a2,sp,16
    8e46:	06b1                	addi	a3,a3,12
    8e48:	02000e13          	li	t3,32
    8e4c:	96b2                	add	a3,a3,a2
    8e4e:	00271893          	slli	a7,a4,0x2
    8e52:	410e0e33          	sub	t3,t3,a6
    8e56:	ffc6a583          	lw	a1,-4(a3)
    8e5a:	429c                	lw	a5,0(a3)
    8e5c:	01168333          	add	t1,a3,a7
    8e60:	01c5d5b3          	srl	a1,a1,t3
    8e64:	010797b3          	sll	a5,a5,a6
    8e68:	8ddd                	or	a1,a1,a5
    8e6a:	00b32023          	sw	a1,0(t1)
    8e6e:	16f1                	addi	a3,a3,-4
    8e70:	fed613e3          	bne	a2,a3,8e56 <__extenddftf2+0x174>
    8e74:	4942                	lw	s2,16(sp)
    8e76:	177d                	addi	a4,a4,-1
    8e78:	101c                	addi	a5,sp,32
    8e7a:	98be                	add	a7,a7,a5
    8e7c:	01091933          	sll	s2,s2,a6
    8e80:	ff28a823          	sw	s2,-16(a7)
    8e84:	b70d                	j	8da6 <__extenddftf2+0xc4>

00008e86 <__truncdfsf2>:
    8e86:	0145d693          	srli	a3,a1,0x14
    8e8a:	00c59793          	slli	a5,a1,0xc
    8e8e:	7ff6f693          	andi	a3,a3,2047
    8e92:	83b1                	srli	a5,a5,0xc
    8e94:	00168613          	addi	a2,a3,1
    8e98:	078e                	slli	a5,a5,0x3
    8e9a:	01d55713          	srli	a4,a0,0x1d
    8e9e:	7fe67613          	andi	a2,a2,2046
    8ea2:	81fd                	srli	a1,a1,0x1f
    8ea4:	8f5d                	or	a4,a4,a5
    8ea6:	00351893          	slli	a7,a0,0x3
    8eaa:	ce35                	beqz	a2,8f26 <__truncdfsf2+0xa0>
    8eac:	c8068813          	addi	a6,a3,-896
    8eb0:	0fe00793          	li	a5,254
    8eb4:	0107dd63          	bge	a5,a6,8ece <__truncdfsf2+0x48>
    8eb8:	4781                	li	a5,0
    8eba:	00979513          	slli	a0,a5,0x9
    8ebe:	0ff00693          	li	a3,255
    8ec2:	06de                	slli	a3,a3,0x17
    8ec4:	8125                	srli	a0,a0,0x9
    8ec6:	05fe                	slli	a1,a1,0x1f
    8ec8:	8d55                	or	a0,a0,a3
    8eca:	8d4d                	or	a0,a0,a1
    8ecc:	8082                	ret
    8ece:	0b005563          	blez	a6,8f78 <__truncdfsf2+0xf2>
    8ed2:	00651793          	slli	a5,a0,0x6
    8ed6:	070e                	slli	a4,a4,0x3
    8ed8:	00f037b3          	snez	a5,a5
    8edc:	8fd9                	or	a5,a5,a4
    8ede:	01d8d893          	srli	a7,a7,0x1d
    8ee2:	0117e7b3          	or	a5,a5,a7
    8ee6:	0077f713          	andi	a4,a5,7
    8eea:	10070163          	beqz	a4,8fec <__truncdfsf2+0x166>
    8eee:	00f7f713          	andi	a4,a5,15
    8ef2:	4691                	li	a3,4
    8ef4:	00d70363          	beq	a4,a3,8efa <__truncdfsf2+0x74>
    8ef8:	0791                	addi	a5,a5,4
    8efa:	04000737          	lui	a4,0x4000
    8efe:	8f7d                	and	a4,a4,a5
    8f00:	c775                	beqz	a4,8fec <__truncdfsf2+0x166>
    8f02:	00180713          	addi	a4,a6,1
    8f06:	0ff00613          	li	a2,255
    8f0a:	0ff77693          	andi	a3,a4,255
    8f0e:	fac705e3          	beq	a4,a2,8eb8 <__truncdfsf2+0x32>
    8f12:	079a                	slli	a5,a5,0x6
    8f14:	83a5                	srli	a5,a5,0x9
    8f16:	00979513          	slli	a0,a5,0x9
    8f1a:	06de                	slli	a3,a3,0x17
    8f1c:	8125                	srli	a0,a0,0x9
    8f1e:	05fe                	slli	a1,a1,0x1f
    8f20:	8d55                	or	a0,a0,a3
    8f22:	8d4d                	or	a0,a0,a1
    8f24:	8082                	ret
    8f26:	011767b3          	or	a5,a4,a7
    8f2a:	ee99                	bnez	a3,8f48 <__truncdfsf2+0xc2>
    8f2c:	cf85                	beqz	a5,8f64 <__truncdfsf2+0xde>
    8f2e:	4795                	li	a5,5
    8f30:	079a                	slli	a5,a5,0x6
    8f32:	83a5                	srli	a5,a5,0x9
    8f34:	00979513          	slli	a0,a5,0x9
    8f38:	0ff6f693          	andi	a3,a3,255
    8f3c:	06de                	slli	a3,a3,0x17
    8f3e:	8125                	srli	a0,a0,0x9
    8f40:	05fe                	slli	a1,a1,0x1f
    8f42:	8d55                	or	a0,a0,a3
    8f44:	8d4d                	or	a0,a0,a1
    8f46:	8082                	ret
    8f48:	dba5                	beqz	a5,8eb8 <__truncdfsf2+0x32>
    8f4a:	004007b7          	lui	a5,0x400
    8f4e:	00979513          	slli	a0,a5,0x9
    8f52:	0ff00693          	li	a3,255
    8f56:	06de                	slli	a3,a3,0x17
    8f58:	4581                	li	a1,0
    8f5a:	8125                	srli	a0,a0,0x9
    8f5c:	05fe                	slli	a1,a1,0x1f
    8f5e:	8d55                	or	a0,a0,a3
    8f60:	8d4d                	or	a0,a0,a1
    8f62:	8082                	ret
    8f64:	4781                	li	a5,0
    8f66:	00979513          	slli	a0,a5,0x9
    8f6a:	4681                	li	a3,0
    8f6c:	06de                	slli	a3,a3,0x17
    8f6e:	8125                	srli	a0,a0,0x9
    8f70:	05fe                	slli	a1,a1,0x1f
    8f72:	8d55                	or	a0,a0,a3
    8f74:	8d4d                	or	a0,a0,a1
    8f76:	8082                	ret
    8f78:	57a5                	li	a5,-23
    8f7a:	04f84863          	blt	a6,a5,8fca <__truncdfsf2+0x144>
    8f7e:	47f9                	li	a5,30
    8f80:	00800637          	lui	a2,0x800
    8f84:	410787b3          	sub	a5,a5,a6
    8f88:	457d                	li	a0,31
    8f8a:	8e59                	or	a2,a2,a4
    8f8c:	04f55163          	bge	a0,a5,8fce <__truncdfsf2+0x148>
    8f90:	5779                	li	a4,-2
    8f92:	41070733          	sub	a4,a4,a6
    8f96:	02000513          	li	a0,32
    8f9a:	00e65733          	srl	a4,a2,a4
    8f9e:	00a78863          	beq	a5,a0,8fae <__truncdfsf2+0x128>
    8fa2:	ca268693          	addi	a3,a3,-862
    8fa6:	00d616b3          	sll	a3,a2,a3
    8faa:	00d8e8b3          	or	a7,a7,a3
    8fae:	011037b3          	snez	a5,a7
    8fb2:	8fd9                	or	a5,a5,a4
    8fb4:	0077f713          	andi	a4,a5,7
    8fb8:	4801                	li	a6,0
    8fba:	fb15                	bnez	a4,8eee <__truncdfsf2+0x68>
    8fbc:	00579713          	slli	a4,a5,0x5
    8fc0:	4685                	li	a3,1
    8fc2:	f40748e3          	bltz	a4,8f12 <__truncdfsf2+0x8c>
    8fc6:	4681                	li	a3,0
    8fc8:	b7a5                	j	8f30 <__truncdfsf2+0xaa>
    8fca:	4681                	li	a3,0
    8fcc:	b78d                	j	8f2e <__truncdfsf2+0xa8>
    8fce:	c8268693          	addi	a3,a3,-894
    8fd2:	00d89733          	sll	a4,a7,a3
    8fd6:	00e03733          	snez	a4,a4
    8fda:	00d616b3          	sll	a3,a2,a3
    8fde:	00f8d8b3          	srl	a7,a7,a5
    8fe2:	00d767b3          	or	a5,a4,a3
    8fe6:	00f8e7b3          	or	a5,a7,a5
    8fea:	b7e9                	j	8fb4 <__truncdfsf2+0x12e>
    8fec:	86c2                	mv	a3,a6
    8fee:	b789                	j	8f30 <__truncdfsf2+0xaa>

00008ff0 <__trunctfdf2>:
    8ff0:	00c52803          	lw	a6,12(a0)
    8ff4:	4118                	lw	a4,0(a0)
    8ff6:	4154                	lw	a3,4(a0)
    8ff8:	450c                	lw	a1,8(a0)
    8ffa:	6521                	lui	a0,0x8
    8ffc:	fff50793          	addi	a5,a0,-1 # 7fff <__muldf3+0xed>
    9000:	01085613          	srli	a2,a6,0x10
    9004:	00359e13          	slli	t3,a1,0x3
    9008:	8e7d                	and	a2,a2,a5
    900a:	01d75893          	srli	a7,a4,0x1d
    900e:	01d6d793          	srli	a5,a3,0x1d
    9012:	01081313          	slli	t1,a6,0x10
    9016:	068e                	slli	a3,a3,0x3
    9018:	1141                	addi	sp,sp,-16
    901a:	01c7e7b3          	or	a5,a5,t3
    901e:	0116e6b3          	or	a3,a3,a7
    9022:	01035313          	srli	t1,t1,0x10
    9026:	00371e13          	slli	t3,a4,0x3
    902a:	00160893          	addi	a7,a2,1 # 800001 <_data_lma+0x7f574d>
    902e:	1579                	addi	a0,a0,-2
    9030:	81f5                	srli	a1,a1,0x1d
    9032:	030e                	slli	t1,t1,0x3
    9034:	c43e                	sw	a5,8(sp)
    9036:	c236                	sw	a3,4(sp)
    9038:	c072                	sw	t3,0(sp)
    903a:	00a8f533          	and	a0,a7,a0
    903e:	01f85813          	srli	a6,a6,0x1f
    9042:	0065e5b3          	or	a1,a1,t1
    9046:	c905                	beqz	a0,9076 <__trunctfdf2+0x86>
    9048:	7771                	lui	a4,0xffffc
    904a:	40070713          	addi	a4,a4,1024 # ffffc400 <_eusrstack+0xdfff4400>
    904e:	963a                	add	a2,a2,a4
    9050:	7fe00713          	li	a4,2046
    9054:	04c75d63          	bge	a4,a2,90ae <__trunctfdf2+0xbe>
    9058:	7ff00613          	li	a2,2047
    905c:	4701                	li	a4,0
    905e:	4781                	li	a5,0
    9060:	0732                	slli	a4,a4,0xc
    9062:	0652                	slli	a2,a2,0x14
    9064:	8331                	srli	a4,a4,0xc
    9066:	087e                	slli	a6,a6,0x1f
    9068:	8f51                	or	a4,a4,a2
    906a:	01076733          	or	a4,a4,a6
    906e:	853e                	mv	a0,a5
    9070:	85ba                	mv	a1,a4
    9072:	0141                	addi	sp,sp,16
    9074:	8082                	ret
    9076:	8fd5                	or	a5,a5,a3
    9078:	8fcd                	or	a5,a5,a1
    907a:	01c7e7b3          	or	a5,a5,t3
    907e:	e205                	bnez	a2,909e <__trunctfdf2+0xae>
    9080:	cbf1                	beqz	a5,9154 <__trunctfdf2+0x164>
    9082:	4781                	li	a5,0
    9084:	4695                	li	a3,5
    9086:	0036d593          	srli	a1,a3,0x3
    908a:	00979713          	slli	a4,a5,0x9
    908e:	01d79693          	slli	a3,a5,0x1d
    9092:	00b6e7b3          	or	a5,a3,a1
    9096:	8331                	srli	a4,a4,0xc
    9098:	7ff67613          	andi	a2,a2,2047
    909c:	b7d1                	j	9060 <__trunctfdf2+0x70>
    909e:	dfcd                	beqz	a5,9058 <__trunctfdf2+0x68>
    90a0:	4801                	li	a6,0
    90a2:	7ff00613          	li	a2,2047
    90a6:	00080737          	lui	a4,0x80
    90aa:	4781                	li	a5,0
    90ac:	bf55                	j	9060 <__trunctfdf2+0x70>
    90ae:	0ac04663          	bgtz	a2,915a <__trunctfdf2+0x16a>
    90b2:	fcc00793          	li	a5,-52
    90b6:	0ef64f63          	blt	a2,a5,91b4 <__trunctfdf2+0x1c4>
    90ba:	03d00793          	li	a5,61
    90be:	40c78633          	sub	a2,a5,a2
    90c2:	40565793          	srai	a5,a2,0x5
    90c6:	00080737          	lui	a4,0x80
    90ca:	8dd9                	or	a1,a1,a4
    90cc:	00279513          	slli	a0,a5,0x2
    90d0:	870a                	mv	a4,sp
    90d2:	4681                	li	a3,0
    90d4:	c62e                	sw	a1,12(sp)
    90d6:	00a108b3          	add	a7,sp,a0
    90da:	0711                	addi	a4,a4,4
    90dc:	8a7d                	andi	a2,a2,31
    90de:	01c6e6b3          	or	a3,a3,t3
    90e2:	01170963          	beq	a4,a7,90f4 <__trunctfdf2+0x104>
    90e6:	00072e03          	lw	t3,0(a4) # 80000 <_data_lma+0x7574c>
    90ea:	0711                	addi	a4,a4,4
    90ec:	01c6e6b3          	or	a3,a3,t3
    90f0:	ff171be3          	bne	a4,a7,90e6 <__trunctfdf2+0xf6>
    90f4:	470d                	li	a4,3
    90f6:	8f1d                	sub	a4,a4,a5
    90f8:	ca79                	beqz	a2,91ce <__trunctfdf2+0x1de>
    90fa:	01010893          	addi	a7,sp,16
    90fe:	98aa                	add	a7,a7,a0
    9100:	ff08a883          	lw	a7,-16(a7)
    9104:	02000e13          	li	t3,32
    9108:	40ce0e33          	sub	t3,t3,a2
    910c:	01c898b3          	sll	a7,a7,t3
    9110:	0116e6b3          	or	a3,a3,a7
    9114:	cb75                	beqz	a4,9208 <__trunctfdf2+0x218>
    9116:	070a                	slli	a4,a4,0x2
    9118:	950a                	add	a0,a0,sp
    911a:	00e10eb3          	add	t4,sp,a4
    911e:	888a                	mv	a7,sp
    9120:	410c                	lw	a1,0(a0)
    9122:	00452303          	lw	t1,4(a0)
    9126:	0891                	addi	a7,a7,4
    9128:	00c5d5b3          	srl	a1,a1,a2
    912c:	01c31333          	sll	t1,t1,t3
    9130:	0065e5b3          	or	a1,a1,t1
    9134:	feb8ae23          	sw	a1,-4(a7)
    9138:	0511                	addi	a0,a0,4
    913a:	ff1e93e3          	bne	t4,a7,9120 <__trunctfdf2+0x130>
    913e:	4591                	li	a1,4
    9140:	40f587b3          	sub	a5,a1,a5
    9144:	45b2                	lw	a1,12(sp)
    9146:	0808                	addi	a0,sp,16
    9148:	972a                	add	a4,a4,a0
    914a:	00c5d5b3          	srl	a1,a1,a2
    914e:	feb72823          	sw	a1,-16(a4)
    9152:	a861                	j	91ea <__trunctfdf2+0x1fa>
    9154:	4601                	li	a2,0
    9156:	4701                	li	a4,0
    9158:	b721                	j	9060 <__trunctfdf2+0x70>
    915a:	00469713          	slli	a4,a3,0x4
    915e:	00479513          	slli	a0,a5,0x4
    9162:	01c76733          	or	a4,a4,t3
    9166:	82f1                	srli	a3,a3,0x1c
    9168:	83f1                	srli	a5,a5,0x1c
    916a:	0592                	slli	a1,a1,0x4
    916c:	00e03733          	snez	a4,a4
    9170:	8ec9                	or	a3,a3,a0
    9172:	8fcd                	or	a5,a5,a1
    9174:	8ed9                	or	a3,a3,a4
    9176:	0076f713          	andi	a4,a3,7
    917a:	c711                	beqz	a4,9186 <__trunctfdf2+0x196>
    917c:	00f6f713          	andi	a4,a3,15
    9180:	4591                	li	a1,4
    9182:	02b71c63          	bne	a4,a1,91ba <__trunctfdf2+0x1ca>
    9186:	00800737          	lui	a4,0x800
    918a:	8f7d                	and	a4,a4,a5
    918c:	ee070de3          	beqz	a4,9086 <__trunctfdf2+0x96>
    9190:	0605                	addi	a2,a2,1
    9192:	7ff00713          	li	a4,2047
    9196:	ece601e3          	beq	a2,a4,9058 <__trunctfdf2+0x68>
    919a:	ff800737          	lui	a4,0xff800
    919e:	177d                	addi	a4,a4,-1
    91a0:	8f7d                	and	a4,a4,a5
    91a2:	01d71793          	slli	a5,a4,0x1d
    91a6:	828d                	srli	a3,a3,0x3
    91a8:	0726                	slli	a4,a4,0x9
    91aa:	7ff67613          	andi	a2,a2,2047
    91ae:	8fd5                	or	a5,a5,a3
    91b0:	8331                	srli	a4,a4,0xc
    91b2:	b57d                	j	9060 <__trunctfdf2+0x70>
    91b4:	4685                	li	a3,1
    91b6:	4781                	li	a5,0
    91b8:	4601                	li	a2,0
    91ba:	ffc6b713          	sltiu	a4,a3,-4
    91be:	00174713          	xori	a4,a4,1
    91c2:	97ba                	add	a5,a5,a4
    91c4:	00800737          	lui	a4,0x800
    91c8:	0691                	addi	a3,a3,4
    91ca:	8f7d                	and	a4,a4,a5
    91cc:	b7c1                	j	918c <__trunctfdf2+0x19c>
    91ce:	858a                	mv	a1,sp
    91d0:	00a588b3          	add	a7,a1,a0
    91d4:	0008a883          	lw	a7,0(a7)
    91d8:	0591                	addi	a1,a1,4
    91da:	0605                	addi	a2,a2,1
    91dc:	ff15ae23          	sw	a7,-4(a1) # 8000fffc <_eusrstack+0x60007ffc>
    91e0:	fec758e3          	bge	a4,a2,91d0 <__trunctfdf2+0x1e0>
    91e4:	4711                	li	a4,4
    91e6:	40f707b3          	sub	a5,a4,a5
    91ea:	078a                	slli	a5,a5,0x2
    91ec:	978a                	add	a5,a5,sp
    91ee:	0818                	addi	a4,sp,16
    91f0:	0007a023          	sw	zero,0(a5) # 400000 <_data_lma+0x3f574c>
    91f4:	0791                	addi	a5,a5,4
    91f6:	fee79de3          	bne	a5,a4,91f0 <__trunctfdf2+0x200>
    91fa:	4702                	lw	a4,0(sp)
    91fc:	00d036b3          	snez	a3,a3
    9200:	4792                	lw	a5,4(sp)
    9202:	8ed9                	or	a3,a3,a4
    9204:	4601                	li	a2,0
    9206:	bf85                	j	9176 <__trunctfdf2+0x186>
    9208:	4785                	li	a5,1
    920a:	4701                	li	a4,0
    920c:	bf2d                	j	9146 <__trunctfdf2+0x156>

0000920e <_close>:
    920e:	05800793          	li	a5,88
    9212:	d4f1a023          	sw	a5,-704(gp) # 20000720 <errno>
    9216:	557d                	li	a0,-1
    9218:	8082                	ret

0000921a <_fstat>:
    921a:	05800793          	li	a5,88
    921e:	d4f1a023          	sw	a5,-704(gp) # 20000720 <errno>
    9222:	557d                	li	a0,-1
    9224:	8082                	ret

00009226 <_isatty>:
    9226:	05800793          	li	a5,88
    922a:	d4f1a023          	sw	a5,-704(gp) # 20000720 <errno>
    922e:	4501                	li	a0,0
    9230:	8082                	ret

00009232 <_lseek>:
    9232:	05800793          	li	a5,88
    9236:	d4f1a023          	sw	a5,-704(gp) # 20000720 <errno>
    923a:	557d                	li	a0,-1
    923c:	8082                	ret

0000923e <_read>:
    923e:	05800793          	li	a5,88
    9242:	d4f1a023          	sw	a5,-704(gp) # 20000720 <errno>
    9246:	557d                	li	a0,-1
    9248:	8082                	ret
	...

0000924c <u8g2_font_fub14_tf>:
    924c:	00bd 0304 0505 0504 1506 ff1a 0efb 0efc     ................
    925c:	02fd 058b 0f46 20bd 0006 3420 2101 c309     ....F.. .. 4.!..
    926c:	442d 07e1 0662 1222 24c8 6156 4264 4264     -D..b."..$VadBdB
    927c:	4264 4264 4264 0064 2223 25cc 4b74 4c44     dBdBdBd.#".%tKDL
    928c:	4a44 e646 e460 4660 8895 8898 01cc 01c5     DJF.`.`F........
    929c:	888d 8898 8c94 8894 0014 2024 a62a 2b63     ..........$ *.c+
    92ac:	e6ae 6420 6282 c224 c824 ccca 2aac 24c2     .. d.b$.$....*.$
    92bc:	24c2 e262 c620 322e 0008 2b25 25d2 85a4     .$b. ..2..%+.%..
    92cc:	ca2e 484a 948d 4c90 9098 d888 84c8 89a0     ..JH...L........
    92dc:	94c8 888c 6484 8c88 889c 988c 328c 5519     .....d.......2.U
    92ec:	5552 2372 2600 ce21 8425 eea7 6c20 6a66     RUr#.&!.%... lfj
    92fc:	6a66 ce64 d092 8266 4462 6664 6442 64a8     fjd...f.bDdfBd.d
    930c:	e86a ca80 0082 0927 2cc3 a146 1742 2800     j.....'..,F.B..(
    931c:	240f 436a 6245 c485 89fe c4c8 0088 1329     .$jCEb........).
    932c:	6a24 4143 6444 4462 c4c9 442e 5624 8888     $jCADdbD...D$V..
    933c:	2a00 e811 65e8 4443 4a86 20e6 8a46 4446     .*...eCD.J. F.FD
    934c:	0002 0e2b 318c 2da4 5736 0f07 62c6 0573     ..+..1.-6W...bs.
    935c:	0b2c a4a4 6333 c485 0884 2d00 6508 3d24     ,...3c.....-.e$=
    936c:	41e1 2e00 6308 3428 40e1 2f00 e60f 4be5     .A...c(4.@./...K
    937c:	3749 6a42 d484 6908 0423 1330 25ca 8764     I7Bj...i#.0..%d.
    938c:	46e8 6248 3fc8 109a 3912 a208 3101 c60c     .FHb.?...9...1..
    939c:	5c29 e267 62c0 ff66 3201 ca15 6425 e6a7     )\g..bf..2..%d..
    93ac:	4420 68c8 d96e 1518 b1ab 83b1 0303 1433      D.hn.........3.
    93bc:	25ca a564 64e8 6e66 5551 3ae1 93a3 a391     .%d..dfnQU.:....
    93cc:	001a 1a34 25cb 8b64 95ac d0c4 90c4 ccc8     ..4..%d.........
    93dc:	8cc8 c8cc c8cc 83c1 c1b0 0025 1935 25ca     ..........%.5..%
    93ec:	e15c e240 6240 dd6e c841 c481 e090 919c     \.@.@bn.A.......
    93fc:	c8cd 0d51 3600 ca1b 5c25 ea87 4844 6e44     ..Q..6..%\..DHDn
    940c:	a24e 40e4 4862 c862 84d1 c890 1041 000d     N..@bHb.....A...
    941c:	1537 25ca e164 dd81 dcd8 d918 d8dc d8dc     7..%d...........
    942c:	18dc 14d9 3800 ca17 6425 e6c5 6220 91c8     .....8..%d.. b..
    943c:	91c8 c8cd 90c4 1347 3107 0026 1c39 25ca     ......G..1&.9..%
    944c:	875c 64e8 6248 6248 e8c8 e284 4640 4e64     \..dHbHb....@FdN
    945c:	4862 6644 a8e4 0006 0a3a 2d43 e13c f840     bHDf....:.C-<.@.
    946c:	0040 0e3b a584 6333 907b 8909 1109 0011     @.;...3c{.......
    947c:	0e3c 714c 37a4 6e70 a56c daf0 0161 0b3d     <.Lq.7pnl...a.=.
    948c:	f0ac e1a4 e183 0783 3e03 4c10 a471 7821     .........>.Lq.!x
    949c:	7876 dca9 dcd8 289c 3f00 c914 5c25 e6a5     vx.....(.?..%\..
    94ac:	6842 6822 6a6c 3b4c 10f5 4272 4000 5335     Bh"hljL;..rB.@5S
    94bc:	ab26 f4cf 8e80 688c 6492 62e6 e464 c420     &......h.d.bd. .
    94cc:	6664 64c4 c466 6664 64c4 c466 6664 64c4     df.df.df.df.df.d
    94dc:	4484 e464 64a0 8486 1e68 2c84 60f2 20f6     .Dd..d..h..,.`. 
    94ec:	000a 1e41 21ce 8b74 b494 70d0 6e42 6c64     ..A..!t....pBndl
    94fc:	6c64 6a46 e868 e860 6480 646c 626c 0070     dlFjh.`..dldlbp.
    950c:	1f42 25cb e16c e620 6440 6268 6268 6268     B..%l. .@dhbhbhb
    951c:	e466 e620 6440 624a d5ca c581 0c41 4300     f. .@dJb....A..C
    952c:	cd18 7c25 eca9 6640 446a 626c cf74 c428     ..%|..@fjDlbt.(.
    953c:	8646 0e68 8ac4 4400 cc18 7425 20e1 60e8     F.h....D..%t. .`
    954c:	8864 6a62 cc62 4d5f 510c 8c1c 041c 4501     d.bjb._M.Q.....E
    955c:	ca12 6425 03e1 edb9 240e 240e b6e6 383b     ..%d.....$.$..;8
    956c:	4630 c90d 5c25 b3e1 0ecd ed9e 0019 1d47     0F..%\........G.
    957c:	25cd c97c 40ec 6a66 cc62 d174 d081 9c81     .%|..@fjb.t.....
    958c:	c4dd 04d8 c8d5 d101 0441 4800 cc0e 7425     ........A..H..%t
    959c:	cc61 0ecf 103e b3f3 4901 c307 2c25 1fe1     a...>....I..%,..
    95ac:	0f4a 25ca 6f64 677f 7464 7142 5310 4b03     J..%do.gdtBq.S.K
    95bc:	cb1d 6c25 e861 6286 6466 c4cd 9590 d1d5     ..%la..bfd......
    95cc:	d0c4 ccc8 c908 c50c c4d0 00d4 0c4c 25ca     ............L..%
    95dc:	615c ff6e 83bb 0303 254d 25d0 a194 60ec     \an.....M%.%...`
    95ec:	80ec a0e8 a0e8 c248 6642 62c2 c264 4462     ......H.Bf.bd.bD
    95fc:	44c4 c462 1a93 1a1b 1a1b a19b 4e01 cd21     .Db..........N!.
    960c:	7c25 ec81 ea20 ea20 c840 c662 c662 c464     %|.. . .@.b.b.d.
    961c:	c464 c266 c266 40e8 40e8 20ea 00aa 1a4f     d.f.f..@.@. ..O.
    962c:	25ce c984 60ec 6a66 6e46 5062 d062 2287     .%...`fjFnbPb.."
    963c:	2372 4353 6307 0046 1650 25cb e16c e620     r#SC.cF.P..%l. .
    964c:	6260 6268 a3ca 8389 8389 c198 021d 2051     `bhb..........Q 
    965c:	25cf c98c 40ee 916a c8dc c8a0 c4e0 c4e0     .%...@j.........
    966c:	c4e0 c4e0 8ca0 ccdc d114 d181 0101 1852     ..............R.
    967c:	25cb e16c e440 6260 2bca 0389 0391 a191     .%l.@.`b.+......
    968c:	2989 2989 04cf 1b53 25cc c774 20ea 6a46     .).)..S..%t.. Fj
    969c:	6a62 d262 20ee 20ec d4ae 4ccc 40e4 06ca     bjb.. . ...L.@..
    96ac:	5400 cc0c 7425 83e1 c9a1 affd 5500 cc10     .T..%t.......U..
    96bc:	7425 cc61 d9ff d0c4 41cc 0d94 5600 ce1e     %ta......A...V..
    96cc:	7c21 6e81 6e62 8c62 6a64 6a66 6866 666a     !|.nbnb.djfjfhjf
    96dc:	666a 628a 626e b2ce 1525 5700 d42e a421     jf.bnb..%..W..!.
    96ec:	8881 10c5 c8d1 d110 8cc8 c8cd cd8c 2512     ...............%
    96fc:	2343 864a 4626 8626 4626 a626 8424 c424     C#J.&F&.&F&.$.$.
    970c:	ca8a ca8a ea8a 86c6 5800 cc1a 7425 6c61     .........X..%tal
    971c:	6862 6684 94c9 2159 ab3b a209 9991 89a1     bh.f..Y!;.......
    972c:	b3a9 5901 cc14 6c21 6a81 8862 6664 89a3     ...Y..!l.jb.df..
    973c:	89a9 3ab1 7dca 5a04 cb15 6c25 60e3 60e2     ...:.}.Z..%l.`.`
    974c:	8c8e 8e6e 1d8c b319 83b2 0107 0c5b 2a45     ..n.........[.E*
    975c:	e143 64c0 4fff 060e 115c e5e6 414b 4a48     C..d.O..\...KAHJ
    976c:	9548 aa90 2128 4255 5d0a 450c 432a 60e1     H...(!UB.].E*C.`
    977c:	ff64 0e4f 5e0c 8a16 a435 5049 485d 4858     d.O..^..5.IP]HXH
    978c:	8894 6e50 42c2 22c2 06c4 5f03 4a08 5360     ..Pn.B."..._.J`S
    979c:	81e1 6001 850a 2f1c 6661 4846 6100 4912     ...`.../afFH.a.I
    97ac:	5c25 e6a5 6680 e2c6 c680 41cd 88c9 6200     %\...f.....A...b
    97bc:	ca13 6425 6e61 2417 1207 7e43 7124 3120     ..%dan.$..C~$q 1
    97cc:	0241 1063 2549 a55c 62e6 d9c6 9b1a 9b89     A.c.I%\..b......
    97dc:	0012 1164 25ca 6f64 1427 0713 7e45 7134     ..d..%do'...E~4q
    97ec:	4220 6531 4912 5c25 e6a5 c662 e0e6 d8c1      B1e.I%\..b.....
    97fc:	c4cc 094d 6600 c70f 4425 a487 6864 e0e4     ..M..f..%D..dh..
    980c:	6864 013f 1967 25ca 8563 e262 6240 c8c6     dh?.g..%c.b.@b..
    981c:	1347 2207 7314 4213 0713 2631 6800 c90e     G..".s.B..1&.h..
    982c:	5c25 6c61 1417 3507 cdfe 6900 c30b 2c25     %\al...5...i..%,
    983c:	40e1 e0e6 0103 0d6a 2a44 633b 89ab 17fd     .@....j.D*;c....
    984c:	1307 6b00 c914 5c25 6c61 2727 4b13 dc6c     ...k..%\al''.Kl.
    985c:	8c4c 18ac 9899 6c19 c307 2c25 1fe1 1c6d     L......l..%,..m.
    986c:	254f 6194 8482 e0e2 8680 66c4 66a8 66a8     O%.a.......f.f.f
    987c:	66a8 66a8 66a8 66a8 0048 0c6e 2549 615c     .f.f.f.fH.n.I%\a
    988c:	e282 c6a0 19bf 146f 254a 8764 20e8 4844     ......o.J%d.. DH
    989c:	c862 09a3 9121 2083 001a 1570 25ca 6163     b...!.. ..p..%ca
    98ac:	e482 6240 6248 47c8 1507 2413 db73 7101     ..@bHb.G...$s..q
    98bc:	ca11 6325 6285 a0e2 8fc8 0e26 2844 76e6     ..%c.b....&.D(.v
    98cc:	0c72 2546 6144 a0e2 6664 00df 1273 2549     r.F%Da..df..s.I%
    98dc:	a55c 20e4 c662 aace e6ce a680 0004 0e74     \.. b.........t.
    98ec:	25a7 294c c968 c9c1 1ed0 10d5 0c75 2549     .%L)h.......u.I%
    98fc:	615c bfc6 a839 18a0 1676 214b 615c 626a     \a..9...v.K!\ajb
    990c:	6466 4666 c4d1 c4d0 8494 bb58 0021 2077     fdfF......X.!.w 
    991c:	2151 618c 8568 8d10 48c8 12c9 9109 1119     Q!.ah....H......
    992c:	3589 1316 2642 3545 3455 4464 0033 1478     .5..B&E5U4dD3.x.
    993c:	2549 615c 6266 6444 a662 aa6a 66a8 8d62     I%\afbDdb.j..fb.
    994c:	00cd 1979 21cb 615b 626a 6466 8966 c4d0     ..y..![ajbfdf...
    995c:	c4d0 5954 dd1d bae0 29c1 7a00 480d 5425     ..TY.....).z.H%T
    996c:	81e1 d0d4 1d5e 081c 137b ea87 4b52 6486     ....^...{...RK.d
    997c:	6f68 4d16 494d ed0d 68a8 7c00 a107 3aee     ho.MMI...h.|...:
    998c:	03e1 137d ea87 4152 6a8a af68 8886 1666     ..}...RA.jh...f.
    999c:	09ed 10cd 7e00 6b0d 5d20 4a45 40e2 8642     .....~.k ]EJ.@B.
    99ac:	0004 06a0 2000 0134 0aa1 2dc3 c14b e0ec     ..... 4....-K...
    99bc:	0103 18a2 a5c9 2d5b a830 62e6 45e4 44d0     ......[-0..b.E.D
    99cc:	44d0 c9c4 4dc4 6051 0018 14a3 25ca a764     .D...MQ`.....%d.
    99dc:	20e8 6662 6e62 e6ec 6e68 0767 0607 1ba4     . bfbn..hng.....
    99ec:	e54a 2164 2230 2282 2826 2c26 2c24 2c24     J.d!0"."&(&,$,$,
    99fc:	2c24 2826 8226 6122 a500 cb18 6c25 ca61     $,&(&."a....%la.
    9a0c:	6468 6466 a446 60e2 a6a2 e0e6 d041 8ee0     hdfdF..`....A...
    9a1c:	a600 410a 3b2e 20e1 20e4 a700 4819 5326     ...A.;. . ...H&S
    9a2c:	c4a5 6a62 8c6c 62c6 c9c4 48c1 d915 d114     ..bjl..b...H....
    9a3c:	ccc1 000c 09a8 2047 613f 62c2 a900 ef27     ......G ?a.b..'.
    9a4c:	8c25 f26d 6a40 088d 488d 4d88 8c44 6ec8     %.m.@j...H.MD..n
    9a5c:	0644 0645 4465 4846 4644 4442 644a a4e4     D.E.eDFHDFBDJd..
    9a6c:	040e 00ab 11aa 6527 8345 4944 8885 8884     ......'eE.DI....
    9a7c:	8884 e148 ab01 0a11 6465 c565 c88c 918a     ..H.....ede.....
    9a8c:	466d c8d6 0c8c 09ac 24ab e16d d083 ae0c     mF.......$m.....
    9a9c:	ef27 8c25 f26d 6a40 448d 488d 49c8 8c44     '.%.m.@j.D.H.ID.
    9aac:	1992 aa6d 8c64 9464 c890 8488 c848 c848     ..m.d.d.....H.H.
    9abc:	49c8 081d 0156 08af 2046 e137 00a0 0cb0     .I..V...F 7.....
    9acc:	a485 633e 4622 6226 0002 11b1 318c 2da4     ..>c"F&b.....1.-
    9adc:	d536 83c1 d8b1 e0f4 0f07 b206 060d 45e5     6..............E
    9aec:	4283 4844 6466 031b 10b3 e506 8345 4442     .BDHfd......E.BD
    9afc:	6448 884a 8244 0002 0bb4 2484 4527 4442     HdJ.D......$'EBD
    9b0c:	0442 b600 2928 5b66 82e5 a224 a224 a224     B...()f[..$.$.$.
    9b1c:	a224 8424 2a24 2a24 2a24 2a24 2a24 2a24     $.$.$*$*$*$*$*$*
    9b2c:	2a24 2a24 2a24 2a24 0224 b700 6308 3568     $*$*$*$*$....ch5
    9b3c:	40e1 b800 a50b 2ae4 6823 c648 0002 08b9     .@.....*#hH.....
    9b4c:	e504 c535 1f44 0eba 6527 654d 4246 1b0d     ..5.D...'eMeFB..
    9b5c:	3509 0793 14bb 650a 6164 4664 6466 c8cd     .5.....edadFfd..
    9b6c:	2316 3223 2313 0023 24bc 25ee 4584 844c     .##2.##..$.%.EL.
    9b7c:	484c d14a 9094 8c98 8c9c 889c ccb0 0c94     LHJ.............
    9b8c:	8c91 9084 1a88 1b19 1139 0141 23bd 25ef     ........9.A..#.%
    9b9c:	458c 864c 4a4c 9099 909c 8c9c 8ca0 88a0     .EL.LJ..........
    9bac:	9908 2a88 2131 21b1 21a9 5529 5226 be06     ...*1!.!.!)U&R..
    9bbc:	ee26 8425 4c83 4442 4c48 9548 8c9c 889c     &.%..LBDHLH.....
    9bcc:	8890 1884 ac89 98cc 9508 8488 8890 1122     ..............".
    9bdc:	391b 3919 bf01 c915 5b25 6c69 601e 116c     .9.9....%[il.`l.
    9bec:	d4d1 a2d8 8922 1883 0012 23c0 228e 4974     ...."......#."tI
    9bfc:	5878 1e5a 2925 a169 84e1 c8dc c8d8 8cd8     xXZ.%)i.........
    9c0c:	d0d4 c1d0 01d0 d8c9 d8c8 e0c4 c100 8e22     ..............".
    9c1c:	7422 7651 3d56 524a 42d2 09c3 91b9 91b1     "tQvV=JR.B......
    9c2c:	19b1 a1a9 83a1 03a1 b192 b191 c189 c201     ................
    9c3c:	8e25 7422 946d 4254 4450 1d1e 6929 e1a1     %."tm.TBPD..)i..
    9c4c:	dc84 d8c8 d8c8 d48c d0d0 d0c1 c901 c8d8     ................
    9c5c:	c4d8 00e0 24c3 226e 4b74 d024 2630 211e     .....$n"tK$.0&.!
    9c6c:	6929 e1a1 dc84 d8c8 d8c8 d48c d0d0 d0c1     )i..............
    9c7c:	c901 c8d8 c4d8 00e0 22c4 226e 697c 6e62     ........."n"|ibn
    9c8c:	1e62 51b3 cad2 09c2 89c1 91b1 99b1 99a9     b..Q............
    9c9c:	03a1 039a b192 3991 01c3 25c5 26ad 6b7c     .......9...%.&|k
    9cac:	2632 2630 2630 1e72 64d9 dd61 d8c4 d8c4     2&0&0&r..da.....
    9cbc:	d4c4 d0cc 90cc cc94 c901 c501 bb9c c601     ................
    9ccc:	d324 a421 80f1 a0ee 5acc 7862 7862 7662     $.!......Zbxbxbv
    9cdc:	40e4 e46a 6840 f466 f240 7060 706a c0ea     .@j.@hf.@.`pjp..
    9cec:	60ec c700 4d1c 7b26 eca9 6640 4488 626c     .`...M&{..@f.Dlb
    9cfc:	cf74 c428 8646 0e68 2ca4 6983 a905 c800     t.(.F.h..,.i....
    9d0c:	8a18 6426 7045 5250 f21e 81e0 76dc 1207     ..&dEpPR.....v..
    9d1c:	1207 db73 1c1d c918 8a17 6426 4e6b 3c61     ..s.......&dkNa<
    9d2c:	c1e8 b903 0eed 0e24 e624 3bb6 3038 1aca     ......$.$..;80..
    9d3c:	268a 6764 4a8e 2a42 1e46 e0ee dc81 0776     .&dg.JB*F.....v.
    9d4c:	0712 7312 1ddb 181c 17cb 266a 6364 c4cd     ...s......j&dc..
    9d5c:	923c 0783 db72 481d 481c 6dcc 7077 cc60     <...r..H.H.mwp`.
    9d6c:	850d 2c1e 4661 2848 647a 0fff 0dcd 2684     ...,aFH(zd.....&
    9d7c:	452c 4262 c4e9 5ffe ce00 850f 2c22 6463     ,EbB..._....",cd
    9d8c:	6242 7626 ff64 002f 0ecf 2267 613c 62c2     Bb&vd./...g"<a.b
    9d9c:	701e ff68 004f 23d0 21cd e374 ea20 6660     .ph.O..#.!t. .`f
    9dac:	6488 646a 626c 60ec 60e6 6266 626c 626c     .djdlb.`.`fblblb
    9dbc:	646a e488 e660 0820 d100 6d27 7c26 2649     jd..`. ...'m&|I&
    9dcc:	2ecc 1e26 d905 d441 d441 9081 8cc5 8cc5     ..&...A.A.......
    9ddc:	88c9 88c9 84cd 84cd 81d1 81d0 41d4 0154     .............AT.
    9dec:	1fd2 268e 6784 5a58 1e3a d9a5 ccc1 8cd4     ...&.gXZ:.......
    9dfc:	c4dc c4a0 0fa0 e445 a646 0e86 8cc6 d300     ......E.F.......
    9e0c:	8e1e 8426 7471 3d56 b342 9983 19a9 89b9     ..&.qtV=B.......
    9e1c:	8941 1f41 c88a 4c8d 1d0d 198c d401 8e21     A.A....L......!.
    9e2c:	8426 966b 6252 4630 991e c1d9 d4cc dc8c     &.k.Rb0F........
    9e3c:	a0c4 a0c4 450f 46e4 86a6 c60e 008c 1dd5     .....E.F........
    9e4c:	266e ab84 1ed0 b32b 9983 19a9 89b9 8941     n&....+.......A.
    9e5c:	1f41 c88a 4c8d 1d0d 198c d601 6e1f 8426     A....L.......n&.
    9e6c:	6267 626e 2b1e 83b3 a999 b919 4189 4189     gbnb.+.......A.A
    9e7c:	8a1f 8dc8 0d4c 8c1d 0119 17d7 754a 21a4     ....L.......Ju.!
    9e8c:	4c70 4842 4446 504c 242e 282a 2c26 3022     pLBHFDLP.$*(&,"0
    9e9c:	d800 0f28 83e2 ca3d e644 6680 468a 648c     ..(...=.D..f.F.d
    9eac:	424a 6864 cd62 c4c8 ccc8 a2c4 2b09 aa91     JBdhb........+..
    9ebc:	a999 83a1 8999 68ab d900 8c14 7426 5465     .......h....&teT
    9ecc:	3d56 98f8 b3ff a189 8399 1b28 da00 8c14     V=........(.....
    9edc:	7426 706f 3d52 98f8 b3ff a189 8399 1b28     &topR=........(.
    9eec:	db00 8c17 7426 9269 424e 462e 781e ffcc     ....&ti.NB.F.x..
    9efc:	c4d9 ccd0 9441 000d 15dc 266c 6774 6a62     ....A.....l&tgbj
    9f0c:	1e62 98e1 b3ff a189 8399 1b28 dd00 8c19     b.........(.....
    9f1c:	6c22 526f 3c69 d538 10c4 ccc9 1346 1353     "loRi<8.....F.S.
    9f2c:	7563 fb94 0008 17de 25cb 616c f070 e620     cu.......%lap. .
    9f3c:	6260 6268 a3ca 0389 a391 85c1 df00 ca1e     `bhb............
    9f4c:	6425 e8a5 6220 6266 6266 6446 998b 9989     %d.. bfbfbFd....
    9f5c:	8a11 a399 8903 0383 0a89 e000 0917 5c26     ..............&\
    9f6c:	4e63 3050 b21e 80e6 c666 80e2 cdc6 c941     cNP0....f.....A.
    9f7c:	0088 17e1 2609 6b5c 9d4c 603c 01cd d8cd     .....&\kL.<`....
    9f8c:	41c8 8d85 41cd 8905 e200 0919 5c26 8c67     .A...A......&\g.
    9f9c:	4248 4628 ac1e 80e6 c666 80e2 cdc6 c941     HB(F....f.....A.
    9fac:	0088 15e3 25c9 c55c 1ea6 e6ae 6680 e2c6     .....%\......f..
    9fbc:	c680 41cd 88c9 e400 e916 5c25 c963 3cc4     ...A......%\c..<
    9fcc:	9a82 9a03 8b19 1a03 0737 2325 e502 291b     ........7.%#...)
    9fdc:	5c26 2a67 2826 2826 6a26 b01e 80e6 c666     &\g*&(&(&j....f.
    9fec:	80e2 cdc6 c941 0088 1ce6 2550 a594 c1cd     ....A.....P%....
    9ffc:	ccc5 ccd0 c581 01c1 dccd dccc cd0c c4c1     ................
    a00c:	4d0d 0009 14e7 25c9 a55b 62e6 d9c6 9b1a     .M.....%[..b....
    a01c:	9b89 40aa a13a 0012 17e8 2609 635c 504e     ...@:......&\cNP
    a02c:	1e30 e6b2 c662 e0e6 d8c1 c4cc 094d e900     0...b.......M...
    a03c:	0916 5c26 4c6b 3c5d cd64 8cc5 c1cd b183     ..&\kL]<d.......
    a04c:	8999 129b ea00 0919 5c26 8c67 4248 4628     ........&\g.HB(F
    a05c:	ac1e 62e6 e6c6 c1e0 ccd8 4dc4 0009 16eb     ...b.......M....
    a06c:	25e9 635c c4c9 823c 8b9a 9b19 0783 3363     .%\c..<.......c3
    a07c:	3713 0025 0dec 21e4 412c 4464 6a46 ff62     .7%....!,AdDFjb.
    a08c:	ed00 e40d 2425 4263 dc49 fec4 0005 10ee     ....%$cBI.......
    a09c:	1de7 652c 24a6 4244 7246 ff68 0004 0eef     ..,e.$DBFrh.....
    a0ac:	21c7 6134 62c2 621e ff68 0004 17f0 25ca     .!4a.b.bh......%
    a0bc:	6564 8a44 46aa c995 8841 8f90 8426 0e26     deD..F..A...&.&.
    a0cc:	4a82 f100 c90f 5c25 88a5 6c1e e282 c6a0     .J....%\...l....
    a0dc:	19bf 19f2 260a 4564 5052 1e52 e898 4420     .....&dERPR... D
    a0ec:	6248 a3c8 2109 8391 1a20 f300 0a19 6426     Hb...!.. .....&d
    a0fc:	4e4d 4e50 981e 20e8 4844 c862 09a3 9121     MNPN... DHb...!.
    a10c:	2083 001a 1bf4 260a 4964 4c8e 4a22 1e44     . .....&dI.L"JD.
    a11c:	e894 4420 6248 a3c8 2109 8391 1a20 f500     .. DHb...!.. ...
    a12c:	ca17 6425 a8a7 961e 20e8 4844 c862 09a3     ..%d..... DHb...
    a13c:	9121 2083 001a 19f6 25ea 6564 6662 1e62     !.. .....%debfb.
    a14c:	d111 8841 c490 4790 4213 0722 3441 f700     ..A....G.B".A4..
    a15c:	0c10 a4b1 724b e41e c1e0 883c 14e4 f800     ....Kr....<.....
    a16c:	8a1c 6425 c651 20e4 6644 e462 4220 22c2     ..%dQ.. Dfb. B."
    a17c:	66e4 4662 20e4 8242 1226 f900 0911 5c26     .fbF. B.&.....&\
    a18c:	4e63 3050 6e1e bfc6 a839 18a0 10fa 2609     cNP0.n..9......&
    a19c:	6b5c 5d4c dc3c 7f8c 5073 3141 13fb 2609     \kL]<...sPA1...&
    a1ac:	675c 4a6c 2842 1e26 c66a 39bf a0a8 fc18     \glJB(&.j..9....
    a1bc:	e910 5c25 c963 3cc4 8cf4 737f 4150 fd31     ..%\c..<...sPA1.
    a1cc:	6b1f 5b22 504f 3d32 d0c8 ccc4 ccc8 9992     .k"[OP2=........
    a1dc:	2989 2989 3aab c1ba 90a9 3321 0032 17fe     .).).:....!32...
    a1ec:	264a 6163 176e 0724 4312 4312 3a3e 38a8     J&can.$..C.C>:.8
    a1fc:	9908 0edb ff00 4b1d 5b22 6265 6268 721e     .......K"[ebhb.r
    a20c:	6288 6466 6466 c4d1 c4d0 5954 c1bb c141     .bfdfd....TY..A.
    a21c:	0055 0000 0400 ffff 0000 0000               U...........

0000a228 <u8g2_cb_r0>:
    a228:	0c74 0000 0ce8 0000 0c76 0000 0f4e 0000     t.......v...N...
    a238:	0ede 0000 0f10 0000 0f16 0000 0f7a 0000     ............z...
    a248:	0f80 0000                                   ....

0000a24c <u8x8_d_ssd1306_128x64_noname_init_seq>:
    a24c:	1518 15ae 16d5 1580 16a8 153f 16d3 1500     ..........?.....
    a25c:	1540 168d 1514 1620 1500 15a1 15c8 16da     @..... .........
    a26c:	1512 1681 15cf 16d9 15f1 16db 1540 152e     ............@...
    a27c:	15a4 19a6 00ff 0000                         ........

0000a284 <u8x8_ssd1306_128x64_noname_display_info>:
    a284:	0100 0a14 6464 3232 1200 007a 0400 9628     ....dd22..z...(.
    a294:	0810 0000 0080 0040 167a 0000 16be 0000     ......@.z.......
    a2a4:	16be 0000 165c 0000 1696 0000 169c 0000     ....\...........
    a2b4:	16be 0000 16be 0000 16be 0000 16be 0000     ................
    a2c4:	16be 0000 16be 0000 167a 0000 51ec 4366     ........z....QfC
    a2d4:	0000 0000 0000 8000 ca3d 406c 7953 7473     ........=.l@Syst
    a2e4:	6d65 6c43 3a6b 6425 0a0d 0000 4949 2043     emClk:%d....IIC 
    a2f4:	6f48 7473 6d20 646f 0d65 0000 7453 7261     Host mode...Star
    a304:	6974 676e 0000 0000 3525 312e 0066 0000     ting....%5.1f...
    a314:	2d25 2e35 6632 0000 2d25 2e33 6631 0000     %-5.2f..%-3.1f..
    a324:	2d25 2e35 6630 0000 6f56 746c 6761 2865     %-5.0f..Voltage(
    a334:	2956 0000 7543 7272 6e65 2874 2949 0000     V)..Current(I)..
    a344:	6f50 6577 2072 6146 7463 726f 0000 0000     Power Factor....
    a354:	6f50 6577 2872 576b 0029 0000 6e55 7469     Power(kW)...Unit
    a364:	0073 0000                                   s...

0000a368 <__clz_tab>:
    a368:	0100 0202 0303 0303 0404 0404 0404 0404     ................
    a378:	0505 0505 0505 0505 0505 0505 0505 0505     ................
    a388:	0606 0606 0606 0606 0606 0606 0606 0606     ................
    a398:	0606 0606 0606 0606 0606 0606 0606 0606     ................
    a3a8:	0707 0707 0707 0707 0707 0707 0707 0707     ................
    a3b8:	0707 0707 0707 0707 0707 0707 0707 0707     ................
    a3c8:	0707 0707 0707 0707 0707 0707 0707 0707     ................
    a3d8:	0707 0707 0707 0707 0707 0707 0707 0707     ................
    a3e8:	0808 0808 0808 0808 0808 0808 0808 0808     ................
    a3f8:	0808 0808 0808 0808 0808 0808 0808 0808     ................
    a408:	0808 0808 0808 0808 0808 0808 0808 0808     ................
    a418:	0808 0808 0808 0808 0808 0808 0808 0808     ................
    a428:	0808 0808 0808 0808 0808 0808 0808 0808     ................
    a438:	0808 0808 0808 0808 0808 0808 0808 0808     ................
    a448:	0808 0808 0808 0808 0808 0808 0808 0808     ................
    a458:	0808 0808 0808 0808 0808 0808 0808 0808     ................
    a468:	ffff ffff ffff 7fef 4e49 0046 6e69 0066     ........INF.inf.
    a478:	414e 004e 616e 006e 0030 0000 3130 3332     NAN.nan.0...0123
    a488:	3534 3736 3938 4241 4443 4645 0000 0000     456789ABCDEF....
    a498:	3130 3332 3534 3736 3938 6261 6463 6665     0123456789abcdef
    a4a8:	0000 0000 2565 646c 0000 0000 0000 7fc0     ....e%ld........
    a4b8:	8e04 ffff 8df0 ffff 8e22 ffff 8e28 ffff     ........"...(...
    a4c8:	8e04 ffff 0000 0000 0000 0000 0000 3fe0     ...............?
    a4d8:	0000 0000 0000 3ff0 0000 0000 0000 4000     .......?.......@
    a4e8:	0000 ffc0 ffff 41df 3595 94a0 ffff 3fdf     .......A.5.....?
    a4f8:	e535 35af 0000 3fe0 3595 94a0 ffff 3fcf     5..5...?.5.....?
    a508:	666e 0000 6e69 7469 0079 0000 6e61 0000     nf..inity...an..

0000a518 <fpi.3395>:
    a518:	0035 0000 fbce ffff 03cb 0000 0001 0000     5...............
    a528:	0000 0000                                   ....

0000a52c <fpinan.3431>:
    a52c:	0034 0000 fbce ffff 03cb 0000 0001 0000     4...............
    a53c:	0000 0000                                   ....

0000a540 <tinytens>:
    a540:	89bc 97d8 d2b2 3c9c a733 d5a8 f623 3949     .......<3...#.I9
    a550:	a73d 44f4 0ffd 32a5 979d cf8c ba08 255b     =..D...2......[%
    a560:	6f43 64ac 0628 1168 0000 0000 0000 3ff8     Co.d(.h........?
    a570:	4361 636f 87a7 3fd2 c8b3 8b60 8a28 3fc6     aCoc...?..`.(..?
    a580:	79fb 509f 4413 3fd3 0000 0000 0000 4024     .y.P.D.?......$@
    a590:	0000 0000 0000 401c 0000 0000 0000 4014     .......@.......@
    a5a0:	6e49 6966 696e 7974 0000 0000 614e 004e     Infinity....NaN.

0000a5b0 <__sf_fake_stderr>:
	...

0000a5d0 <__sf_fake_stdin>:
	...

0000a5f0 <__sf_fake_stdout>:
	...
    a610:	0043 0000 4f50 4953 0058 0000 002e 0000     C...POSIX.......

0000a620 <__mprec_bigtens>:
    a620:	8000 37e0 c379 4341 6e17 b505 b8b5 4693     ...7y.AC.n.....F
    a630:	f9f5 e93f 4f03 4d38 1d32 f930 7748 5a82     ..?..O8M2.0.Hw.Z
    a640:	bf3c 7f73 4fdd 7515                         <.s..O.u

0000a648 <__mprec_tens>:
    a648:	0000 0000 0000 3ff0 0000 0000 0000 4024     .......?......$@
    a658:	0000 0000 0000 4059 0000 0000 4000 408f     ......Y@.....@.@
    a668:	0000 0000 8800 40c3 0000 0000 6a00 40f8     .......@.....j.@
    a678:	0000 0000 8480 412e 0000 0000 12d0 4163     .......A......cA
    a688:	0000 0000 d784 4197 0000 0000 cd65 41cd     .......A....e..A
    a698:	0000 2000 a05f 4202 0000 e800 4876 4237     ... _..B....vH7B
    a6a8:	0000 a200 1a94 426d 0000 e540 309c 42a2     ......mB..@..0.B
    a6b8:	0000 1e90 bcc4 42d6 0000 2634 6bf5 430c     .......B..4&.k.C
    a6c8:	8000 37e0 c379 4341 a000 85d8 3457 4376     ...7y.AC....W4vC
    a6d8:	c800 674e c16d 43ab 3d00 6091 58e4 43e1     ..Ngm..C.=.`.X.C
    a6e8:	8c40 78b5 af1d 4415 ef50 d6e2 1ae4 444b     @..x...DP.....KD
    a6f8:	d592 064d f0cf 4480 4af6 c7e1 2d02 44b5     ..M....D.J...-.D
    a708:	9db4 79d9 7843 44ea                         ...yCx.D

0000a710 <p05.3319>:
    a710:	0005 0000 0019 0000 007d 0000 2d23 2b30     ........}...#-0+
    a720:	0020 0000 6c68 004c 6665 4567 4746 0000      ...hlL.efgEFG..

0000a730 <_ctype_>:
    a730:	2000 2020 2020 2020 2020 2828 2828 2028     .         ((((( 
    a740:	2020 2020 2020 2020 2020 2020 2020 2020                     
    a750:	8820 1010 1010 1010 1010 1010 1010 1010      ...............
    a760:	0410 0404 0404 0404 0404 1004 1010 1010     ................
    a770:	1010 4141 4141 4141 0101 0101 0101 0101     ..AAAAAA........
    a780:	0101 0101 0101 0101 0101 0101 1010 1010     ................
    a790:	1010 4242 4242 4242 0202 0202 0202 0202     ..BBBBBB........
    a7a0:	0202 0202 0202 0202 0202 0202 1010 1010     ................
    a7b0:	0020 0000 0000 0000 0000 0000 0000 0000      ...............
	...
    a834:	d19e ffff d022 ffff d132 ffff d13a ffff     ...."...2...:...
    a844:	d132 ffff d052 ffff d132 ffff d13a ffff     2...R...2...:...
    a854:	d022 ffff d022 ffff d052 ffff d13a ffff     "..."...R...:...
    a864:	d194 ffff d194 ffff d194 ffff d052 ffff     ............R...
    a874:	d8ae ffff d7a0 ffff d7a0 ffff d79e ffff     ................
    a884:	d7a6 ffff d7a6 ffff d76c ffff d79e ffff     ........l.......
    a894:	d7a6 ffff d76c ffff d7a6 ffff d79e ffff     ....l...........
    a8a4:	d89a ffff d89a ffff d89a ffff d76c ffff     ............l...
